ARM GAS  C:\Users\einom\AppData\Local\Temp\ccWbNOsJ.s 			page 1


   1              		.cpu cortex-m4
   2              		.arch armv7e-m
   3              		.fpu fpv4-sp-d16
   4              		.eabi_attribute 27, 1
   5              		.eabi_attribute 28, 1
   6              		.eabi_attribute 20, 1
   7              		.eabi_attribute 21, 1
   8              		.eabi_attribute 23, 3
   9              		.eabi_attribute 24, 1
  10              		.eabi_attribute 25, 1
  11              		.eabi_attribute 26, 1
  12              		.eabi_attribute 30, 2
  13              		.eabi_attribute 34, 1
  14              		.eabi_attribute 18, 4
  15              		.file	"main.c"
  16              		.text
  17              	.Ltext0:
  18              		.cfi_sections	.debug_frame
  19              		.file 1 "Core/Src/main.c"
  20              		.section	.text.SystemClock_Config,"ax",%progbits
  21              		.align	1
  22              		.p2align 2,,3
  23              		.global	SystemClock_Config
  24              		.syntax unified
  25              		.thumb
  26              		.thumb_func
  28              	SystemClock_Config:
  29              	.LFB138:
   1:Core/Src/main.c **** /* USER CODE BEGIN Header */
   2:Core/Src/main.c **** /**
   3:Core/Src/main.c ****   ******************************************************************************
   4:Core/Src/main.c ****   * @file           : main.c
   5:Core/Src/main.c ****   * @brief          : Main program body
   6:Core/Src/main.c ****   ******************************************************************************
   7:Core/Src/main.c ****   * @attention
   8:Core/Src/main.c ****   *
   9:Core/Src/main.c ****   * Copyright (c) 2025 STMicroelectronics.
  10:Core/Src/main.c ****   * All rights reserved.
  11:Core/Src/main.c ****   *
  12:Core/Src/main.c ****   * This software is licensed under terms that can be found in the LICENSE file
  13:Core/Src/main.c ****   * in the root directory of this software component.
  14:Core/Src/main.c ****   * If no LICENSE file comes with this software, it is provided AS-IS.
  15:Core/Src/main.c ****   *
  16:Core/Src/main.c ****   ******************************************************************************
  17:Core/Src/main.c ****   */
  18:Core/Src/main.c **** /* USER CODE END Header */
  19:Core/Src/main.c **** /* Includes ------------------------------------------------------------------*/
  20:Core/Src/main.c **** #include "main.h"
  21:Core/Src/main.c **** 
  22:Core/Src/main.c **** /* Private includes ----------------------------------------------------------*/
  23:Core/Src/main.c **** /* USER CODE BEGIN Includes */
  24:Core/Src/main.c **** #include <stdio.h>
  25:Core/Src/main.c **** #include <stdint.h>
  26:Core/Src/main.c **** 
  27:Core/Src/main.c **** /* USER CODE END Includes */
  28:Core/Src/main.c **** 
  29:Core/Src/main.c **** /* Private typedef -----------------------------------------------------------*/
ARM GAS  C:\Users\einom\AppData\Local\Temp\ccWbNOsJ.s 			page 2


  30:Core/Src/main.c **** /* USER CODE BEGIN PTD */
  31:Core/Src/main.c **** 
  32:Core/Src/main.c **** /* USER CODE END PTD */
  33:Core/Src/main.c **** 
  34:Core/Src/main.c **** /* Private define ------------------------------------------------------------*/
  35:Core/Src/main.c **** /* USER CODE BEGIN PD */
  36:Core/Src/main.c **** 
  37:Core/Src/main.c **** /* USER CODE END PD */
  38:Core/Src/main.c **** 
  39:Core/Src/main.c **** /* Private macro -------------------------------------------------------------*/
  40:Core/Src/main.c **** /* USER CODE BEGIN PM */
  41:Core/Src/main.c **** 
  42:Core/Src/main.c **** /* USER CODE END PM */
  43:Core/Src/main.c **** 
  44:Core/Src/main.c **** /* Private variables ---------------------------------------------------------*/
  45:Core/Src/main.c **** 
  46:Core/Src/main.c **** /* USER CODE BEGIN PV */
  47:Core/Src/main.c **** //TODO: Define variables you think you might need
  48:Core/Src/main.c **** // - Performance timing variables (e.g execution time, throughput, pixels per second, clock cycles)
  49:Core/Src/main.c **** /* Task 5: FPU Impact Analysis - compare float vs double, FPU enabled vs disabled */
  50:Core/Src/main.c **** static const uint32_t kMaxIter = 100u;
  51:Core/Src/main.c **** static const uint32_t kNumResolutions = 5;
  52:Core/Src/main.c **** static const uint16_t kWidths[5]  = {128, 160, 192, 224, 256};  /* Practical 1B sizes */
  53:Core/Src/main.c **** static const uint16_t kHeights[5] = {128, 160, 192, 224, 256};
  54:Core/Src/main.c **** 
  55:Core/Src/main.c **** /* Memory management for large images */
  56:Core/Src/main.c **** #define MAX_TILE_SIZE 256  /* Maximum tile size that fits in available SRAM */
  57:Core/Src/main.c **** #define TILE_OVERLAP 0     /* No overlap needed for Mandelbrot calculation */
  58:Core/Src/main.c **** 
  59:Core/Src/main.c **** /* Live Expressions: current benchmark metrics */
  60:Core/Src/main.c **** volatile uint32_t g_current_width = 0u;
  61:Core/Src/main.c **** volatile uint32_t g_current_height = 0u;
  62:Core/Src/main.c **** volatile uint32_t g_current_cycles = 0u;
  63:Core/Src/main.c **** volatile uint32_t g_current_checksum = 0u;
  64:Core/Src/main.c **** volatile double g_current_execution_time = 0.0;
  65:Core/Src/main.c **** volatile double g_current_throughput = 0.0;
  66:Core/Src/main.c **** 
  67:Core/Src/main.c **** /* Task 5: FPU Impact Analysis Results */
  68:Core/Src/main.c **** /* Float precision results */
  69:Core/Src/main.c **** volatile uint32_t checksum_float[5] = {0u, 0u, 0u, 0u, 0u};
  70:Core/Src/main.c **** volatile double execution_time_ms_float[5] = {0.0, 0.0, 0.0, 0.0, 0.0};
  71:Core/Src/main.c **** volatile uint32_t cpu_cycles_float[5] = {0u, 0u, 0u, 0u, 0u};
  72:Core/Src/main.c **** volatile double throughput_pps_float[5] = {0.0, 0.0, 0.0, 0.0, 0.0};
  73:Core/Src/main.c **** 
  74:Core/Src/main.c **** /* Double precision results */
  75:Core/Src/main.c **** volatile uint32_t checksum_double[5] = {0u, 0u, 0u, 0u, 0u};
  76:Core/Src/main.c **** volatile double execution_time_ms_double[5] = {0.0, 0.0, 0.0, 0.0, 0.0};
  77:Core/Src/main.c **** volatile uint32_t cpu_cycles_double[5] = {0u, 0u, 0u, 0u, 0u};
  78:Core/Src/main.c **** volatile double throughput_pps_double[5] = {0.0, 0.0, 0.0, 0.0, 0.0};
  79:Core/Src/main.c **** 
  80:Core/Src/main.c **** /* Accuracy comparison */
  81:Core/Src/main.c **** volatile double accuracy_diff_percent[5] = {0.0, 0.0, 0.0, 0.0, 0.0};
  82:Core/Src/main.c **** volatile double speedup_factor[5] = {0.0, 0.0, 0.0, 0.0, 0.0};
  83:Core/Src/main.c **** 
  84:Core/Src/main.c **** /* Current test configuration */
  85:Core/Src/main.c **** volatile uint32_t g_current_test_mode = 0u; /* 0=float, 1=double */
  86:Core/Src/main.c **** volatile uint32_t g_fpu_enabled = 1u; /* 1=FPU enabled, 0=FPU disabled */
ARM GAS  C:\Users\einom\AppData\Local\Temp\ccWbNOsJ.s 			page 3


  87:Core/Src/main.c **** 
  88:Core/Src/main.c **** /* Task 6: Total program runtime measurement */
  89:Core/Src/main.c **** volatile uint32_t g_total_program_cycles = 0u;
  90:Core/Src/main.c **** volatile double g_total_program_time_ms = 0.0;
  91:Core/Src/main.c **** volatile double g_total_time_sum = 0.0;
  92:Core/Src/main.c **** 
  93:Core/Src/main.c **** /* USER CODE END PV */
  94:Core/Src/main.c **** 
  95:Core/Src/main.c **** /* Private function prototypes -----------------------------------------------*/
  96:Core/Src/main.c **** void SystemClock_Config(void);
  97:Core/Src/main.c **** static void MX_GPIO_Init(void);
  98:Core/Src/main.c **** /* USER CODE BEGIN PFP */
  99:Core/Src/main.c **** //TODO: Define any function prototypes you might need such as the calculate Mandelbrot function amo
 100:Core/Src/main.c **** static uint32_t generate_mandelbrot_checksum_float(uint16_t width, uint16_t height, uint32_t max_it
 101:Core/Src/main.c **** static uint32_t generate_mandelbrot_checksum_double(uint16_t width, uint16_t height, uint32_t max_i
 102:Core/Src/main.c **** static void dwt_cycle_counter_init(void);
 103:Core/Src/main.c **** static inline uint32_t dwt_get_cycles(void);
 104:Core/Src/main.c **** static void log_fpu_benchmark(uint16_t width, uint16_t height, uint32_t cycles, uint32_t checksum, 
 105:Core/Src/main.c **** static void log_fpu_comparison(uint16_t width, uint16_t height, uint32_t checksum_float, uint32_t c
 106:Core/Src/main.c **** int __io_putchar(int ch);
 107:Core/Src/main.c **** 
 108:Core/Src/main.c **** /* USER CODE END PFP */
 109:Core/Src/main.c **** 
 110:Core/Src/main.c **** /* Private user code ---------------------------------------------------------*/
 111:Core/Src/main.c **** /* USER CODE BEGIN 0 */
 112:Core/Src/main.c **** 
 113:Core/Src/main.c **** /* USER CODE END 0 */
 114:Core/Src/main.c **** 
 115:Core/Src/main.c **** /**
 116:Core/Src/main.c ****   * @brief  The application entry point.
 117:Core/Src/main.c ****   * @retval int
 118:Core/Src/main.c ****   */
 119:Core/Src/main.c **** int main(void)
 120:Core/Src/main.c **** {
 121:Core/Src/main.c **** 
 122:Core/Src/main.c ****   /* USER CODE BEGIN 1 */
 123:Core/Src/main.c **** 
 124:Core/Src/main.c ****   /* USER CODE END 1 */
 125:Core/Src/main.c **** 
 126:Core/Src/main.c ****   /* MCU Configuration--------------------------------------------------------*/
 127:Core/Src/main.c **** 
 128:Core/Src/main.c ****   /* Reset of all peripherals, Initializes the Flash interface and the Systick. */
 129:Core/Src/main.c ****   HAL_Init();
 130:Core/Src/main.c **** 
 131:Core/Src/main.c ****   /* USER CODE BEGIN Init */
 132:Core/Src/main.c **** 
 133:Core/Src/main.c ****   /* USER CODE END Init */
 134:Core/Src/main.c **** 
 135:Core/Src/main.c ****   /* Configure the system clock */
 136:Core/Src/main.c ****   SystemClock_Config();
 137:Core/Src/main.c **** 
 138:Core/Src/main.c ****   /* USER CODE BEGIN SysInit */
 139:Core/Src/main.c **** 
 140:Core/Src/main.c ****   /* USER CODE END SysInit */
 141:Core/Src/main.c **** 
 142:Core/Src/main.c ****   /* Initialize all configured peripherals */
 143:Core/Src/main.c ****   MX_GPIO_Init();
ARM GAS  C:\Users\einom\AppData\Local\Temp\ccWbNOsJ.s 			page 4


 144:Core/Src/main.c ****   /* USER CODE BEGIN 2 */
 145:Core/Src/main.c ****   dwt_cycle_counter_init();
 146:Core/Src/main.c ****   printf("\r\nEEE3096S Practical 3 - STM32F4 Mandelbrot Benchmark\r\n");
 147:Core/Src/main.c ****   printf("SYSCLK: %lu Hz\r\n", SystemCoreClock);
 148:Core/Src/main.c **** 
 149:Core/Src/main.c ****   /* USER CODE END 2 */
 150:Core/Src/main.c **** 
 151:Core/Src/main.c ****   /* Infinite loop */
 152:Core/Src/main.c ****   /* USER CODE BEGIN WHILE */
 153:Core/Src/main.c ****   while (1)
 154:Core/Src/main.c ****   {
 155:Core/Src/main.c ****     /* USER CODE END WHILE */
 156:Core/Src/main.c **** 
 157:Core/Src/main.c ****     /* USER CODE BEGIN 3 */
 158:Core/Src/main.c ****       /* Start total program timing */
 159:Core/Src/main.c ****       DWT->CYCCNT = 0;
 160:Core/Src/main.c ****       uint32_t program_start_cycles = dwt_get_cycles();
 161:Core/Src/main.c ****       
 162:Core/Src/main.c ****       /* Visual indicator: LED0 ON */
 163:Core/Src/main.c ****       HAL_GPIO_WritePin(GPIOB, GPIO_PIN_0, GPIO_PIN_SET);
 164:Core/Src/main.c **** 
 165:Core/Src/main.c ****       /* Task 5: FPU Impact Analysis - Test both float and double precision */
 166:Core/Src/main.c ****       
 167:Core/Src/main.c ****       /* Test 1: Float precision */
 168:Core/Src/main.c ****       g_current_test_mode = 0u; /* float */
 169:Core/Src/main.c ****       printf("\r\n=== FPU Impact Analysis: FLOAT PRECISION ===\r\n");
 170:Core/Src/main.c ****       for (uint32_t size_index = 0; size_index < kNumResolutions; ++size_index)
 171:Core/Src/main.c ****       {
 172:Core/Src/main.c ****         uint16_t w = kWidths[size_index];
 173:Core/Src/main.c ****         uint16_t h = kHeights[size_index];
 174:Core/Src/main.c ****         g_current_width = (uint32_t)w;
 175:Core/Src/main.c ****         g_current_height = (uint32_t)h;
 176:Core/Src/main.c **** 
 177:Core/Src/main.c ****         DWT->CYCCNT = 0; // reset cycle counter
 178:Core/Src/main.c ****         uint32_t start_cycles = dwt_get_cycles();
 179:Core/Src/main.c ****         uint32_t result_checksum = generate_mandelbrot_checksum_float(w, h, kMaxIter);
 180:Core/Src/main.c ****         uint32_t end_cycles = dwt_get_cycles();
 181:Core/Src/main.c ****         uint32_t elapsed_cycles = end_cycles - start_cycles;
 182:Core/Src/main.c ****         double elapsed_seconds = (double)elapsed_cycles / (double)SystemCoreClock;
 183:Core/Src/main.c ****         double total_pixels = (double)w * (double)h;
 184:Core/Src/main.c ****         double throughput = total_pixels / elapsed_seconds;
 185:Core/Src/main.c **** 
 186:Core/Src/main.c ****         /* Update Live Expressions */
 187:Core/Src/main.c ****         g_current_cycles = elapsed_cycles;
 188:Core/Src/main.c ****         g_current_checksum = result_checksum;
 189:Core/Src/main.c ****         g_current_execution_time = elapsed_seconds * 1000.0;
 190:Core/Src/main.c ****         g_current_throughput = throughput;
 191:Core/Src/main.c **** 
 192:Core/Src/main.c ****         /* Store float results */
 193:Core/Src/main.c ****         checksum_float[size_index] = result_checksum;
 194:Core/Src/main.c ****         execution_time_ms_float[size_index] = elapsed_seconds * 1000.0;
 195:Core/Src/main.c ****         cpu_cycles_float[size_index] = elapsed_cycles;
 196:Core/Src/main.c ****         throughput_pps_float[size_index] = throughput;
 197:Core/Src/main.c **** 
 198:Core/Src/main.c ****         log_fpu_benchmark(w, h, elapsed_cycles, result_checksum, throughput, "FLOAT");
 199:Core/Src/main.c ****       }
 200:Core/Src/main.c ****       
ARM GAS  C:\Users\einom\AppData\Local\Temp\ccWbNOsJ.s 			page 5


 201:Core/Src/main.c ****       /* Test 2: Double precision */
 202:Core/Src/main.c ****       g_current_test_mode = 1u; /* double */
 203:Core/Src/main.c ****       printf("\r\n=== FPU Impact Analysis: DOUBLE PRECISION ===\r\n");
 204:Core/Src/main.c ****       for (uint32_t size_index = 0; size_index < kNumResolutions; ++size_index)
 205:Core/Src/main.c ****       {
 206:Core/Src/main.c ****         uint16_t w = kWidths[size_index];
 207:Core/Src/main.c ****         uint16_t h = kHeights[size_index];
 208:Core/Src/main.c ****         g_current_width = (uint32_t)w;
 209:Core/Src/main.c ****         g_current_height = (uint32_t)h;
 210:Core/Src/main.c **** 
 211:Core/Src/main.c ****         DWT->CYCCNT = 0; // reset cycle counter
 212:Core/Src/main.c ****         uint32_t start_cycles = dwt_get_cycles();
 213:Core/Src/main.c ****         uint32_t result_checksum = generate_mandelbrot_checksum_double(w, h, kMaxIter);
 214:Core/Src/main.c ****         uint32_t end_cycles = dwt_get_cycles();
 215:Core/Src/main.c ****         uint32_t elapsed_cycles = end_cycles - start_cycles;
 216:Core/Src/main.c ****         double elapsed_seconds = (double)elapsed_cycles / (double)SystemCoreClock;
 217:Core/Src/main.c ****         double total_pixels = (double)w * (double)h;
 218:Core/Src/main.c ****         double throughput = total_pixels / elapsed_seconds;
 219:Core/Src/main.c **** 
 220:Core/Src/main.c ****         /* Update Live Expressions */
 221:Core/Src/main.c ****         g_current_cycles = elapsed_cycles;
 222:Core/Src/main.c ****         g_current_checksum = result_checksum;
 223:Core/Src/main.c ****         g_current_execution_time = elapsed_seconds * 1000.0;
 224:Core/Src/main.c ****         g_current_throughput = throughput;
 225:Core/Src/main.c **** 
 226:Core/Src/main.c ****         /* Store double results */
 227:Core/Src/main.c ****         checksum_double[size_index] = result_checksum;
 228:Core/Src/main.c ****         execution_time_ms_double[size_index] = elapsed_seconds * 1000.0;
 229:Core/Src/main.c ****         cpu_cycles_double[size_index] = elapsed_cycles;
 230:Core/Src/main.c ****         throughput_pps_double[size_index] = throughput;
 231:Core/Src/main.c **** 
 232:Core/Src/main.c ****         log_fpu_benchmark(w, h, elapsed_cycles, result_checksum, throughput, "DOUBLE");
 233:Core/Src/main.c ****       }
 234:Core/Src/main.c ****       
 235:Core/Src/main.c ****       /* Calculate and log comparisons */
 236:Core/Src/main.c ****       printf("\r\n=== FPU Impact Analysis: COMPARISON ===\r\n");
 237:Core/Src/main.c ****       for (uint32_t size_index = 0; size_index < kNumResolutions; ++size_index)
 238:Core/Src/main.c ****       {
 239:Core/Src/main.c ****         uint16_t w = kWidths[size_index];
 240:Core/Src/main.c ****         uint16_t h = kHeights[size_index];
 241:Core/Src/main.c ****         
 242:Core/Src/main.c ****         /* Calculate accuracy difference */
 243:Core/Src/main.c ****         double accuracy_diff = 0.0;
 244:Core/Src/main.c ****         if (checksum_double[size_index] != 0) {
 245:Core/Src/main.c ****           accuracy_diff = ((double)checksum_float[size_index] - (double)checksum_double[size_index]
 246:Core/Src/main.c ****         }
 247:Core/Src/main.c ****         accuracy_diff_percent[size_index] = accuracy_diff;
 248:Core/Src/main.c ****         
 249:Core/Src/main.c ****         /* Calculate speedup factor */
 250:Core/Src/main.c ****         double speedup = 0.0;
 251:Core/Src/main.c ****         if (execution_time_ms_float[size_index] != 0) {
 252:Core/Src/main.c ****           speedup = execution_time_ms_double[size_index] / execution_time_ms_float[size_index];
 253:Core/Src/main.c ****         }
 254:Core/Src/main.c ****         speedup_factor[size_index] = speedup;
 255:Core/Src/main.c ****         
 256:Core/Src/main.c ****         log_fpu_comparison(w, h, checksum_float[size_index], checksum_double[size_index], speedup);
 257:Core/Src/main.c ****       }
ARM GAS  C:\Users\einom\AppData\Local\Temp\ccWbNOsJ.s 			page 6


 258:Core/Src/main.c **** 
 259:Core/Src/main.c ****       /* End total program timing */
 260:Core/Src/main.c ****       uint32_t program_end_cycles = dwt_get_cycles();
 261:Core/Src/main.c ****       g_total_program_cycles = program_end_cycles - program_start_cycles;
 262:Core/Src/main.c ****       g_total_program_time_ms = (double)g_total_program_cycles / (double)SystemCoreClock * 1000.0;
 263:Core/Src/main.c ****       
 264:Core/Src/main.c ****       /* Calculate total time sum from individual tests */
 265:Core/Src/main.c ****       g_total_time_sum = 0.0;
 266:Core/Src/main.c ****       for (uint32_t i = 0; i < kNumResolutions; ++i) {
 267:Core/Src/main.c ****         g_total_time_sum += execution_time_ms_float[i] + execution_time_ms_double[i];
 268:Core/Src/main.c ****       }
 269:Core/Src/main.c **** 
 270:Core/Src/main.c ****       /* Visual indicator: LED1 ON, keep ON 2s, then turn both OFF */
 271:Core/Src/main.c ****       HAL_GPIO_WritePin(GPIOB, GPIO_PIN_1, GPIO_PIN_SET);
 272:Core/Src/main.c ****       HAL_Delay(2000);
 273:Core/Src/main.c ****       HAL_GPIO_WritePin(GPIOB, GPIO_PIN_0 | GPIO_PIN_1, GPIO_PIN_RESET);
 274:Core/Src/main.c ****   }
 275:Core/Src/main.c ****   /* USER CODE END 3 */
 276:Core/Src/main.c **** }
 277:Core/Src/main.c **** 
 278:Core/Src/main.c **** /**
 279:Core/Src/main.c ****   * @brief System Clock Configuration
 280:Core/Src/main.c ****   * @retval None
 281:Core/Src/main.c ****   */
 282:Core/Src/main.c **** void SystemClock_Config(void)
 283:Core/Src/main.c **** {
  30              		.loc 1 283 1 view -0
  31              		.cfi_startproc
  32              		@ args = 0, pretend = 0, frame = 88
  33              		@ frame_needed = 0, uses_anonymous_args = 0
 284:Core/Src/main.c ****   RCC_OscInitTypeDef RCC_OscInitStruct = {0};
  34              		.loc 1 284 3 view .LVU1
 283:Core/Src/main.c ****   RCC_OscInitTypeDef RCC_OscInitStruct = {0};
  35              		.loc 1 283 1 is_stmt 0 view .LVU2
  36 0000 70B5     		push	{r4, r5, r6, lr}
  37              	.LCFI0:
  38              		.cfi_def_cfa_offset 16
  39              		.cfi_offset 4, -16
  40              		.cfi_offset 5, -12
  41              		.cfi_offset 6, -8
  42              		.cfi_offset 14, -4
  43              		.loc 1 284 22 view .LVU3
  44 0002 0023     		movs	r3, #0
 283:Core/Src/main.c ****   RCC_OscInitTypeDef RCC_OscInitStruct = {0};
  45              		.loc 1 283 1 view .LVU4
  46 0004 96B0     		sub	sp, sp, #88
  47              	.LCFI1:
  48              		.cfi_def_cfa_offset 104
  49              		.loc 1 284 22 view .LVU5
  50 0006 CDE90A33 		strd	r3, r3, [sp, #40]
  51 000a CDE90C33 		strd	r3, r3, [sp, #48]
 285:Core/Src/main.c ****   RCC_ClkInitTypeDef RCC_ClkInitStruct = {0};
  52              		.loc 1 285 3 is_stmt 1 view .LVU6
  53              		.loc 1 285 22 is_stmt 0 view .LVU7
  54 000e CDE90333 		strd	r3, r3, [sp, #12]
  55 0012 CDE90533 		strd	r3, r3, [sp, #20]
  56              	.LBB42:
ARM GAS  C:\Users\einom\AppData\Local\Temp\ccWbNOsJ.s 			page 7


 286:Core/Src/main.c **** 
 287:Core/Src/main.c ****   /** Configure the main internal regulator output voltage
 288:Core/Src/main.c ****   */
 289:Core/Src/main.c ****   __HAL_RCC_PWR_CLK_ENABLE();
  57              		.loc 1 289 3 view .LVU8
  58 0016 2249     		ldr	r1, .L8
  59 0018 0193     		str	r3, [sp, #4]
  60              	.LBE42:
 285:Core/Src/main.c ****   RCC_ClkInitTypeDef RCC_ClkInitStruct = {0};
  61              		.loc 1 285 22 view .LVU9
  62 001a 0793     		str	r3, [sp, #28]
  63              		.loc 1 289 3 is_stmt 1 view .LVU10
  64              	.LBB43:
  65              		.loc 1 289 3 view .LVU11
  66              		.loc 1 289 3 view .LVU12
  67 001c 086C     		ldr	r0, [r1, #64]
  68              	.LBE43:
  69              	.LBB44:
 290:Core/Src/main.c ****   __HAL_PWR_VOLTAGESCALING_CONFIG(PWR_REGULATOR_VOLTAGE_SCALE3);
  70              		.loc 1 290 3 is_stmt 0 view .LVU13
  71 001e 214A     		ldr	r2, .L8+4
  72              	.LBE44:
  73              	.LBB45:
 289:Core/Src/main.c ****   __HAL_PWR_VOLTAGESCALING_CONFIG(PWR_REGULATOR_VOLTAGE_SCALE3);
  74              		.loc 1 289 3 view .LVU14
  75 0020 40F08050 		orr	r0, r0, #268435456
  76 0024 0864     		str	r0, [r1, #64]
 289:Core/Src/main.c ****   __HAL_PWR_VOLTAGESCALING_CONFIG(PWR_REGULATOR_VOLTAGE_SCALE3);
  77              		.loc 1 289 3 is_stmt 1 view .LVU15
  78 0026 096C     		ldr	r1, [r1, #64]
  79 0028 01F08051 		and	r1, r1, #268435456
  80 002c 0191     		str	r1, [sp, #4]
 289:Core/Src/main.c ****   __HAL_PWR_VOLTAGESCALING_CONFIG(PWR_REGULATOR_VOLTAGE_SCALE3);
  81              		.loc 1 289 3 view .LVU16
  82 002e 0199     		ldr	r1, [sp, #4]
  83              	.LBE45:
 289:Core/Src/main.c ****   __HAL_PWR_VOLTAGESCALING_CONFIG(PWR_REGULATOR_VOLTAGE_SCALE3);
  84              		.loc 1 289 3 view .LVU17
  85              		.loc 1 290 3 view .LVU18
  86              	.LBB46:
  87              		.loc 1 290 3 view .LVU19
  88 0030 0293     		str	r3, [sp, #8]
  89              		.loc 1 290 3 view .LVU20
  90 0032 1368     		ldr	r3, [r2]
  91 0034 23F44043 		bic	r3, r3, #49152
  92 0038 43F48043 		orr	r3, r3, #16384
  93 003c 1360     		str	r3, [r2]
  94              		.loc 1 290 3 view .LVU21
  95 003e 1368     		ldr	r3, [r2]
  96 0040 03F44043 		and	r3, r3, #49152
  97              	.LBE46:
 291:Core/Src/main.c **** 
 292:Core/Src/main.c ****   /** Initializes the RCC Oscillators according to the specified parameters
 293:Core/Src/main.c ****   * in the RCC_OscInitTypeDef structure.
 294:Core/Src/main.c ****   */
 295:Core/Src/main.c ****   RCC_OscInitStruct.OscillatorType = RCC_OSCILLATORTYPE_HSE;
 296:Core/Src/main.c ****   RCC_OscInitStruct.HSEState = RCC_HSE_ON;
ARM GAS  C:\Users\einom\AppData\Local\Temp\ccWbNOsJ.s 			page 8


 297:Core/Src/main.c ****   RCC_OscInitStruct.PLL.PLLState = RCC_PLL_ON;
  98              		.loc 1 297 34 is_stmt 0 view .LVU22
  99 0044 0224     		movs	r4, #2
 295:Core/Src/main.c ****   RCC_OscInitStruct.HSEState = RCC_HSE_ON;
 100              		.loc 1 295 36 view .LVU23
 101 0046 0120     		movs	r0, #1
 102 0048 4FF48031 		mov	r1, #65536
 103              	.LBB47:
 290:Core/Src/main.c **** 
 104              		.loc 1 290 3 view .LVU24
 105 004c 0293     		str	r3, [sp, #8]
 290:Core/Src/main.c **** 
 106              		.loc 1 290 3 is_stmt 1 view .LVU25
 107              	.LBE47:
 298:Core/Src/main.c ****   RCC_OscInitStruct.PLL.PLLSource = RCC_PLLSOURCE_HSE;
 108              		.loc 1 298 35 is_stmt 0 view .LVU26
 109 004e 4FF48002 		mov	r2, #4194304
 299:Core/Src/main.c ****   RCC_OscInitStruct.PLL.PLLM = 15;
 300:Core/Src/main.c ****   RCC_OscInitStruct.PLL.PLLN = 144;
 110              		.loc 1 300 30 view .LVU27
 111 0052 9023     		movs	r3, #144
 299:Core/Src/main.c ****   RCC_OscInitStruct.PLL.PLLM = 15;
 112              		.loc 1 299 30 view .LVU28
 113 0054 0F25     		movs	r5, #15
 295:Core/Src/main.c ****   RCC_OscInitStruct.HSEState = RCC_HSE_ON;
 114              		.loc 1 295 36 view .LVU29
 115 0056 CDE90801 		strd	r0, [sp, #32]
 298:Core/Src/main.c ****   RCC_OscInitStruct.PLL.PLLSource = RCC_PLLSOURCE_HSE;
 116              		.loc 1 298 35 view .LVU30
 117 005a CDE90E42 		strd	r4, r2, [sp, #56]
 118              		.loc 1 300 30 view .LVU31
 119 005e CDE91053 		strd	r5, r3, [sp, #64]
 301:Core/Src/main.c ****   RCC_OscInitStruct.PLL.PLLP = RCC_PLLP_DIV2;
 120              		.loc 1 301 30 view .LVU32
 121 0062 0222     		movs	r2, #2
 122 0064 0223     		movs	r3, #2
 302:Core/Src/main.c ****   RCC_OscInitStruct.PLL.PLLQ = 2;
 303:Core/Src/main.c ****   RCC_OscInitStruct.PLL.PLLR = 2;
 304:Core/Src/main.c ****   if (HAL_RCC_OscConfig(&RCC_OscInitStruct) != HAL_OK)
 123              		.loc 1 304 7 view .LVU33
 124 0066 08A8     		add	r0, sp, #32
 301:Core/Src/main.c ****   RCC_OscInitStruct.PLL.PLLP = RCC_PLLP_DIV2;
 125              		.loc 1 301 30 view .LVU34
 126 0068 CDE91223 		strd	r2, [sp, #72]
 127              	.LBB48:
 290:Core/Src/main.c **** 
 128              		.loc 1 290 3 view .LVU35
 129 006c 0299     		ldr	r1, [sp, #8]
 130              	.LBE48:
 290:Core/Src/main.c **** 
 131              		.loc 1 290 3 is_stmt 1 view .LVU36
 295:Core/Src/main.c ****   RCC_OscInitStruct.HSEState = RCC_HSE_ON;
 132              		.loc 1 295 3 view .LVU37
 296:Core/Src/main.c ****   RCC_OscInitStruct.PLL.PLLState = RCC_PLL_ON;
 133              		.loc 1 296 3 view .LVU38
 297:Core/Src/main.c ****   RCC_OscInitStruct.PLL.PLLSource = RCC_PLLSOURCE_HSE;
 134              		.loc 1 297 3 view .LVU39
ARM GAS  C:\Users\einom\AppData\Local\Temp\ccWbNOsJ.s 			page 9


 299:Core/Src/main.c ****   RCC_OscInitStruct.PLL.PLLN = 144;
 135              		.loc 1 299 3 view .LVU40
 301:Core/Src/main.c ****   RCC_OscInitStruct.PLL.PLLQ = 2;
 136              		.loc 1 301 3 view .LVU41
 302:Core/Src/main.c ****   RCC_OscInitStruct.PLL.PLLR = 2;
 137              		.loc 1 302 3 view .LVU42
 303:Core/Src/main.c ****   if (HAL_RCC_OscConfig(&RCC_OscInitStruct) != HAL_OK)
 138              		.loc 1 303 3 view .LVU43
 303:Core/Src/main.c ****   if (HAL_RCC_OscConfig(&RCC_OscInitStruct) != HAL_OK)
 139              		.loc 1 303 30 is_stmt 0 view .LVU44
 140 006e 1494     		str	r4, [sp, #80]
 141              		.loc 1 304 3 is_stmt 1 view .LVU45
 142              		.loc 1 304 7 is_stmt 0 view .LVU46
 143 0070 FFF7FEFF 		bl	HAL_RCC_OscConfig
 144              	.LVL0:
 145              		.loc 1 304 6 discriminator 1 view .LVU47
 146 0074 08B1     		cbz	r0, .L2
 305:Core/Src/main.c ****   {
 306:Core/Src/main.c ****     Error_Handler();
 147              		.loc 1 306 5 is_stmt 1 view .LVU48
 148              	.LBB49:
 149              	.LBI49:
 307:Core/Src/main.c ****   }
 308:Core/Src/main.c **** 
 309:Core/Src/main.c ****   /** Initializes the CPU, AHB and APB buses clocks
 310:Core/Src/main.c ****   */
 311:Core/Src/main.c ****   RCC_ClkInitStruct.ClockType = RCC_CLOCKTYPE_HCLK|RCC_CLOCKTYPE_SYSCLK
 312:Core/Src/main.c ****                               |RCC_CLOCKTYPE_PCLK1|RCC_CLOCKTYPE_PCLK2;
 313:Core/Src/main.c ****   RCC_ClkInitStruct.SYSCLKSource = RCC_SYSCLKSOURCE_PLLCLK;
 314:Core/Src/main.c ****   RCC_ClkInitStruct.AHBCLKDivider = RCC_SYSCLK_DIV1;
 315:Core/Src/main.c ****   RCC_ClkInitStruct.APB1CLKDivider = RCC_HCLK_DIV4;
 316:Core/Src/main.c ****   RCC_ClkInitStruct.APB2CLKDivider = RCC_HCLK_DIV2;
 317:Core/Src/main.c **** 
 318:Core/Src/main.c ****   if (HAL_RCC_ClockConfig(&RCC_ClkInitStruct, FLASH_LATENCY_3) != HAL_OK)
 319:Core/Src/main.c ****   {
 320:Core/Src/main.c ****     Error_Handler();
 321:Core/Src/main.c ****   }
 322:Core/Src/main.c **** }
 323:Core/Src/main.c **** 
 324:Core/Src/main.c **** /**
 325:Core/Src/main.c ****   * @brief GPIO Initialization Function
 326:Core/Src/main.c ****   * @param None
 327:Core/Src/main.c ****   * @retval None
 328:Core/Src/main.c ****   */
 329:Core/Src/main.c **** static void MX_GPIO_Init(void)
 330:Core/Src/main.c **** {
 331:Core/Src/main.c ****   GPIO_InitTypeDef GPIO_InitStruct = {0};
 332:Core/Src/main.c ****   /* USER CODE BEGIN MX_GPIO_Init_1 */
 333:Core/Src/main.c **** 
 334:Core/Src/main.c ****   /* USER CODE END MX_GPIO_Init_1 */
 335:Core/Src/main.c **** 
 336:Core/Src/main.c ****   /* GPIO Ports Clock Enable */
 337:Core/Src/main.c ****   __HAL_RCC_GPIOC_CLK_ENABLE();
 338:Core/Src/main.c ****   __HAL_RCC_GPIOH_CLK_ENABLE();
 339:Core/Src/main.c ****   __HAL_RCC_GPIOB_CLK_ENABLE();
 340:Core/Src/main.c **** 
 341:Core/Src/main.c ****   /*Configure GPIO pin Output Level */
ARM GAS  C:\Users\einom\AppData\Local\Temp\ccWbNOsJ.s 			page 10


 342:Core/Src/main.c ****   HAL_GPIO_WritePin(GPIOB, GPIO_PIN_0|GPIO_PIN_1|GPIO_PIN_2|GPIO_PIN_3
 343:Core/Src/main.c ****                           |GPIO_PIN_4|GPIO_PIN_5|GPIO_PIN_6|GPIO_PIN_7, GPIO_PIN_RESET);
 344:Core/Src/main.c **** 
 345:Core/Src/main.c ****   /*Configure GPIO pins : PB0 PB1 PB2 PB3
 346:Core/Src/main.c ****                            PB4 PB5 PB6 PB7 */
 347:Core/Src/main.c ****   GPIO_InitStruct.Pin = GPIO_PIN_0|GPIO_PIN_1|GPIO_PIN_2|GPIO_PIN_3
 348:Core/Src/main.c ****                           |GPIO_PIN_4|GPIO_PIN_5|GPIO_PIN_6|GPIO_PIN_7;
 349:Core/Src/main.c ****   GPIO_InitStruct.Mode = GPIO_MODE_OUTPUT_PP;
 350:Core/Src/main.c ****   GPIO_InitStruct.Pull = GPIO_NOPULL;
 351:Core/Src/main.c ****   GPIO_InitStruct.Speed = GPIO_SPEED_FREQ_LOW;
 352:Core/Src/main.c ****   HAL_GPIO_Init(GPIOB, &GPIO_InitStruct);
 353:Core/Src/main.c **** 
 354:Core/Src/main.c ****   /* USER CODE BEGIN MX_GPIO_Init_2 */
 355:Core/Src/main.c **** 
 356:Core/Src/main.c ****   /* USER CODE END MX_GPIO_Init_2 */
 357:Core/Src/main.c **** }
 358:Core/Src/main.c **** 
 359:Core/Src/main.c **** /* USER CODE BEGIN 4 */
 360:Core/Src/main.c **** //TODO: Function signatures you defined previously , implement them here
 361:Core/Src/main.c **** 
 362:Core/Src/main.c **** static uint32_t generate_mandelbrot_checksum_float(uint16_t width, uint16_t height, uint32_t max_it
 363:Core/Src/main.c **** {
 364:Core/Src/main.c **** 	uint32_t mandelbrot_sum = 0u;
 365:Core/Src/main.c **** 	for (uint16_t y = 0; y < height; ++y)
 366:Core/Src/main.c **** 	{
 367:Core/Src/main.c **** 		float y0 = ((float)y / (float)height) * 2.0f - 1.0f;
 368:Core/Src/main.c **** 		for (uint16_t x = 0; x < width; ++x)
 369:Core/Src/main.c **** 		{
 370:Core/Src/main.c **** 			float x0 = ((float)x / (float)width) * 3.5f - 2.5f;
 371:Core/Src/main.c **** 			float xi = 0.0f;
 372:Core/Src/main.c **** 			float yi = 0.0f;
 373:Core/Src/main.c **** 			uint32_t iteration = 0u;
 374:Core/Src/main.c **** 			while (iteration < max_iter && (xi*xi + yi*yi) <= 4.0f)
 375:Core/Src/main.c **** 			{
 376:Core/Src/main.c **** 				float tmp = xi*xi - yi*yi + x0;
 377:Core/Src/main.c **** 				yi = 2.0f*xi*yi + y0;
 378:Core/Src/main.c **** 				xi = tmp;
 379:Core/Src/main.c **** 				++iteration;
 380:Core/Src/main.c **** 			}
 381:Core/Src/main.c **** 			mandelbrot_sum += iteration;
 382:Core/Src/main.c **** 		}
 383:Core/Src/main.c **** 	}
 384:Core/Src/main.c **** 	return mandelbrot_sum;
 385:Core/Src/main.c **** }
 386:Core/Src/main.c **** 
 387:Core/Src/main.c **** static uint32_t generate_mandelbrot_checksum_double(uint16_t width, uint16_t height, uint32_t max_i
 388:Core/Src/main.c **** {
 389:Core/Src/main.c **** 	uint32_t mandelbrot_sum = 0u;
 390:Core/Src/main.c **** 	for (uint16_t y = 0; y < height; ++y)
 391:Core/Src/main.c **** 	{
 392:Core/Src/main.c **** 		double y0 = ((double)y / (double)height) * 2.0 - 1.0;
 393:Core/Src/main.c **** 		for (uint16_t x = 0; x < width; ++x)
 394:Core/Src/main.c **** 		{
 395:Core/Src/main.c **** 			double x0 = ((double)x / (double)width) * 3.5 - 2.5;
 396:Core/Src/main.c **** 			double xi = 0.0;
 397:Core/Src/main.c **** 			double yi = 0.0;
 398:Core/Src/main.c **** 			uint32_t iteration = 0u;
ARM GAS  C:\Users\einom\AppData\Local\Temp\ccWbNOsJ.s 			page 11


 399:Core/Src/main.c **** 			while (iteration < max_iter && (xi*xi + yi*yi) <= 4.0)
 400:Core/Src/main.c **** 			{
 401:Core/Src/main.c **** 				double tmp = xi*xi - yi*yi + x0;
 402:Core/Src/main.c **** 				yi = 2.0*xi*yi + y0;
 403:Core/Src/main.c **** 				xi = tmp;
 404:Core/Src/main.c **** 				++iteration;
 405:Core/Src/main.c **** 			}
 406:Core/Src/main.c **** 			mandelbrot_sum += iteration;
 407:Core/Src/main.c **** 		}
 408:Core/Src/main.c **** 	}
 409:Core/Src/main.c **** 	return mandelbrot_sum;
 410:Core/Src/main.c **** }
 411:Core/Src/main.c **** 
 412:Core/Src/main.c **** static void dwt_cycle_counter_init(void)
 413:Core/Src/main.c **** {
 414:Core/Src/main.c **** 	/* Enable TRC */
 415:Core/Src/main.c **** 	CoreDebug->DEMCR |= CoreDebug_DEMCR_TRCENA_Msk;
 416:Core/Src/main.c **** 	/* Unlock DWT (if locked) by writing the key to LAR when present */
 417:Core/Src/main.c **** #ifdef DWT_LAR
 418:Core/Src/main.c **** 	DWT->LAR = 0xC5ACCE55;
 419:Core/Src/main.c **** #endif
 420:Core/Src/main.c **** 	/* Reset the cycle counter */
 421:Core/Src/main.c **** 	DWT->CYCCNT = 0;
 422:Core/Src/main.c **** 	/* Enable the cycle counter */
 423:Core/Src/main.c **** 	DWT->CTRL |= DWT_CTRL_CYCCNTENA_Msk;
 424:Core/Src/main.c **** }
 425:Core/Src/main.c **** 
 426:Core/Src/main.c **** static inline uint32_t dwt_get_cycles(void)
 427:Core/Src/main.c **** {
 428:Core/Src/main.c **** 	return DWT->CYCCNT;
 429:Core/Src/main.c **** }
 430:Core/Src/main.c **** 
 431:Core/Src/main.c **** static void log_fpu_benchmark(uint16_t width, uint16_t height, uint32_t cycles, uint32_t checksum, 
 432:Core/Src/main.c **** {
 433:Core/Src/main.c **** 	double seconds = (double)cycles / (double)SystemCoreClock;
 434:Core/Src/main.c **** 	printf("%s: %ux%u, cycles %lu, time %.6f s, throughput %.0f pps, checksum %lu\r\n",
 435:Core/Src/main.c **** 			precision, (unsigned)width, (unsigned)height, (unsigned long)cycles, seconds, throughput, (unsig
 436:Core/Src/main.c **** }
 437:Core/Src/main.c **** 
 438:Core/Src/main.c **** static void log_fpu_comparison(uint16_t width, uint16_t height, uint32_t checksum_float, uint32_t c
 439:Core/Src/main.c **** {
 440:Core/Src/main.c **** 	printf("COMPARISON %ux%u: Float checksum %lu, Double checksum %lu, Speedup %.2fx\r\n",
 441:Core/Src/main.c **** 			(unsigned)width, (unsigned)height, (unsigned long)checksum_float, (unsigned long)checksum_double
 442:Core/Src/main.c **** }
 443:Core/Src/main.c **** 
 444:Core/Src/main.c **** int __io_putchar(int ch)
 445:Core/Src/main.c **** {
 446:Core/Src/main.c **** 	/* Route to ITM stimulus port 0 for SWV view. Requires debugger and SWO enabled. */
 447:Core/Src/main.c **** 	if ((ITM->TCR & ITM_TCR_ITMENA_Msk) && (CoreDebug->DEMCR & CoreDebug_DEMCR_TRCENA_Msk))
 448:Core/Src/main.c **** 	{
 449:Core/Src/main.c **** 		while (ITM->PORT[0].u32 == 0) { __NOP(); }
 450:Core/Src/main.c **** 		ITM->PORT[0].u8 = (uint8_t)ch;
 451:Core/Src/main.c **** 		return ch;
 452:Core/Src/main.c **** 	}
 453:Core/Src/main.c **** 	/* Fallback: do nothing */
 454:Core/Src/main.c **** 	return ch;
 455:Core/Src/main.c **** }
ARM GAS  C:\Users\einom\AppData\Local\Temp\ccWbNOsJ.s 			page 12


 456:Core/Src/main.c **** 
 457:Core/Src/main.c **** /* USER CODE END 4 */
 458:Core/Src/main.c **** 
 459:Core/Src/main.c **** /**
 460:Core/Src/main.c ****   * @brief  This function is executed in case of error occurrence.
 461:Core/Src/main.c ****   * @retval None
 462:Core/Src/main.c ****   */
 463:Core/Src/main.c **** void Error_Handler(void)
 150              		.loc 1 463 6 view .LVU49
 464:Core/Src/main.c **** {
 465:Core/Src/main.c ****   /* USER CODE BEGIN Error_Handler_Debug */
 466:Core/Src/main.c ****   /* User can add his own implementation to report the HAL error return state */
 467:Core/Src/main.c ****   __disable_irq();
 151              		.loc 1 467 3 view .LVU50
 152              	.LBB50:
 153              	.LBI50:
 154              		.file 2 "Drivers/CMSIS/Include/cmsis_gcc.h"
   1:Drivers/CMSIS/Include/cmsis_gcc.h **** /**************************************************************************//**
   2:Drivers/CMSIS/Include/cmsis_gcc.h ****  * @file     cmsis_gcc.h
   3:Drivers/CMSIS/Include/cmsis_gcc.h ****  * @brief    CMSIS compiler GCC header file
   4:Drivers/CMSIS/Include/cmsis_gcc.h ****  * @version  V5.4.1
   5:Drivers/CMSIS/Include/cmsis_gcc.h ****  * @date     27. May 2021
   6:Drivers/CMSIS/Include/cmsis_gcc.h ****  ******************************************************************************/
   7:Drivers/CMSIS/Include/cmsis_gcc.h **** /*
   8:Drivers/CMSIS/Include/cmsis_gcc.h ****  * Copyright (c) 2009-2021 Arm Limited. All rights reserved.
   9:Drivers/CMSIS/Include/cmsis_gcc.h ****  *
  10:Drivers/CMSIS/Include/cmsis_gcc.h ****  * SPDX-License-Identifier: Apache-2.0
  11:Drivers/CMSIS/Include/cmsis_gcc.h ****  *
  12:Drivers/CMSIS/Include/cmsis_gcc.h ****  * Licensed under the Apache License, Version 2.0 (the License); you may
  13:Drivers/CMSIS/Include/cmsis_gcc.h ****  * not use this file except in compliance with the License.
  14:Drivers/CMSIS/Include/cmsis_gcc.h ****  * You may obtain a copy of the License at
  15:Drivers/CMSIS/Include/cmsis_gcc.h ****  *
  16:Drivers/CMSIS/Include/cmsis_gcc.h ****  * www.apache.org/licenses/LICENSE-2.0
  17:Drivers/CMSIS/Include/cmsis_gcc.h ****  *
  18:Drivers/CMSIS/Include/cmsis_gcc.h ****  * Unless required by applicable law or agreed to in writing, software
  19:Drivers/CMSIS/Include/cmsis_gcc.h ****  * distributed under the License is distributed on an AS IS BASIS, WITHOUT
  20:Drivers/CMSIS/Include/cmsis_gcc.h ****  * WARRANTIES OR CONDITIONS OF ANY KIND, either express or implied.
  21:Drivers/CMSIS/Include/cmsis_gcc.h ****  * See the License for the specific language governing permissions and
  22:Drivers/CMSIS/Include/cmsis_gcc.h ****  * limitations under the License.
  23:Drivers/CMSIS/Include/cmsis_gcc.h ****  */
  24:Drivers/CMSIS/Include/cmsis_gcc.h **** 
  25:Drivers/CMSIS/Include/cmsis_gcc.h **** #ifndef __CMSIS_GCC_H
  26:Drivers/CMSIS/Include/cmsis_gcc.h **** #define __CMSIS_GCC_H
  27:Drivers/CMSIS/Include/cmsis_gcc.h **** 
  28:Drivers/CMSIS/Include/cmsis_gcc.h **** /* ignore some GCC warnings */
  29:Drivers/CMSIS/Include/cmsis_gcc.h **** #pragma GCC diagnostic push
  30:Drivers/CMSIS/Include/cmsis_gcc.h **** #pragma GCC diagnostic ignored "-Wsign-conversion"
  31:Drivers/CMSIS/Include/cmsis_gcc.h **** #pragma GCC diagnostic ignored "-Wconversion"
  32:Drivers/CMSIS/Include/cmsis_gcc.h **** #pragma GCC diagnostic ignored "-Wunused-parameter"
  33:Drivers/CMSIS/Include/cmsis_gcc.h **** 
  34:Drivers/CMSIS/Include/cmsis_gcc.h **** /* Fallback for __has_builtin */
  35:Drivers/CMSIS/Include/cmsis_gcc.h **** #ifndef __has_builtin
  36:Drivers/CMSIS/Include/cmsis_gcc.h ****   #define __has_builtin(x) (0)
  37:Drivers/CMSIS/Include/cmsis_gcc.h **** #endif
  38:Drivers/CMSIS/Include/cmsis_gcc.h **** 
  39:Drivers/CMSIS/Include/cmsis_gcc.h **** /* CMSIS compiler specific defines */
  40:Drivers/CMSIS/Include/cmsis_gcc.h **** #ifndef   __ASM
ARM GAS  C:\Users\einom\AppData\Local\Temp\ccWbNOsJ.s 			page 13


  41:Drivers/CMSIS/Include/cmsis_gcc.h ****   #define __ASM                                  __asm
  42:Drivers/CMSIS/Include/cmsis_gcc.h **** #endif
  43:Drivers/CMSIS/Include/cmsis_gcc.h **** #ifndef   __INLINE
  44:Drivers/CMSIS/Include/cmsis_gcc.h ****   #define __INLINE                               inline
  45:Drivers/CMSIS/Include/cmsis_gcc.h **** #endif
  46:Drivers/CMSIS/Include/cmsis_gcc.h **** #ifndef   __STATIC_INLINE
  47:Drivers/CMSIS/Include/cmsis_gcc.h ****   #define __STATIC_INLINE                        static inline
  48:Drivers/CMSIS/Include/cmsis_gcc.h **** #endif
  49:Drivers/CMSIS/Include/cmsis_gcc.h **** #ifndef   __STATIC_FORCEINLINE
  50:Drivers/CMSIS/Include/cmsis_gcc.h ****   #define __STATIC_FORCEINLINE                   __attribute__((always_inline)) static inline
  51:Drivers/CMSIS/Include/cmsis_gcc.h **** #endif
  52:Drivers/CMSIS/Include/cmsis_gcc.h **** #ifndef   __NO_RETURN
  53:Drivers/CMSIS/Include/cmsis_gcc.h ****   #define __NO_RETURN                            __attribute__((__noreturn__))
  54:Drivers/CMSIS/Include/cmsis_gcc.h **** #endif
  55:Drivers/CMSIS/Include/cmsis_gcc.h **** #ifndef   __USED
  56:Drivers/CMSIS/Include/cmsis_gcc.h ****   #define __USED                                 __attribute__((used))
  57:Drivers/CMSIS/Include/cmsis_gcc.h **** #endif
  58:Drivers/CMSIS/Include/cmsis_gcc.h **** #ifndef   __WEAK
  59:Drivers/CMSIS/Include/cmsis_gcc.h ****   #define __WEAK                                 __attribute__((weak))
  60:Drivers/CMSIS/Include/cmsis_gcc.h **** #endif
  61:Drivers/CMSIS/Include/cmsis_gcc.h **** #ifndef   __PACKED
  62:Drivers/CMSIS/Include/cmsis_gcc.h ****   #define __PACKED                               __attribute__((packed, aligned(1)))
  63:Drivers/CMSIS/Include/cmsis_gcc.h **** #endif
  64:Drivers/CMSIS/Include/cmsis_gcc.h **** #ifndef   __PACKED_STRUCT
  65:Drivers/CMSIS/Include/cmsis_gcc.h ****   #define __PACKED_STRUCT                        struct __attribute__((packed, aligned(1)))
  66:Drivers/CMSIS/Include/cmsis_gcc.h **** #endif
  67:Drivers/CMSIS/Include/cmsis_gcc.h **** #ifndef   __PACKED_UNION
  68:Drivers/CMSIS/Include/cmsis_gcc.h ****   #define __PACKED_UNION                         union __attribute__((packed, aligned(1)))
  69:Drivers/CMSIS/Include/cmsis_gcc.h **** #endif
  70:Drivers/CMSIS/Include/cmsis_gcc.h **** #ifndef   __UNALIGNED_UINT32        /* deprecated */
  71:Drivers/CMSIS/Include/cmsis_gcc.h ****   #pragma GCC diagnostic push
  72:Drivers/CMSIS/Include/cmsis_gcc.h ****   #pragma GCC diagnostic ignored "-Wpacked"
  73:Drivers/CMSIS/Include/cmsis_gcc.h ****   #pragma GCC diagnostic ignored "-Wattributes"
  74:Drivers/CMSIS/Include/cmsis_gcc.h ****   struct __attribute__((packed)) T_UINT32 { uint32_t v; };
  75:Drivers/CMSIS/Include/cmsis_gcc.h ****   #pragma GCC diagnostic pop
  76:Drivers/CMSIS/Include/cmsis_gcc.h ****   #define __UNALIGNED_UINT32(x)                  (((struct T_UINT32 *)(x))->v)
  77:Drivers/CMSIS/Include/cmsis_gcc.h **** #endif
  78:Drivers/CMSIS/Include/cmsis_gcc.h **** #ifndef   __UNALIGNED_UINT16_WRITE
  79:Drivers/CMSIS/Include/cmsis_gcc.h ****   #pragma GCC diagnostic push
  80:Drivers/CMSIS/Include/cmsis_gcc.h ****   #pragma GCC diagnostic ignored "-Wpacked"
  81:Drivers/CMSIS/Include/cmsis_gcc.h ****   #pragma GCC diagnostic ignored "-Wattributes"
  82:Drivers/CMSIS/Include/cmsis_gcc.h ****   __PACKED_STRUCT T_UINT16_WRITE { uint16_t v; };
  83:Drivers/CMSIS/Include/cmsis_gcc.h ****   #pragma GCC diagnostic pop
  84:Drivers/CMSIS/Include/cmsis_gcc.h ****   #define __UNALIGNED_UINT16_WRITE(addr, val)    (void)((((struct T_UINT16_WRITE *)(void *)(addr))-
  85:Drivers/CMSIS/Include/cmsis_gcc.h **** #endif
  86:Drivers/CMSIS/Include/cmsis_gcc.h **** #ifndef   __UNALIGNED_UINT16_READ
  87:Drivers/CMSIS/Include/cmsis_gcc.h ****   #pragma GCC diagnostic push
  88:Drivers/CMSIS/Include/cmsis_gcc.h ****   #pragma GCC diagnostic ignored "-Wpacked"
  89:Drivers/CMSIS/Include/cmsis_gcc.h ****   #pragma GCC diagnostic ignored "-Wattributes"
  90:Drivers/CMSIS/Include/cmsis_gcc.h ****   __PACKED_STRUCT T_UINT16_READ { uint16_t v; };
  91:Drivers/CMSIS/Include/cmsis_gcc.h ****   #pragma GCC diagnostic pop
  92:Drivers/CMSIS/Include/cmsis_gcc.h ****   #define __UNALIGNED_UINT16_READ(addr)          (((const struct T_UINT16_READ *)(const void *)(add
  93:Drivers/CMSIS/Include/cmsis_gcc.h **** #endif
  94:Drivers/CMSIS/Include/cmsis_gcc.h **** #ifndef   __UNALIGNED_UINT32_WRITE
  95:Drivers/CMSIS/Include/cmsis_gcc.h ****   #pragma GCC diagnostic push
  96:Drivers/CMSIS/Include/cmsis_gcc.h ****   #pragma GCC diagnostic ignored "-Wpacked"
  97:Drivers/CMSIS/Include/cmsis_gcc.h ****   #pragma GCC diagnostic ignored "-Wattributes"
ARM GAS  C:\Users\einom\AppData\Local\Temp\ccWbNOsJ.s 			page 14


  98:Drivers/CMSIS/Include/cmsis_gcc.h ****   __PACKED_STRUCT T_UINT32_WRITE { uint32_t v; };
  99:Drivers/CMSIS/Include/cmsis_gcc.h ****   #pragma GCC diagnostic pop
 100:Drivers/CMSIS/Include/cmsis_gcc.h ****   #define __UNALIGNED_UINT32_WRITE(addr, val)    (void)((((struct T_UINT32_WRITE *)(void *)(addr))-
 101:Drivers/CMSIS/Include/cmsis_gcc.h **** #endif
 102:Drivers/CMSIS/Include/cmsis_gcc.h **** #ifndef   __UNALIGNED_UINT32_READ
 103:Drivers/CMSIS/Include/cmsis_gcc.h ****   #pragma GCC diagnostic push
 104:Drivers/CMSIS/Include/cmsis_gcc.h ****   #pragma GCC diagnostic ignored "-Wpacked"
 105:Drivers/CMSIS/Include/cmsis_gcc.h ****   #pragma GCC diagnostic ignored "-Wattributes"
 106:Drivers/CMSIS/Include/cmsis_gcc.h ****   __PACKED_STRUCT T_UINT32_READ { uint32_t v; };
 107:Drivers/CMSIS/Include/cmsis_gcc.h ****   #pragma GCC diagnostic pop
 108:Drivers/CMSIS/Include/cmsis_gcc.h ****   #define __UNALIGNED_UINT32_READ(addr)          (((const struct T_UINT32_READ *)(const void *)(add
 109:Drivers/CMSIS/Include/cmsis_gcc.h **** #endif
 110:Drivers/CMSIS/Include/cmsis_gcc.h **** #ifndef   __ALIGNED
 111:Drivers/CMSIS/Include/cmsis_gcc.h ****   #define __ALIGNED(x)                           __attribute__((aligned(x)))
 112:Drivers/CMSIS/Include/cmsis_gcc.h **** #endif
 113:Drivers/CMSIS/Include/cmsis_gcc.h **** #ifndef   __RESTRICT
 114:Drivers/CMSIS/Include/cmsis_gcc.h ****   #define __RESTRICT                             __restrict
 115:Drivers/CMSIS/Include/cmsis_gcc.h **** #endif
 116:Drivers/CMSIS/Include/cmsis_gcc.h **** #ifndef   __COMPILER_BARRIER
 117:Drivers/CMSIS/Include/cmsis_gcc.h ****   #define __COMPILER_BARRIER()                   __ASM volatile("":::"memory")
 118:Drivers/CMSIS/Include/cmsis_gcc.h **** #endif
 119:Drivers/CMSIS/Include/cmsis_gcc.h **** 
 120:Drivers/CMSIS/Include/cmsis_gcc.h **** /* #########################  Startup and Lowlevel Init  ######################## */
 121:Drivers/CMSIS/Include/cmsis_gcc.h **** 
 122:Drivers/CMSIS/Include/cmsis_gcc.h **** #ifndef __PROGRAM_START
 123:Drivers/CMSIS/Include/cmsis_gcc.h **** 
 124:Drivers/CMSIS/Include/cmsis_gcc.h **** /**
 125:Drivers/CMSIS/Include/cmsis_gcc.h ****   \brief   Initializes data and bss sections
 126:Drivers/CMSIS/Include/cmsis_gcc.h ****   \details This default implementations initialized all data and additional bss
 127:Drivers/CMSIS/Include/cmsis_gcc.h ****            sections relying on .copy.table and .zero.table specified properly
 128:Drivers/CMSIS/Include/cmsis_gcc.h ****            in the used linker script.
 129:Drivers/CMSIS/Include/cmsis_gcc.h **** 
 130:Drivers/CMSIS/Include/cmsis_gcc.h ****  */
 131:Drivers/CMSIS/Include/cmsis_gcc.h **** __STATIC_FORCEINLINE __NO_RETURN void __cmsis_start(void)
 132:Drivers/CMSIS/Include/cmsis_gcc.h **** {
 133:Drivers/CMSIS/Include/cmsis_gcc.h ****   extern void _start(void) __NO_RETURN;
 134:Drivers/CMSIS/Include/cmsis_gcc.h **** 
 135:Drivers/CMSIS/Include/cmsis_gcc.h ****   typedef struct {
 136:Drivers/CMSIS/Include/cmsis_gcc.h ****     uint32_t const* src;
 137:Drivers/CMSIS/Include/cmsis_gcc.h ****     uint32_t* dest;
 138:Drivers/CMSIS/Include/cmsis_gcc.h ****     uint32_t  wlen;
 139:Drivers/CMSIS/Include/cmsis_gcc.h ****   } __copy_table_t;
 140:Drivers/CMSIS/Include/cmsis_gcc.h **** 
 141:Drivers/CMSIS/Include/cmsis_gcc.h ****   typedef struct {
 142:Drivers/CMSIS/Include/cmsis_gcc.h ****     uint32_t* dest;
 143:Drivers/CMSIS/Include/cmsis_gcc.h ****     uint32_t  wlen;
 144:Drivers/CMSIS/Include/cmsis_gcc.h ****   } __zero_table_t;
 145:Drivers/CMSIS/Include/cmsis_gcc.h **** 
 146:Drivers/CMSIS/Include/cmsis_gcc.h ****   extern const __copy_table_t __copy_table_start__;
 147:Drivers/CMSIS/Include/cmsis_gcc.h ****   extern const __copy_table_t __copy_table_end__;
 148:Drivers/CMSIS/Include/cmsis_gcc.h ****   extern const __zero_table_t __zero_table_start__;
 149:Drivers/CMSIS/Include/cmsis_gcc.h ****   extern const __zero_table_t __zero_table_end__;
 150:Drivers/CMSIS/Include/cmsis_gcc.h **** 
 151:Drivers/CMSIS/Include/cmsis_gcc.h ****   for (__copy_table_t const* pTable = &__copy_table_start__; pTable < &__copy_table_end__; ++pTable
 152:Drivers/CMSIS/Include/cmsis_gcc.h ****     for(uint32_t i=0u; i<pTable->wlen; ++i) {
 153:Drivers/CMSIS/Include/cmsis_gcc.h ****       pTable->dest[i] = pTable->src[i];
 154:Drivers/CMSIS/Include/cmsis_gcc.h ****     }
ARM GAS  C:\Users\einom\AppData\Local\Temp\ccWbNOsJ.s 			page 15


 155:Drivers/CMSIS/Include/cmsis_gcc.h ****   }
 156:Drivers/CMSIS/Include/cmsis_gcc.h **** 
 157:Drivers/CMSIS/Include/cmsis_gcc.h ****   for (__zero_table_t const* pTable = &__zero_table_start__; pTable < &__zero_table_end__; ++pTable
 158:Drivers/CMSIS/Include/cmsis_gcc.h ****     for(uint32_t i=0u; i<pTable->wlen; ++i) {
 159:Drivers/CMSIS/Include/cmsis_gcc.h ****       pTable->dest[i] = 0u;
 160:Drivers/CMSIS/Include/cmsis_gcc.h ****     }
 161:Drivers/CMSIS/Include/cmsis_gcc.h ****   }
 162:Drivers/CMSIS/Include/cmsis_gcc.h **** 
 163:Drivers/CMSIS/Include/cmsis_gcc.h ****   _start();
 164:Drivers/CMSIS/Include/cmsis_gcc.h **** }
 165:Drivers/CMSIS/Include/cmsis_gcc.h **** 
 166:Drivers/CMSIS/Include/cmsis_gcc.h **** #define __PROGRAM_START           __cmsis_start
 167:Drivers/CMSIS/Include/cmsis_gcc.h **** #endif
 168:Drivers/CMSIS/Include/cmsis_gcc.h **** 
 169:Drivers/CMSIS/Include/cmsis_gcc.h **** #ifndef __INITIAL_SP
 170:Drivers/CMSIS/Include/cmsis_gcc.h **** #define __INITIAL_SP              __StackTop
 171:Drivers/CMSIS/Include/cmsis_gcc.h **** #endif
 172:Drivers/CMSIS/Include/cmsis_gcc.h **** 
 173:Drivers/CMSIS/Include/cmsis_gcc.h **** #ifndef __STACK_LIMIT
 174:Drivers/CMSIS/Include/cmsis_gcc.h **** #define __STACK_LIMIT             __StackLimit
 175:Drivers/CMSIS/Include/cmsis_gcc.h **** #endif
 176:Drivers/CMSIS/Include/cmsis_gcc.h **** 
 177:Drivers/CMSIS/Include/cmsis_gcc.h **** #ifndef __VECTOR_TABLE
 178:Drivers/CMSIS/Include/cmsis_gcc.h **** #define __VECTOR_TABLE            __Vectors
 179:Drivers/CMSIS/Include/cmsis_gcc.h **** #endif
 180:Drivers/CMSIS/Include/cmsis_gcc.h **** 
 181:Drivers/CMSIS/Include/cmsis_gcc.h **** #ifndef __VECTOR_TABLE_ATTRIBUTE
 182:Drivers/CMSIS/Include/cmsis_gcc.h **** #define __VECTOR_TABLE_ATTRIBUTE  __attribute__((used, section(".vectors")))
 183:Drivers/CMSIS/Include/cmsis_gcc.h **** #endif
 184:Drivers/CMSIS/Include/cmsis_gcc.h **** 
 185:Drivers/CMSIS/Include/cmsis_gcc.h **** #if defined (__ARM_FEATURE_CMSE) && (__ARM_FEATURE_CMSE == 3U)
 186:Drivers/CMSIS/Include/cmsis_gcc.h **** #ifndef __STACK_SEAL
 187:Drivers/CMSIS/Include/cmsis_gcc.h **** #define __STACK_SEAL              __StackSeal
 188:Drivers/CMSIS/Include/cmsis_gcc.h **** #endif
 189:Drivers/CMSIS/Include/cmsis_gcc.h **** 
 190:Drivers/CMSIS/Include/cmsis_gcc.h **** #ifndef __TZ_STACK_SEAL_SIZE
 191:Drivers/CMSIS/Include/cmsis_gcc.h **** #define __TZ_STACK_SEAL_SIZE      8U
 192:Drivers/CMSIS/Include/cmsis_gcc.h **** #endif
 193:Drivers/CMSIS/Include/cmsis_gcc.h **** 
 194:Drivers/CMSIS/Include/cmsis_gcc.h **** #ifndef __TZ_STACK_SEAL_VALUE
 195:Drivers/CMSIS/Include/cmsis_gcc.h **** #define __TZ_STACK_SEAL_VALUE     0xFEF5EDA5FEF5EDA5ULL
 196:Drivers/CMSIS/Include/cmsis_gcc.h **** #endif
 197:Drivers/CMSIS/Include/cmsis_gcc.h **** 
 198:Drivers/CMSIS/Include/cmsis_gcc.h **** 
 199:Drivers/CMSIS/Include/cmsis_gcc.h **** __STATIC_FORCEINLINE void __TZ_set_STACKSEAL_S (uint32_t* stackTop) {
 200:Drivers/CMSIS/Include/cmsis_gcc.h ****   *((uint64_t *)stackTop) = __TZ_STACK_SEAL_VALUE;
 201:Drivers/CMSIS/Include/cmsis_gcc.h **** }
 202:Drivers/CMSIS/Include/cmsis_gcc.h **** #endif
 203:Drivers/CMSIS/Include/cmsis_gcc.h **** 
 204:Drivers/CMSIS/Include/cmsis_gcc.h **** 
 205:Drivers/CMSIS/Include/cmsis_gcc.h **** /* ##########################  Core Instruction Access  ######################### */
 206:Drivers/CMSIS/Include/cmsis_gcc.h **** /** \defgroup CMSIS_Core_InstructionInterface CMSIS Core Instruction Interface
 207:Drivers/CMSIS/Include/cmsis_gcc.h ****   Access to dedicated instructions
 208:Drivers/CMSIS/Include/cmsis_gcc.h ****   @{
 209:Drivers/CMSIS/Include/cmsis_gcc.h **** */
 210:Drivers/CMSIS/Include/cmsis_gcc.h **** 
 211:Drivers/CMSIS/Include/cmsis_gcc.h **** /* Define macros for porting to both thumb1 and thumb2.
ARM GAS  C:\Users\einom\AppData\Local\Temp\ccWbNOsJ.s 			page 16


 212:Drivers/CMSIS/Include/cmsis_gcc.h ****  * For thumb1, use low register (r0-r7), specified by constraint "l"
 213:Drivers/CMSIS/Include/cmsis_gcc.h ****  * Otherwise, use general registers, specified by constraint "r" */
 214:Drivers/CMSIS/Include/cmsis_gcc.h **** #if defined (__thumb__) && !defined (__thumb2__)
 215:Drivers/CMSIS/Include/cmsis_gcc.h **** #define __CMSIS_GCC_OUT_REG(r) "=l" (r)
 216:Drivers/CMSIS/Include/cmsis_gcc.h **** #define __CMSIS_GCC_RW_REG(r) "+l" (r)
 217:Drivers/CMSIS/Include/cmsis_gcc.h **** #define __CMSIS_GCC_USE_REG(r) "l" (r)
 218:Drivers/CMSIS/Include/cmsis_gcc.h **** #else
 219:Drivers/CMSIS/Include/cmsis_gcc.h **** #define __CMSIS_GCC_OUT_REG(r) "=r" (r)
 220:Drivers/CMSIS/Include/cmsis_gcc.h **** #define __CMSIS_GCC_RW_REG(r) "+r" (r)
 221:Drivers/CMSIS/Include/cmsis_gcc.h **** #define __CMSIS_GCC_USE_REG(r) "r" (r)
 222:Drivers/CMSIS/Include/cmsis_gcc.h **** #endif
 223:Drivers/CMSIS/Include/cmsis_gcc.h **** 
 224:Drivers/CMSIS/Include/cmsis_gcc.h **** /**
 225:Drivers/CMSIS/Include/cmsis_gcc.h ****   \brief   No Operation
 226:Drivers/CMSIS/Include/cmsis_gcc.h ****   \details No Operation does nothing. This instruction can be used for code alignment purposes.
 227:Drivers/CMSIS/Include/cmsis_gcc.h ****  */
 228:Drivers/CMSIS/Include/cmsis_gcc.h **** #define __NOP()                             __ASM volatile ("nop")
 229:Drivers/CMSIS/Include/cmsis_gcc.h **** 
 230:Drivers/CMSIS/Include/cmsis_gcc.h **** /**
 231:Drivers/CMSIS/Include/cmsis_gcc.h ****   \brief   Wait For Interrupt
 232:Drivers/CMSIS/Include/cmsis_gcc.h ****   \details Wait For Interrupt is a hint instruction that suspends execution until one of a number o
 233:Drivers/CMSIS/Include/cmsis_gcc.h ****  */
 234:Drivers/CMSIS/Include/cmsis_gcc.h **** #define __WFI()                             __ASM volatile ("wfi":::"memory")
 235:Drivers/CMSIS/Include/cmsis_gcc.h **** 
 236:Drivers/CMSIS/Include/cmsis_gcc.h **** 
 237:Drivers/CMSIS/Include/cmsis_gcc.h **** /**
 238:Drivers/CMSIS/Include/cmsis_gcc.h ****   \brief   Wait For Event
 239:Drivers/CMSIS/Include/cmsis_gcc.h ****   \details Wait For Event is a hint instruction that permits the processor to enter
 240:Drivers/CMSIS/Include/cmsis_gcc.h ****            a low-power state until one of a number of events occurs.
 241:Drivers/CMSIS/Include/cmsis_gcc.h ****  */
 242:Drivers/CMSIS/Include/cmsis_gcc.h **** #define __WFE()                             __ASM volatile ("wfe":::"memory")
 243:Drivers/CMSIS/Include/cmsis_gcc.h **** 
 244:Drivers/CMSIS/Include/cmsis_gcc.h **** 
 245:Drivers/CMSIS/Include/cmsis_gcc.h **** /**
 246:Drivers/CMSIS/Include/cmsis_gcc.h ****   \brief   Send Event
 247:Drivers/CMSIS/Include/cmsis_gcc.h ****   \details Send Event is a hint instruction. It causes an event to be signaled to the CPU.
 248:Drivers/CMSIS/Include/cmsis_gcc.h ****  */
 249:Drivers/CMSIS/Include/cmsis_gcc.h **** #define __SEV()                             __ASM volatile ("sev")
 250:Drivers/CMSIS/Include/cmsis_gcc.h **** 
 251:Drivers/CMSIS/Include/cmsis_gcc.h **** 
 252:Drivers/CMSIS/Include/cmsis_gcc.h **** /**
 253:Drivers/CMSIS/Include/cmsis_gcc.h ****   \brief   Instruction Synchronization Barrier
 254:Drivers/CMSIS/Include/cmsis_gcc.h ****   \details Instruction Synchronization Barrier flushes the pipeline in the processor,
 255:Drivers/CMSIS/Include/cmsis_gcc.h ****            so that all instructions following the ISB are fetched from cache or memory,
 256:Drivers/CMSIS/Include/cmsis_gcc.h ****            after the instruction has been completed.
 257:Drivers/CMSIS/Include/cmsis_gcc.h ****  */
 258:Drivers/CMSIS/Include/cmsis_gcc.h **** __STATIC_FORCEINLINE void __ISB(void)
 259:Drivers/CMSIS/Include/cmsis_gcc.h **** {
 260:Drivers/CMSIS/Include/cmsis_gcc.h ****   __ASM volatile ("isb 0xF":::"memory");
 261:Drivers/CMSIS/Include/cmsis_gcc.h **** }
 262:Drivers/CMSIS/Include/cmsis_gcc.h **** 
 263:Drivers/CMSIS/Include/cmsis_gcc.h **** 
 264:Drivers/CMSIS/Include/cmsis_gcc.h **** /**
 265:Drivers/CMSIS/Include/cmsis_gcc.h ****   \brief   Data Synchronization Barrier
 266:Drivers/CMSIS/Include/cmsis_gcc.h ****   \details Acts as a special kind of Data Memory Barrier.
 267:Drivers/CMSIS/Include/cmsis_gcc.h ****            It completes when all explicit memory accesses before this instruction complete.
 268:Drivers/CMSIS/Include/cmsis_gcc.h ****  */
ARM GAS  C:\Users\einom\AppData\Local\Temp\ccWbNOsJ.s 			page 17


 269:Drivers/CMSIS/Include/cmsis_gcc.h **** __STATIC_FORCEINLINE void __DSB(void)
 270:Drivers/CMSIS/Include/cmsis_gcc.h **** {
 271:Drivers/CMSIS/Include/cmsis_gcc.h ****   __ASM volatile ("dsb 0xF":::"memory");
 272:Drivers/CMSIS/Include/cmsis_gcc.h **** }
 273:Drivers/CMSIS/Include/cmsis_gcc.h **** 
 274:Drivers/CMSIS/Include/cmsis_gcc.h **** 
 275:Drivers/CMSIS/Include/cmsis_gcc.h **** /**
 276:Drivers/CMSIS/Include/cmsis_gcc.h ****   \brief   Data Memory Barrier
 277:Drivers/CMSIS/Include/cmsis_gcc.h ****   \details Ensures the apparent order of the explicit memory operations before
 278:Drivers/CMSIS/Include/cmsis_gcc.h ****            and after the instruction, without ensuring their completion.
 279:Drivers/CMSIS/Include/cmsis_gcc.h ****  */
 280:Drivers/CMSIS/Include/cmsis_gcc.h **** __STATIC_FORCEINLINE void __DMB(void)
 281:Drivers/CMSIS/Include/cmsis_gcc.h **** {
 282:Drivers/CMSIS/Include/cmsis_gcc.h ****   __ASM volatile ("dmb 0xF":::"memory");
 283:Drivers/CMSIS/Include/cmsis_gcc.h **** }
 284:Drivers/CMSIS/Include/cmsis_gcc.h **** 
 285:Drivers/CMSIS/Include/cmsis_gcc.h **** 
 286:Drivers/CMSIS/Include/cmsis_gcc.h **** /**
 287:Drivers/CMSIS/Include/cmsis_gcc.h ****   \brief   Reverse byte order (32 bit)
 288:Drivers/CMSIS/Include/cmsis_gcc.h ****   \details Reverses the byte order in unsigned integer value. For example, 0x12345678 becomes 0x785
 289:Drivers/CMSIS/Include/cmsis_gcc.h ****   \param [in]    value  Value to reverse
 290:Drivers/CMSIS/Include/cmsis_gcc.h ****   \return               Reversed value
 291:Drivers/CMSIS/Include/cmsis_gcc.h ****  */
 292:Drivers/CMSIS/Include/cmsis_gcc.h **** __STATIC_FORCEINLINE uint32_t __REV(uint32_t value)
 293:Drivers/CMSIS/Include/cmsis_gcc.h **** {
 294:Drivers/CMSIS/Include/cmsis_gcc.h **** #if (__GNUC__ > 4) || (__GNUC__ == 4 && __GNUC_MINOR__ >= 5)
 295:Drivers/CMSIS/Include/cmsis_gcc.h ****   return __builtin_bswap32(value);
 296:Drivers/CMSIS/Include/cmsis_gcc.h **** #else
 297:Drivers/CMSIS/Include/cmsis_gcc.h ****   uint32_t result;
 298:Drivers/CMSIS/Include/cmsis_gcc.h **** 
 299:Drivers/CMSIS/Include/cmsis_gcc.h ****   __ASM ("rev %0, %1" : __CMSIS_GCC_OUT_REG (result) : __CMSIS_GCC_USE_REG (value) );
 300:Drivers/CMSIS/Include/cmsis_gcc.h ****   return result;
 301:Drivers/CMSIS/Include/cmsis_gcc.h **** #endif
 302:Drivers/CMSIS/Include/cmsis_gcc.h **** }
 303:Drivers/CMSIS/Include/cmsis_gcc.h **** 
 304:Drivers/CMSIS/Include/cmsis_gcc.h **** 
 305:Drivers/CMSIS/Include/cmsis_gcc.h **** /**
 306:Drivers/CMSIS/Include/cmsis_gcc.h ****   \brief   Reverse byte order (16 bit)
 307:Drivers/CMSIS/Include/cmsis_gcc.h ****   \details Reverses the byte order within each halfword of a word. For example, 0x12345678 becomes 
 308:Drivers/CMSIS/Include/cmsis_gcc.h ****   \param [in]    value  Value to reverse
 309:Drivers/CMSIS/Include/cmsis_gcc.h ****   \return               Reversed value
 310:Drivers/CMSIS/Include/cmsis_gcc.h ****  */
 311:Drivers/CMSIS/Include/cmsis_gcc.h **** __STATIC_FORCEINLINE uint32_t __REV16(uint32_t value)
 312:Drivers/CMSIS/Include/cmsis_gcc.h **** {
 313:Drivers/CMSIS/Include/cmsis_gcc.h ****   uint32_t result;
 314:Drivers/CMSIS/Include/cmsis_gcc.h **** 
 315:Drivers/CMSIS/Include/cmsis_gcc.h ****   __ASM ("rev16 %0, %1" : __CMSIS_GCC_OUT_REG (result) : __CMSIS_GCC_USE_REG (value) );
 316:Drivers/CMSIS/Include/cmsis_gcc.h ****   return result;
 317:Drivers/CMSIS/Include/cmsis_gcc.h **** }
 318:Drivers/CMSIS/Include/cmsis_gcc.h **** 
 319:Drivers/CMSIS/Include/cmsis_gcc.h **** 
 320:Drivers/CMSIS/Include/cmsis_gcc.h **** /**
 321:Drivers/CMSIS/Include/cmsis_gcc.h ****   \brief   Reverse byte order (16 bit)
 322:Drivers/CMSIS/Include/cmsis_gcc.h ****   \details Reverses the byte order in a 16-bit value and returns the signed 16-bit result. For exam
 323:Drivers/CMSIS/Include/cmsis_gcc.h ****   \param [in]    value  Value to reverse
 324:Drivers/CMSIS/Include/cmsis_gcc.h ****   \return               Reversed value
 325:Drivers/CMSIS/Include/cmsis_gcc.h ****  */
ARM GAS  C:\Users\einom\AppData\Local\Temp\ccWbNOsJ.s 			page 18


 326:Drivers/CMSIS/Include/cmsis_gcc.h **** __STATIC_FORCEINLINE int16_t __REVSH(int16_t value)
 327:Drivers/CMSIS/Include/cmsis_gcc.h **** {
 328:Drivers/CMSIS/Include/cmsis_gcc.h **** #if (__GNUC__ > 4) || (__GNUC__ == 4 && __GNUC_MINOR__ >= 8)
 329:Drivers/CMSIS/Include/cmsis_gcc.h ****   return (int16_t)__builtin_bswap16(value);
 330:Drivers/CMSIS/Include/cmsis_gcc.h **** #else
 331:Drivers/CMSIS/Include/cmsis_gcc.h ****   int16_t result;
 332:Drivers/CMSIS/Include/cmsis_gcc.h **** 
 333:Drivers/CMSIS/Include/cmsis_gcc.h ****   __ASM ("revsh %0, %1" : __CMSIS_GCC_OUT_REG (result) : __CMSIS_GCC_USE_REG (value) );
 334:Drivers/CMSIS/Include/cmsis_gcc.h ****   return result;
 335:Drivers/CMSIS/Include/cmsis_gcc.h **** #endif
 336:Drivers/CMSIS/Include/cmsis_gcc.h **** }
 337:Drivers/CMSIS/Include/cmsis_gcc.h **** 
 338:Drivers/CMSIS/Include/cmsis_gcc.h **** 
 339:Drivers/CMSIS/Include/cmsis_gcc.h **** /**
 340:Drivers/CMSIS/Include/cmsis_gcc.h ****   \brief   Rotate Right in unsigned value (32 bit)
 341:Drivers/CMSIS/Include/cmsis_gcc.h ****   \details Rotate Right (immediate) provides the value of the contents of a register rotated by a v
 342:Drivers/CMSIS/Include/cmsis_gcc.h ****   \param [in]    op1  Value to rotate
 343:Drivers/CMSIS/Include/cmsis_gcc.h ****   \param [in]    op2  Number of Bits to rotate
 344:Drivers/CMSIS/Include/cmsis_gcc.h ****   \return               Rotated value
 345:Drivers/CMSIS/Include/cmsis_gcc.h ****  */
 346:Drivers/CMSIS/Include/cmsis_gcc.h **** __STATIC_FORCEINLINE uint32_t __ROR(uint32_t op1, uint32_t op2)
 347:Drivers/CMSIS/Include/cmsis_gcc.h **** {
 348:Drivers/CMSIS/Include/cmsis_gcc.h ****   op2 %= 32U;
 349:Drivers/CMSIS/Include/cmsis_gcc.h ****   if (op2 == 0U)
 350:Drivers/CMSIS/Include/cmsis_gcc.h ****   {
 351:Drivers/CMSIS/Include/cmsis_gcc.h ****     return op1;
 352:Drivers/CMSIS/Include/cmsis_gcc.h ****   }
 353:Drivers/CMSIS/Include/cmsis_gcc.h ****   return (op1 >> op2) | (op1 << (32U - op2));
 354:Drivers/CMSIS/Include/cmsis_gcc.h **** }
 355:Drivers/CMSIS/Include/cmsis_gcc.h **** 
 356:Drivers/CMSIS/Include/cmsis_gcc.h **** 
 357:Drivers/CMSIS/Include/cmsis_gcc.h **** /**
 358:Drivers/CMSIS/Include/cmsis_gcc.h ****   \brief   Breakpoint
 359:Drivers/CMSIS/Include/cmsis_gcc.h ****   \details Causes the processor to enter Debug state.
 360:Drivers/CMSIS/Include/cmsis_gcc.h ****            Debug tools can use this to investigate system state when the instruction at a particula
 361:Drivers/CMSIS/Include/cmsis_gcc.h ****   \param [in]    value  is ignored by the processor.
 362:Drivers/CMSIS/Include/cmsis_gcc.h ****                  If required, a debugger can use it to store additional information about the break
 363:Drivers/CMSIS/Include/cmsis_gcc.h ****  */
 364:Drivers/CMSIS/Include/cmsis_gcc.h **** #define __BKPT(value)                       __ASM volatile ("bkpt "#value)
 365:Drivers/CMSIS/Include/cmsis_gcc.h **** 
 366:Drivers/CMSIS/Include/cmsis_gcc.h **** 
 367:Drivers/CMSIS/Include/cmsis_gcc.h **** /**
 368:Drivers/CMSIS/Include/cmsis_gcc.h ****   \brief   Reverse bit order of value
 369:Drivers/CMSIS/Include/cmsis_gcc.h ****   \details Reverses the bit order of the given value.
 370:Drivers/CMSIS/Include/cmsis_gcc.h ****   \param [in]    value  Value to reverse
 371:Drivers/CMSIS/Include/cmsis_gcc.h ****   \return               Reversed value
 372:Drivers/CMSIS/Include/cmsis_gcc.h ****  */
 373:Drivers/CMSIS/Include/cmsis_gcc.h **** __STATIC_FORCEINLINE uint32_t __RBIT(uint32_t value)
 374:Drivers/CMSIS/Include/cmsis_gcc.h **** {
 375:Drivers/CMSIS/Include/cmsis_gcc.h ****   uint32_t result;
 376:Drivers/CMSIS/Include/cmsis_gcc.h **** 
 377:Drivers/CMSIS/Include/cmsis_gcc.h **** #if ((defined (__ARM_ARCH_7M__      ) && (__ARM_ARCH_7M__      == 1)) || \
 378:Drivers/CMSIS/Include/cmsis_gcc.h ****      (defined (__ARM_ARCH_7EM__     ) && (__ARM_ARCH_7EM__     == 1)) || \
 379:Drivers/CMSIS/Include/cmsis_gcc.h ****      (defined (__ARM_ARCH_8M_MAIN__ ) && (__ARM_ARCH_8M_MAIN__ == 1))    )
 380:Drivers/CMSIS/Include/cmsis_gcc.h ****    __ASM ("rbit %0, %1" : "=r" (result) : "r" (value) );
 381:Drivers/CMSIS/Include/cmsis_gcc.h **** #else
 382:Drivers/CMSIS/Include/cmsis_gcc.h ****   uint32_t s = (4U /*sizeof(v)*/ * 8U) - 1U; /* extra shift needed at end */
ARM GAS  C:\Users\einom\AppData\Local\Temp\ccWbNOsJ.s 			page 19


 383:Drivers/CMSIS/Include/cmsis_gcc.h **** 
 384:Drivers/CMSIS/Include/cmsis_gcc.h ****   result = value;                      /* r will be reversed bits of v; first get LSB of v */
 385:Drivers/CMSIS/Include/cmsis_gcc.h ****   for (value >>= 1U; value != 0U; value >>= 1U)
 386:Drivers/CMSIS/Include/cmsis_gcc.h ****   {
 387:Drivers/CMSIS/Include/cmsis_gcc.h ****     result <<= 1U;
 388:Drivers/CMSIS/Include/cmsis_gcc.h ****     result |= value & 1U;
 389:Drivers/CMSIS/Include/cmsis_gcc.h ****     s--;
 390:Drivers/CMSIS/Include/cmsis_gcc.h ****   }
 391:Drivers/CMSIS/Include/cmsis_gcc.h ****   result <<= s;                        /* shift when v's highest bits are zero */
 392:Drivers/CMSIS/Include/cmsis_gcc.h **** #endif
 393:Drivers/CMSIS/Include/cmsis_gcc.h ****   return result;
 394:Drivers/CMSIS/Include/cmsis_gcc.h **** }
 395:Drivers/CMSIS/Include/cmsis_gcc.h **** 
 396:Drivers/CMSIS/Include/cmsis_gcc.h **** 
 397:Drivers/CMSIS/Include/cmsis_gcc.h **** /**
 398:Drivers/CMSIS/Include/cmsis_gcc.h ****   \brief   Count leading zeros
 399:Drivers/CMSIS/Include/cmsis_gcc.h ****   \details Counts the number of leading zeros of a data value.
 400:Drivers/CMSIS/Include/cmsis_gcc.h ****   \param [in]  value  Value to count the leading zeros
 401:Drivers/CMSIS/Include/cmsis_gcc.h ****   \return             number of leading zeros in value
 402:Drivers/CMSIS/Include/cmsis_gcc.h ****  */
 403:Drivers/CMSIS/Include/cmsis_gcc.h **** __STATIC_FORCEINLINE uint8_t __CLZ(uint32_t value)
 404:Drivers/CMSIS/Include/cmsis_gcc.h **** {
 405:Drivers/CMSIS/Include/cmsis_gcc.h ****   /* Even though __builtin_clz produces a CLZ instruction on ARM, formally
 406:Drivers/CMSIS/Include/cmsis_gcc.h ****      __builtin_clz(0) is undefined behaviour, so handle this case specially.
 407:Drivers/CMSIS/Include/cmsis_gcc.h ****      This guarantees ARM-compatible results if happening to compile on a non-ARM
 408:Drivers/CMSIS/Include/cmsis_gcc.h ****      target, and ensures the compiler doesn't decide to activate any
 409:Drivers/CMSIS/Include/cmsis_gcc.h ****      optimisations using the logic "value was passed to __builtin_clz, so it
 410:Drivers/CMSIS/Include/cmsis_gcc.h ****      is non-zero".
 411:Drivers/CMSIS/Include/cmsis_gcc.h ****      ARM GCC 7.3 and possibly earlier will optimise this test away, leaving a
 412:Drivers/CMSIS/Include/cmsis_gcc.h ****      single CLZ instruction.
 413:Drivers/CMSIS/Include/cmsis_gcc.h ****    */
 414:Drivers/CMSIS/Include/cmsis_gcc.h ****   if (value == 0U)
 415:Drivers/CMSIS/Include/cmsis_gcc.h ****   {
 416:Drivers/CMSIS/Include/cmsis_gcc.h ****     return 32U;
 417:Drivers/CMSIS/Include/cmsis_gcc.h ****   }
 418:Drivers/CMSIS/Include/cmsis_gcc.h ****   return __builtin_clz(value);
 419:Drivers/CMSIS/Include/cmsis_gcc.h **** }
 420:Drivers/CMSIS/Include/cmsis_gcc.h **** 
 421:Drivers/CMSIS/Include/cmsis_gcc.h **** 
 422:Drivers/CMSIS/Include/cmsis_gcc.h **** #if ((defined (__ARM_ARCH_7M__      ) && (__ARM_ARCH_7M__      == 1)) || \
 423:Drivers/CMSIS/Include/cmsis_gcc.h ****      (defined (__ARM_ARCH_7EM__     ) && (__ARM_ARCH_7EM__     == 1)) || \
 424:Drivers/CMSIS/Include/cmsis_gcc.h ****      (defined (__ARM_ARCH_8M_MAIN__ ) && (__ARM_ARCH_8M_MAIN__ == 1)) || \
 425:Drivers/CMSIS/Include/cmsis_gcc.h ****      (defined (__ARM_ARCH_8M_BASE__ ) && (__ARM_ARCH_8M_BASE__ == 1))    )
 426:Drivers/CMSIS/Include/cmsis_gcc.h **** /**
 427:Drivers/CMSIS/Include/cmsis_gcc.h ****   \brief   LDR Exclusive (8 bit)
 428:Drivers/CMSIS/Include/cmsis_gcc.h ****   \details Executes a exclusive LDR instruction for 8 bit value.
 429:Drivers/CMSIS/Include/cmsis_gcc.h ****   \param [in]    ptr  Pointer to data
 430:Drivers/CMSIS/Include/cmsis_gcc.h ****   \return             value of type uint8_t at (*ptr)
 431:Drivers/CMSIS/Include/cmsis_gcc.h ****  */
 432:Drivers/CMSIS/Include/cmsis_gcc.h **** __STATIC_FORCEINLINE uint8_t __LDREXB(volatile uint8_t *addr)
 433:Drivers/CMSIS/Include/cmsis_gcc.h **** {
 434:Drivers/CMSIS/Include/cmsis_gcc.h ****     uint32_t result;
 435:Drivers/CMSIS/Include/cmsis_gcc.h **** 
 436:Drivers/CMSIS/Include/cmsis_gcc.h **** #if (__GNUC__ > 4) || (__GNUC__ == 4 && __GNUC_MINOR__ >= 8)
 437:Drivers/CMSIS/Include/cmsis_gcc.h ****    __ASM volatile ("ldrexb %0, %1" : "=r" (result) : "Q" (*addr) );
 438:Drivers/CMSIS/Include/cmsis_gcc.h **** #else
 439:Drivers/CMSIS/Include/cmsis_gcc.h ****     /* Prior to GCC 4.8, "Q" will be expanded to [rx, #0] which is not
ARM GAS  C:\Users\einom\AppData\Local\Temp\ccWbNOsJ.s 			page 20


 440:Drivers/CMSIS/Include/cmsis_gcc.h ****        accepted by assembler. So has to use following less efficient pattern.
 441:Drivers/CMSIS/Include/cmsis_gcc.h ****     */
 442:Drivers/CMSIS/Include/cmsis_gcc.h ****    __ASM volatile ("ldrexb %0, [%1]" : "=r" (result) : "r" (addr) : "memory" );
 443:Drivers/CMSIS/Include/cmsis_gcc.h **** #endif
 444:Drivers/CMSIS/Include/cmsis_gcc.h ****    return ((uint8_t) result);    /* Add explicit type cast here */
 445:Drivers/CMSIS/Include/cmsis_gcc.h **** }
 446:Drivers/CMSIS/Include/cmsis_gcc.h **** 
 447:Drivers/CMSIS/Include/cmsis_gcc.h **** 
 448:Drivers/CMSIS/Include/cmsis_gcc.h **** /**
 449:Drivers/CMSIS/Include/cmsis_gcc.h ****   \brief   LDR Exclusive (16 bit)
 450:Drivers/CMSIS/Include/cmsis_gcc.h ****   \details Executes a exclusive LDR instruction for 16 bit values.
 451:Drivers/CMSIS/Include/cmsis_gcc.h ****   \param [in]    ptr  Pointer to data
 452:Drivers/CMSIS/Include/cmsis_gcc.h ****   \return        value of type uint16_t at (*ptr)
 453:Drivers/CMSIS/Include/cmsis_gcc.h ****  */
 454:Drivers/CMSIS/Include/cmsis_gcc.h **** __STATIC_FORCEINLINE uint16_t __LDREXH(volatile uint16_t *addr)
 455:Drivers/CMSIS/Include/cmsis_gcc.h **** {
 456:Drivers/CMSIS/Include/cmsis_gcc.h ****     uint32_t result;
 457:Drivers/CMSIS/Include/cmsis_gcc.h **** 
 458:Drivers/CMSIS/Include/cmsis_gcc.h **** #if (__GNUC__ > 4) || (__GNUC__ == 4 && __GNUC_MINOR__ >= 8)
 459:Drivers/CMSIS/Include/cmsis_gcc.h ****    __ASM volatile ("ldrexh %0, %1" : "=r" (result) : "Q" (*addr) );
 460:Drivers/CMSIS/Include/cmsis_gcc.h **** #else
 461:Drivers/CMSIS/Include/cmsis_gcc.h ****     /* Prior to GCC 4.8, "Q" will be expanded to [rx, #0] which is not
 462:Drivers/CMSIS/Include/cmsis_gcc.h ****        accepted by assembler. So has to use following less efficient pattern.
 463:Drivers/CMSIS/Include/cmsis_gcc.h ****     */
 464:Drivers/CMSIS/Include/cmsis_gcc.h ****    __ASM volatile ("ldrexh %0, [%1]" : "=r" (result) : "r" (addr) : "memory" );
 465:Drivers/CMSIS/Include/cmsis_gcc.h **** #endif
 466:Drivers/CMSIS/Include/cmsis_gcc.h ****    return ((uint16_t) result);    /* Add explicit type cast here */
 467:Drivers/CMSIS/Include/cmsis_gcc.h **** }
 468:Drivers/CMSIS/Include/cmsis_gcc.h **** 
 469:Drivers/CMSIS/Include/cmsis_gcc.h **** 
 470:Drivers/CMSIS/Include/cmsis_gcc.h **** /**
 471:Drivers/CMSIS/Include/cmsis_gcc.h ****   \brief   LDR Exclusive (32 bit)
 472:Drivers/CMSIS/Include/cmsis_gcc.h ****   \details Executes a exclusive LDR instruction for 32 bit values.
 473:Drivers/CMSIS/Include/cmsis_gcc.h ****   \param [in]    ptr  Pointer to data
 474:Drivers/CMSIS/Include/cmsis_gcc.h ****   \return        value of type uint32_t at (*ptr)
 475:Drivers/CMSIS/Include/cmsis_gcc.h ****  */
 476:Drivers/CMSIS/Include/cmsis_gcc.h **** __STATIC_FORCEINLINE uint32_t __LDREXW(volatile uint32_t *addr)
 477:Drivers/CMSIS/Include/cmsis_gcc.h **** {
 478:Drivers/CMSIS/Include/cmsis_gcc.h ****     uint32_t result;
 479:Drivers/CMSIS/Include/cmsis_gcc.h **** 
 480:Drivers/CMSIS/Include/cmsis_gcc.h ****    __ASM volatile ("ldrex %0, %1" : "=r" (result) : "Q" (*addr) );
 481:Drivers/CMSIS/Include/cmsis_gcc.h ****    return(result);
 482:Drivers/CMSIS/Include/cmsis_gcc.h **** }
 483:Drivers/CMSIS/Include/cmsis_gcc.h **** 
 484:Drivers/CMSIS/Include/cmsis_gcc.h **** 
 485:Drivers/CMSIS/Include/cmsis_gcc.h **** /**
 486:Drivers/CMSIS/Include/cmsis_gcc.h ****   \brief   STR Exclusive (8 bit)
 487:Drivers/CMSIS/Include/cmsis_gcc.h ****   \details Executes a exclusive STR instruction for 8 bit values.
 488:Drivers/CMSIS/Include/cmsis_gcc.h ****   \param [in]  value  Value to store
 489:Drivers/CMSIS/Include/cmsis_gcc.h ****   \param [in]    ptr  Pointer to location
 490:Drivers/CMSIS/Include/cmsis_gcc.h ****   \return          0  Function succeeded
 491:Drivers/CMSIS/Include/cmsis_gcc.h ****   \return          1  Function failed
 492:Drivers/CMSIS/Include/cmsis_gcc.h ****  */
 493:Drivers/CMSIS/Include/cmsis_gcc.h **** __STATIC_FORCEINLINE uint32_t __STREXB(uint8_t value, volatile uint8_t *addr)
 494:Drivers/CMSIS/Include/cmsis_gcc.h **** {
 495:Drivers/CMSIS/Include/cmsis_gcc.h ****    uint32_t result;
 496:Drivers/CMSIS/Include/cmsis_gcc.h **** 
ARM GAS  C:\Users\einom\AppData\Local\Temp\ccWbNOsJ.s 			page 21


 497:Drivers/CMSIS/Include/cmsis_gcc.h ****    __ASM volatile ("strexb %0, %2, %1" : "=&r" (result), "=Q" (*addr) : "r" ((uint32_t)value) );
 498:Drivers/CMSIS/Include/cmsis_gcc.h ****    return(result);
 499:Drivers/CMSIS/Include/cmsis_gcc.h **** }
 500:Drivers/CMSIS/Include/cmsis_gcc.h **** 
 501:Drivers/CMSIS/Include/cmsis_gcc.h **** 
 502:Drivers/CMSIS/Include/cmsis_gcc.h **** /**
 503:Drivers/CMSIS/Include/cmsis_gcc.h ****   \brief   STR Exclusive (16 bit)
 504:Drivers/CMSIS/Include/cmsis_gcc.h ****   \details Executes a exclusive STR instruction for 16 bit values.
 505:Drivers/CMSIS/Include/cmsis_gcc.h ****   \param [in]  value  Value to store
 506:Drivers/CMSIS/Include/cmsis_gcc.h ****   \param [in]    ptr  Pointer to location
 507:Drivers/CMSIS/Include/cmsis_gcc.h ****   \return          0  Function succeeded
 508:Drivers/CMSIS/Include/cmsis_gcc.h ****   \return          1  Function failed
 509:Drivers/CMSIS/Include/cmsis_gcc.h ****  */
 510:Drivers/CMSIS/Include/cmsis_gcc.h **** __STATIC_FORCEINLINE uint32_t __STREXH(uint16_t value, volatile uint16_t *addr)
 511:Drivers/CMSIS/Include/cmsis_gcc.h **** {
 512:Drivers/CMSIS/Include/cmsis_gcc.h ****    uint32_t result;
 513:Drivers/CMSIS/Include/cmsis_gcc.h **** 
 514:Drivers/CMSIS/Include/cmsis_gcc.h ****    __ASM volatile ("strexh %0, %2, %1" : "=&r" (result), "=Q" (*addr) : "r" ((uint32_t)value) );
 515:Drivers/CMSIS/Include/cmsis_gcc.h ****    return(result);
 516:Drivers/CMSIS/Include/cmsis_gcc.h **** }
 517:Drivers/CMSIS/Include/cmsis_gcc.h **** 
 518:Drivers/CMSIS/Include/cmsis_gcc.h **** 
 519:Drivers/CMSIS/Include/cmsis_gcc.h **** /**
 520:Drivers/CMSIS/Include/cmsis_gcc.h ****   \brief   STR Exclusive (32 bit)
 521:Drivers/CMSIS/Include/cmsis_gcc.h ****   \details Executes a exclusive STR instruction for 32 bit values.
 522:Drivers/CMSIS/Include/cmsis_gcc.h ****   \param [in]  value  Value to store
 523:Drivers/CMSIS/Include/cmsis_gcc.h ****   \param [in]    ptr  Pointer to location
 524:Drivers/CMSIS/Include/cmsis_gcc.h ****   \return          0  Function succeeded
 525:Drivers/CMSIS/Include/cmsis_gcc.h ****   \return          1  Function failed
 526:Drivers/CMSIS/Include/cmsis_gcc.h ****  */
 527:Drivers/CMSIS/Include/cmsis_gcc.h **** __STATIC_FORCEINLINE uint32_t __STREXW(uint32_t value, volatile uint32_t *addr)
 528:Drivers/CMSIS/Include/cmsis_gcc.h **** {
 529:Drivers/CMSIS/Include/cmsis_gcc.h ****    uint32_t result;
 530:Drivers/CMSIS/Include/cmsis_gcc.h **** 
 531:Drivers/CMSIS/Include/cmsis_gcc.h ****    __ASM volatile ("strex %0, %2, %1" : "=&r" (result), "=Q" (*addr) : "r" (value) );
 532:Drivers/CMSIS/Include/cmsis_gcc.h ****    return(result);
 533:Drivers/CMSIS/Include/cmsis_gcc.h **** }
 534:Drivers/CMSIS/Include/cmsis_gcc.h **** 
 535:Drivers/CMSIS/Include/cmsis_gcc.h **** 
 536:Drivers/CMSIS/Include/cmsis_gcc.h **** /**
 537:Drivers/CMSIS/Include/cmsis_gcc.h ****   \brief   Remove the exclusive lock
 538:Drivers/CMSIS/Include/cmsis_gcc.h ****   \details Removes the exclusive lock which is created by LDREX.
 539:Drivers/CMSIS/Include/cmsis_gcc.h ****  */
 540:Drivers/CMSIS/Include/cmsis_gcc.h **** __STATIC_FORCEINLINE void __CLREX(void)
 541:Drivers/CMSIS/Include/cmsis_gcc.h **** {
 542:Drivers/CMSIS/Include/cmsis_gcc.h ****   __ASM volatile ("clrex" ::: "memory");
 543:Drivers/CMSIS/Include/cmsis_gcc.h **** }
 544:Drivers/CMSIS/Include/cmsis_gcc.h **** 
 545:Drivers/CMSIS/Include/cmsis_gcc.h **** #endif /* ((defined (__ARM_ARCH_7M__      ) && (__ARM_ARCH_7M__      == 1)) || \
 546:Drivers/CMSIS/Include/cmsis_gcc.h ****            (defined (__ARM_ARCH_7EM__     ) && (__ARM_ARCH_7EM__     == 1)) || \
 547:Drivers/CMSIS/Include/cmsis_gcc.h ****            (defined (__ARM_ARCH_8M_MAIN__ ) && (__ARM_ARCH_8M_MAIN__ == 1)) || \
 548:Drivers/CMSIS/Include/cmsis_gcc.h ****            (defined (__ARM_ARCH_8M_BASE__ ) && (__ARM_ARCH_8M_BASE__ == 1))    ) */
 549:Drivers/CMSIS/Include/cmsis_gcc.h **** 
 550:Drivers/CMSIS/Include/cmsis_gcc.h **** 
 551:Drivers/CMSIS/Include/cmsis_gcc.h **** #if ((defined (__ARM_ARCH_7M__      ) && (__ARM_ARCH_7M__      == 1)) || \
 552:Drivers/CMSIS/Include/cmsis_gcc.h ****      (defined (__ARM_ARCH_7EM__     ) && (__ARM_ARCH_7EM__     == 1)) || \
 553:Drivers/CMSIS/Include/cmsis_gcc.h ****      (defined (__ARM_ARCH_8M_MAIN__ ) && (__ARM_ARCH_8M_MAIN__ == 1))    )
ARM GAS  C:\Users\einom\AppData\Local\Temp\ccWbNOsJ.s 			page 22


 554:Drivers/CMSIS/Include/cmsis_gcc.h **** /**
 555:Drivers/CMSIS/Include/cmsis_gcc.h ****   \brief   Signed Saturate
 556:Drivers/CMSIS/Include/cmsis_gcc.h ****   \details Saturates a signed value.
 557:Drivers/CMSIS/Include/cmsis_gcc.h ****   \param [in]  ARG1  Value to be saturated
 558:Drivers/CMSIS/Include/cmsis_gcc.h ****   \param [in]  ARG2  Bit position to saturate to (1..32)
 559:Drivers/CMSIS/Include/cmsis_gcc.h ****   \return             Saturated value
 560:Drivers/CMSIS/Include/cmsis_gcc.h ****  */
 561:Drivers/CMSIS/Include/cmsis_gcc.h **** #define __SSAT(ARG1, ARG2) \
 562:Drivers/CMSIS/Include/cmsis_gcc.h **** __extension__ \
 563:Drivers/CMSIS/Include/cmsis_gcc.h **** ({                          \
 564:Drivers/CMSIS/Include/cmsis_gcc.h ****   int32_t __RES, __ARG1 = (ARG1); \
 565:Drivers/CMSIS/Include/cmsis_gcc.h ****   __ASM volatile ("ssat %0, %1, %2" : "=r" (__RES) :  "I" (ARG2), "r" (__ARG1) : "cc" ); \
 566:Drivers/CMSIS/Include/cmsis_gcc.h ****   __RES; \
 567:Drivers/CMSIS/Include/cmsis_gcc.h ****  })
 568:Drivers/CMSIS/Include/cmsis_gcc.h **** 
 569:Drivers/CMSIS/Include/cmsis_gcc.h **** 
 570:Drivers/CMSIS/Include/cmsis_gcc.h **** /**
 571:Drivers/CMSIS/Include/cmsis_gcc.h ****   \brief   Unsigned Saturate
 572:Drivers/CMSIS/Include/cmsis_gcc.h ****   \details Saturates an unsigned value.
 573:Drivers/CMSIS/Include/cmsis_gcc.h ****   \param [in]  ARG1  Value to be saturated
 574:Drivers/CMSIS/Include/cmsis_gcc.h ****   \param [in]  ARG2  Bit position to saturate to (0..31)
 575:Drivers/CMSIS/Include/cmsis_gcc.h ****   \return             Saturated value
 576:Drivers/CMSIS/Include/cmsis_gcc.h ****  */
 577:Drivers/CMSIS/Include/cmsis_gcc.h **** #define __USAT(ARG1, ARG2) \
 578:Drivers/CMSIS/Include/cmsis_gcc.h **** __extension__ \
 579:Drivers/CMSIS/Include/cmsis_gcc.h **** ({                          \
 580:Drivers/CMSIS/Include/cmsis_gcc.h ****   uint32_t __RES, __ARG1 = (ARG1); \
 581:Drivers/CMSIS/Include/cmsis_gcc.h ****   __ASM volatile ("usat %0, %1, %2" : "=r" (__RES) :  "I" (ARG2), "r" (__ARG1) : "cc" ); \
 582:Drivers/CMSIS/Include/cmsis_gcc.h ****   __RES; \
 583:Drivers/CMSIS/Include/cmsis_gcc.h ****  })
 584:Drivers/CMSIS/Include/cmsis_gcc.h **** 
 585:Drivers/CMSIS/Include/cmsis_gcc.h **** 
 586:Drivers/CMSIS/Include/cmsis_gcc.h **** /**
 587:Drivers/CMSIS/Include/cmsis_gcc.h ****   \brief   Rotate Right with Extend (32 bit)
 588:Drivers/CMSIS/Include/cmsis_gcc.h ****   \details Moves each bit of a bitstring right by one bit.
 589:Drivers/CMSIS/Include/cmsis_gcc.h ****            The carry input is shifted in at the left end of the bitstring.
 590:Drivers/CMSIS/Include/cmsis_gcc.h ****   \param [in]    value  Value to rotate
 591:Drivers/CMSIS/Include/cmsis_gcc.h ****   \return               Rotated value
 592:Drivers/CMSIS/Include/cmsis_gcc.h ****  */
 593:Drivers/CMSIS/Include/cmsis_gcc.h **** __STATIC_FORCEINLINE uint32_t __RRX(uint32_t value)
 594:Drivers/CMSIS/Include/cmsis_gcc.h **** {
 595:Drivers/CMSIS/Include/cmsis_gcc.h ****   uint32_t result;
 596:Drivers/CMSIS/Include/cmsis_gcc.h **** 
 597:Drivers/CMSIS/Include/cmsis_gcc.h ****   __ASM volatile ("rrx %0, %1" : __CMSIS_GCC_OUT_REG (result) : __CMSIS_GCC_USE_REG (value) );
 598:Drivers/CMSIS/Include/cmsis_gcc.h ****   return(result);
 599:Drivers/CMSIS/Include/cmsis_gcc.h **** }
 600:Drivers/CMSIS/Include/cmsis_gcc.h **** 
 601:Drivers/CMSIS/Include/cmsis_gcc.h **** 
 602:Drivers/CMSIS/Include/cmsis_gcc.h **** /**
 603:Drivers/CMSIS/Include/cmsis_gcc.h ****   \brief   LDRT Unprivileged (8 bit)
 604:Drivers/CMSIS/Include/cmsis_gcc.h ****   \details Executes a Unprivileged LDRT instruction for 8 bit value.
 605:Drivers/CMSIS/Include/cmsis_gcc.h ****   \param [in]    ptr  Pointer to data
 606:Drivers/CMSIS/Include/cmsis_gcc.h ****   \return             value of type uint8_t at (*ptr)
 607:Drivers/CMSIS/Include/cmsis_gcc.h ****  */
 608:Drivers/CMSIS/Include/cmsis_gcc.h **** __STATIC_FORCEINLINE uint8_t __LDRBT(volatile uint8_t *ptr)
 609:Drivers/CMSIS/Include/cmsis_gcc.h **** {
 610:Drivers/CMSIS/Include/cmsis_gcc.h ****     uint32_t result;
ARM GAS  C:\Users\einom\AppData\Local\Temp\ccWbNOsJ.s 			page 23


 611:Drivers/CMSIS/Include/cmsis_gcc.h **** 
 612:Drivers/CMSIS/Include/cmsis_gcc.h **** #if (__GNUC__ > 4) || (__GNUC__ == 4 && __GNUC_MINOR__ >= 8)
 613:Drivers/CMSIS/Include/cmsis_gcc.h ****    __ASM volatile ("ldrbt %0, %1" : "=r" (result) : "Q" (*ptr) );
 614:Drivers/CMSIS/Include/cmsis_gcc.h **** #else
 615:Drivers/CMSIS/Include/cmsis_gcc.h ****     /* Prior to GCC 4.8, "Q" will be expanded to [rx, #0] which is not
 616:Drivers/CMSIS/Include/cmsis_gcc.h ****        accepted by assembler. So has to use following less efficient pattern.
 617:Drivers/CMSIS/Include/cmsis_gcc.h ****     */
 618:Drivers/CMSIS/Include/cmsis_gcc.h ****    __ASM volatile ("ldrbt %0, [%1]" : "=r" (result) : "r" (ptr) : "memory" );
 619:Drivers/CMSIS/Include/cmsis_gcc.h **** #endif
 620:Drivers/CMSIS/Include/cmsis_gcc.h ****    return ((uint8_t) result);    /* Add explicit type cast here */
 621:Drivers/CMSIS/Include/cmsis_gcc.h **** }
 622:Drivers/CMSIS/Include/cmsis_gcc.h **** 
 623:Drivers/CMSIS/Include/cmsis_gcc.h **** 
 624:Drivers/CMSIS/Include/cmsis_gcc.h **** /**
 625:Drivers/CMSIS/Include/cmsis_gcc.h ****   \brief   LDRT Unprivileged (16 bit)
 626:Drivers/CMSIS/Include/cmsis_gcc.h ****   \details Executes a Unprivileged LDRT instruction for 16 bit values.
 627:Drivers/CMSIS/Include/cmsis_gcc.h ****   \param [in]    ptr  Pointer to data
 628:Drivers/CMSIS/Include/cmsis_gcc.h ****   \return        value of type uint16_t at (*ptr)
 629:Drivers/CMSIS/Include/cmsis_gcc.h ****  */
 630:Drivers/CMSIS/Include/cmsis_gcc.h **** __STATIC_FORCEINLINE uint16_t __LDRHT(volatile uint16_t *ptr)
 631:Drivers/CMSIS/Include/cmsis_gcc.h **** {
 632:Drivers/CMSIS/Include/cmsis_gcc.h ****     uint32_t result;
 633:Drivers/CMSIS/Include/cmsis_gcc.h **** 
 634:Drivers/CMSIS/Include/cmsis_gcc.h **** #if (__GNUC__ > 4) || (__GNUC__ == 4 && __GNUC_MINOR__ >= 8)
 635:Drivers/CMSIS/Include/cmsis_gcc.h ****    __ASM volatile ("ldrht %0, %1" : "=r" (result) : "Q" (*ptr) );
 636:Drivers/CMSIS/Include/cmsis_gcc.h **** #else
 637:Drivers/CMSIS/Include/cmsis_gcc.h ****     /* Prior to GCC 4.8, "Q" will be expanded to [rx, #0] which is not
 638:Drivers/CMSIS/Include/cmsis_gcc.h ****        accepted by assembler. So has to use following less efficient pattern.
 639:Drivers/CMSIS/Include/cmsis_gcc.h ****     */
 640:Drivers/CMSIS/Include/cmsis_gcc.h ****    __ASM volatile ("ldrht %0, [%1]" : "=r" (result) : "r" (ptr) : "memory" );
 641:Drivers/CMSIS/Include/cmsis_gcc.h **** #endif
 642:Drivers/CMSIS/Include/cmsis_gcc.h ****    return ((uint16_t) result);    /* Add explicit type cast here */
 643:Drivers/CMSIS/Include/cmsis_gcc.h **** }
 644:Drivers/CMSIS/Include/cmsis_gcc.h **** 
 645:Drivers/CMSIS/Include/cmsis_gcc.h **** 
 646:Drivers/CMSIS/Include/cmsis_gcc.h **** /**
 647:Drivers/CMSIS/Include/cmsis_gcc.h ****   \brief   LDRT Unprivileged (32 bit)
 648:Drivers/CMSIS/Include/cmsis_gcc.h ****   \details Executes a Unprivileged LDRT instruction for 32 bit values.
 649:Drivers/CMSIS/Include/cmsis_gcc.h ****   \param [in]    ptr  Pointer to data
 650:Drivers/CMSIS/Include/cmsis_gcc.h ****   \return        value of type uint32_t at (*ptr)
 651:Drivers/CMSIS/Include/cmsis_gcc.h ****  */
 652:Drivers/CMSIS/Include/cmsis_gcc.h **** __STATIC_FORCEINLINE uint32_t __LDRT(volatile uint32_t *ptr)
 653:Drivers/CMSIS/Include/cmsis_gcc.h **** {
 654:Drivers/CMSIS/Include/cmsis_gcc.h ****     uint32_t result;
 655:Drivers/CMSIS/Include/cmsis_gcc.h **** 
 656:Drivers/CMSIS/Include/cmsis_gcc.h ****    __ASM volatile ("ldrt %0, %1" : "=r" (result) : "Q" (*ptr) );
 657:Drivers/CMSIS/Include/cmsis_gcc.h ****    return(result);
 658:Drivers/CMSIS/Include/cmsis_gcc.h **** }
 659:Drivers/CMSIS/Include/cmsis_gcc.h **** 
 660:Drivers/CMSIS/Include/cmsis_gcc.h **** 
 661:Drivers/CMSIS/Include/cmsis_gcc.h **** /**
 662:Drivers/CMSIS/Include/cmsis_gcc.h ****   \brief   STRT Unprivileged (8 bit)
 663:Drivers/CMSIS/Include/cmsis_gcc.h ****   \details Executes a Unprivileged STRT instruction for 8 bit values.
 664:Drivers/CMSIS/Include/cmsis_gcc.h ****   \param [in]  value  Value to store
 665:Drivers/CMSIS/Include/cmsis_gcc.h ****   \param [in]    ptr  Pointer to location
 666:Drivers/CMSIS/Include/cmsis_gcc.h ****  */
 667:Drivers/CMSIS/Include/cmsis_gcc.h **** __STATIC_FORCEINLINE void __STRBT(uint8_t value, volatile uint8_t *ptr)
ARM GAS  C:\Users\einom\AppData\Local\Temp\ccWbNOsJ.s 			page 24


 668:Drivers/CMSIS/Include/cmsis_gcc.h **** {
 669:Drivers/CMSIS/Include/cmsis_gcc.h ****    __ASM volatile ("strbt %1, %0" : "=Q" (*ptr) : "r" ((uint32_t)value) );
 670:Drivers/CMSIS/Include/cmsis_gcc.h **** }
 671:Drivers/CMSIS/Include/cmsis_gcc.h **** 
 672:Drivers/CMSIS/Include/cmsis_gcc.h **** 
 673:Drivers/CMSIS/Include/cmsis_gcc.h **** /**
 674:Drivers/CMSIS/Include/cmsis_gcc.h ****   \brief   STRT Unprivileged (16 bit)
 675:Drivers/CMSIS/Include/cmsis_gcc.h ****   \details Executes a Unprivileged STRT instruction for 16 bit values.
 676:Drivers/CMSIS/Include/cmsis_gcc.h ****   \param [in]  value  Value to store
 677:Drivers/CMSIS/Include/cmsis_gcc.h ****   \param [in]    ptr  Pointer to location
 678:Drivers/CMSIS/Include/cmsis_gcc.h ****  */
 679:Drivers/CMSIS/Include/cmsis_gcc.h **** __STATIC_FORCEINLINE void __STRHT(uint16_t value, volatile uint16_t *ptr)
 680:Drivers/CMSIS/Include/cmsis_gcc.h **** {
 681:Drivers/CMSIS/Include/cmsis_gcc.h ****    __ASM volatile ("strht %1, %0" : "=Q" (*ptr) : "r" ((uint32_t)value) );
 682:Drivers/CMSIS/Include/cmsis_gcc.h **** }
 683:Drivers/CMSIS/Include/cmsis_gcc.h **** 
 684:Drivers/CMSIS/Include/cmsis_gcc.h **** 
 685:Drivers/CMSIS/Include/cmsis_gcc.h **** /**
 686:Drivers/CMSIS/Include/cmsis_gcc.h ****   \brief   STRT Unprivileged (32 bit)
 687:Drivers/CMSIS/Include/cmsis_gcc.h ****   \details Executes a Unprivileged STRT instruction for 32 bit values.
 688:Drivers/CMSIS/Include/cmsis_gcc.h ****   \param [in]  value  Value to store
 689:Drivers/CMSIS/Include/cmsis_gcc.h ****   \param [in]    ptr  Pointer to location
 690:Drivers/CMSIS/Include/cmsis_gcc.h ****  */
 691:Drivers/CMSIS/Include/cmsis_gcc.h **** __STATIC_FORCEINLINE void __STRT(uint32_t value, volatile uint32_t *ptr)
 692:Drivers/CMSIS/Include/cmsis_gcc.h **** {
 693:Drivers/CMSIS/Include/cmsis_gcc.h ****    __ASM volatile ("strt %1, %0" : "=Q" (*ptr) : "r" (value) );
 694:Drivers/CMSIS/Include/cmsis_gcc.h **** }
 695:Drivers/CMSIS/Include/cmsis_gcc.h **** 
 696:Drivers/CMSIS/Include/cmsis_gcc.h **** #else  /* ((defined (__ARM_ARCH_7M__      ) && (__ARM_ARCH_7M__      == 1)) || \
 697:Drivers/CMSIS/Include/cmsis_gcc.h ****            (defined (__ARM_ARCH_7EM__     ) && (__ARM_ARCH_7EM__     == 1)) || \
 698:Drivers/CMSIS/Include/cmsis_gcc.h ****            (defined (__ARM_ARCH_8M_MAIN__ ) && (__ARM_ARCH_8M_MAIN__ == 1))    ) */
 699:Drivers/CMSIS/Include/cmsis_gcc.h **** 
 700:Drivers/CMSIS/Include/cmsis_gcc.h **** /**
 701:Drivers/CMSIS/Include/cmsis_gcc.h ****   \brief   Signed Saturate
 702:Drivers/CMSIS/Include/cmsis_gcc.h ****   \details Saturates a signed value.
 703:Drivers/CMSIS/Include/cmsis_gcc.h ****   \param [in]  value  Value to be saturated
 704:Drivers/CMSIS/Include/cmsis_gcc.h ****   \param [in]    sat  Bit position to saturate to (1..32)
 705:Drivers/CMSIS/Include/cmsis_gcc.h ****   \return             Saturated value
 706:Drivers/CMSIS/Include/cmsis_gcc.h ****  */
 707:Drivers/CMSIS/Include/cmsis_gcc.h **** __STATIC_FORCEINLINE int32_t __SSAT(int32_t val, uint32_t sat)
 708:Drivers/CMSIS/Include/cmsis_gcc.h **** {
 709:Drivers/CMSIS/Include/cmsis_gcc.h ****   if ((sat >= 1U) && (sat <= 32U))
 710:Drivers/CMSIS/Include/cmsis_gcc.h ****   {
 711:Drivers/CMSIS/Include/cmsis_gcc.h ****     const int32_t max = (int32_t)((1U << (sat - 1U)) - 1U);
 712:Drivers/CMSIS/Include/cmsis_gcc.h ****     const int32_t min = -1 - max ;
 713:Drivers/CMSIS/Include/cmsis_gcc.h ****     if (val > max)
 714:Drivers/CMSIS/Include/cmsis_gcc.h ****     {
 715:Drivers/CMSIS/Include/cmsis_gcc.h ****       return max;
 716:Drivers/CMSIS/Include/cmsis_gcc.h ****     }
 717:Drivers/CMSIS/Include/cmsis_gcc.h ****     else if (val < min)
 718:Drivers/CMSIS/Include/cmsis_gcc.h ****     {
 719:Drivers/CMSIS/Include/cmsis_gcc.h ****       return min;
 720:Drivers/CMSIS/Include/cmsis_gcc.h ****     }
 721:Drivers/CMSIS/Include/cmsis_gcc.h ****   }
 722:Drivers/CMSIS/Include/cmsis_gcc.h ****   return val;
 723:Drivers/CMSIS/Include/cmsis_gcc.h **** }
 724:Drivers/CMSIS/Include/cmsis_gcc.h **** 
ARM GAS  C:\Users\einom\AppData\Local\Temp\ccWbNOsJ.s 			page 25


 725:Drivers/CMSIS/Include/cmsis_gcc.h **** /**
 726:Drivers/CMSIS/Include/cmsis_gcc.h ****   \brief   Unsigned Saturate
 727:Drivers/CMSIS/Include/cmsis_gcc.h ****   \details Saturates an unsigned value.
 728:Drivers/CMSIS/Include/cmsis_gcc.h ****   \param [in]  value  Value to be saturated
 729:Drivers/CMSIS/Include/cmsis_gcc.h ****   \param [in]    sat  Bit position to saturate to (0..31)
 730:Drivers/CMSIS/Include/cmsis_gcc.h ****   \return             Saturated value
 731:Drivers/CMSIS/Include/cmsis_gcc.h ****  */
 732:Drivers/CMSIS/Include/cmsis_gcc.h **** __STATIC_FORCEINLINE uint32_t __USAT(int32_t val, uint32_t sat)
 733:Drivers/CMSIS/Include/cmsis_gcc.h **** {
 734:Drivers/CMSIS/Include/cmsis_gcc.h ****   if (sat <= 31U)
 735:Drivers/CMSIS/Include/cmsis_gcc.h ****   {
 736:Drivers/CMSIS/Include/cmsis_gcc.h ****     const uint32_t max = ((1U << sat) - 1U);
 737:Drivers/CMSIS/Include/cmsis_gcc.h ****     if (val > (int32_t)max)
 738:Drivers/CMSIS/Include/cmsis_gcc.h ****     {
 739:Drivers/CMSIS/Include/cmsis_gcc.h ****       return max;
 740:Drivers/CMSIS/Include/cmsis_gcc.h ****     }
 741:Drivers/CMSIS/Include/cmsis_gcc.h ****     else if (val < 0)
 742:Drivers/CMSIS/Include/cmsis_gcc.h ****     {
 743:Drivers/CMSIS/Include/cmsis_gcc.h ****       return 0U;
 744:Drivers/CMSIS/Include/cmsis_gcc.h ****     }
 745:Drivers/CMSIS/Include/cmsis_gcc.h ****   }
 746:Drivers/CMSIS/Include/cmsis_gcc.h ****   return (uint32_t)val;
 747:Drivers/CMSIS/Include/cmsis_gcc.h **** }
 748:Drivers/CMSIS/Include/cmsis_gcc.h **** 
 749:Drivers/CMSIS/Include/cmsis_gcc.h **** #endif /* ((defined (__ARM_ARCH_7M__      ) && (__ARM_ARCH_7M__      == 1)) || \
 750:Drivers/CMSIS/Include/cmsis_gcc.h ****            (defined (__ARM_ARCH_7EM__     ) && (__ARM_ARCH_7EM__     == 1)) || \
 751:Drivers/CMSIS/Include/cmsis_gcc.h ****            (defined (__ARM_ARCH_8M_MAIN__ ) && (__ARM_ARCH_8M_MAIN__ == 1))    ) */
 752:Drivers/CMSIS/Include/cmsis_gcc.h **** 
 753:Drivers/CMSIS/Include/cmsis_gcc.h **** 
 754:Drivers/CMSIS/Include/cmsis_gcc.h **** #if ((defined (__ARM_ARCH_8M_MAIN__ ) && (__ARM_ARCH_8M_MAIN__ == 1)) || \
 755:Drivers/CMSIS/Include/cmsis_gcc.h ****      (defined (__ARM_ARCH_8M_BASE__ ) && (__ARM_ARCH_8M_BASE__ == 1))    )
 756:Drivers/CMSIS/Include/cmsis_gcc.h **** /**
 757:Drivers/CMSIS/Include/cmsis_gcc.h ****   \brief   Load-Acquire (8 bit)
 758:Drivers/CMSIS/Include/cmsis_gcc.h ****   \details Executes a LDAB instruction for 8 bit value.
 759:Drivers/CMSIS/Include/cmsis_gcc.h ****   \param [in]    ptr  Pointer to data
 760:Drivers/CMSIS/Include/cmsis_gcc.h ****   \return             value of type uint8_t at (*ptr)
 761:Drivers/CMSIS/Include/cmsis_gcc.h ****  */
 762:Drivers/CMSIS/Include/cmsis_gcc.h **** __STATIC_FORCEINLINE uint8_t __LDAB(volatile uint8_t *ptr)
 763:Drivers/CMSIS/Include/cmsis_gcc.h **** {
 764:Drivers/CMSIS/Include/cmsis_gcc.h ****     uint32_t result;
 765:Drivers/CMSIS/Include/cmsis_gcc.h **** 
 766:Drivers/CMSIS/Include/cmsis_gcc.h ****    __ASM volatile ("ldab %0, %1" : "=r" (result) : "Q" (*ptr) : "memory" );
 767:Drivers/CMSIS/Include/cmsis_gcc.h ****    return ((uint8_t) result);
 768:Drivers/CMSIS/Include/cmsis_gcc.h **** }
 769:Drivers/CMSIS/Include/cmsis_gcc.h **** 
 770:Drivers/CMSIS/Include/cmsis_gcc.h **** 
 771:Drivers/CMSIS/Include/cmsis_gcc.h **** /**
 772:Drivers/CMSIS/Include/cmsis_gcc.h ****   \brief   Load-Acquire (16 bit)
 773:Drivers/CMSIS/Include/cmsis_gcc.h ****   \details Executes a LDAH instruction for 16 bit values.
 774:Drivers/CMSIS/Include/cmsis_gcc.h ****   \param [in]    ptr  Pointer to data
 775:Drivers/CMSIS/Include/cmsis_gcc.h ****   \return        value of type uint16_t at (*ptr)
 776:Drivers/CMSIS/Include/cmsis_gcc.h ****  */
 777:Drivers/CMSIS/Include/cmsis_gcc.h **** __STATIC_FORCEINLINE uint16_t __LDAH(volatile uint16_t *ptr)
 778:Drivers/CMSIS/Include/cmsis_gcc.h **** {
 779:Drivers/CMSIS/Include/cmsis_gcc.h ****     uint32_t result;
 780:Drivers/CMSIS/Include/cmsis_gcc.h **** 
 781:Drivers/CMSIS/Include/cmsis_gcc.h ****    __ASM volatile ("ldah %0, %1" : "=r" (result) : "Q" (*ptr) : "memory" );
ARM GAS  C:\Users\einom\AppData\Local\Temp\ccWbNOsJ.s 			page 26


 782:Drivers/CMSIS/Include/cmsis_gcc.h ****    return ((uint16_t) result);
 783:Drivers/CMSIS/Include/cmsis_gcc.h **** }
 784:Drivers/CMSIS/Include/cmsis_gcc.h **** 
 785:Drivers/CMSIS/Include/cmsis_gcc.h **** 
 786:Drivers/CMSIS/Include/cmsis_gcc.h **** /**
 787:Drivers/CMSIS/Include/cmsis_gcc.h ****   \brief   Load-Acquire (32 bit)
 788:Drivers/CMSIS/Include/cmsis_gcc.h ****   \details Executes a LDA instruction for 32 bit values.
 789:Drivers/CMSIS/Include/cmsis_gcc.h ****   \param [in]    ptr  Pointer to data
 790:Drivers/CMSIS/Include/cmsis_gcc.h ****   \return        value of type uint32_t at (*ptr)
 791:Drivers/CMSIS/Include/cmsis_gcc.h ****  */
 792:Drivers/CMSIS/Include/cmsis_gcc.h **** __STATIC_FORCEINLINE uint32_t __LDA(volatile uint32_t *ptr)
 793:Drivers/CMSIS/Include/cmsis_gcc.h **** {
 794:Drivers/CMSIS/Include/cmsis_gcc.h ****     uint32_t result;
 795:Drivers/CMSIS/Include/cmsis_gcc.h **** 
 796:Drivers/CMSIS/Include/cmsis_gcc.h ****    __ASM volatile ("lda %0, %1" : "=r" (result) : "Q" (*ptr) : "memory" );
 797:Drivers/CMSIS/Include/cmsis_gcc.h ****    return(result);
 798:Drivers/CMSIS/Include/cmsis_gcc.h **** }
 799:Drivers/CMSIS/Include/cmsis_gcc.h **** 
 800:Drivers/CMSIS/Include/cmsis_gcc.h **** 
 801:Drivers/CMSIS/Include/cmsis_gcc.h **** /**
 802:Drivers/CMSIS/Include/cmsis_gcc.h ****   \brief   Store-Release (8 bit)
 803:Drivers/CMSIS/Include/cmsis_gcc.h ****   \details Executes a STLB instruction for 8 bit values.
 804:Drivers/CMSIS/Include/cmsis_gcc.h ****   \param [in]  value  Value to store
 805:Drivers/CMSIS/Include/cmsis_gcc.h ****   \param [in]    ptr  Pointer to location
 806:Drivers/CMSIS/Include/cmsis_gcc.h ****  */
 807:Drivers/CMSIS/Include/cmsis_gcc.h **** __STATIC_FORCEINLINE void __STLB(uint8_t value, volatile uint8_t *ptr)
 808:Drivers/CMSIS/Include/cmsis_gcc.h **** {
 809:Drivers/CMSIS/Include/cmsis_gcc.h ****    __ASM volatile ("stlb %1, %0" : "=Q" (*ptr) : "r" ((uint32_t)value) : "memory" );
 810:Drivers/CMSIS/Include/cmsis_gcc.h **** }
 811:Drivers/CMSIS/Include/cmsis_gcc.h **** 
 812:Drivers/CMSIS/Include/cmsis_gcc.h **** 
 813:Drivers/CMSIS/Include/cmsis_gcc.h **** /**
 814:Drivers/CMSIS/Include/cmsis_gcc.h ****   \brief   Store-Release (16 bit)
 815:Drivers/CMSIS/Include/cmsis_gcc.h ****   \details Executes a STLH instruction for 16 bit values.
 816:Drivers/CMSIS/Include/cmsis_gcc.h ****   \param [in]  value  Value to store
 817:Drivers/CMSIS/Include/cmsis_gcc.h ****   \param [in]    ptr  Pointer to location
 818:Drivers/CMSIS/Include/cmsis_gcc.h ****  */
 819:Drivers/CMSIS/Include/cmsis_gcc.h **** __STATIC_FORCEINLINE void __STLH(uint16_t value, volatile uint16_t *ptr)
 820:Drivers/CMSIS/Include/cmsis_gcc.h **** {
 821:Drivers/CMSIS/Include/cmsis_gcc.h ****    __ASM volatile ("stlh %1, %0" : "=Q" (*ptr) : "r" ((uint32_t)value) : "memory" );
 822:Drivers/CMSIS/Include/cmsis_gcc.h **** }
 823:Drivers/CMSIS/Include/cmsis_gcc.h **** 
 824:Drivers/CMSIS/Include/cmsis_gcc.h **** 
 825:Drivers/CMSIS/Include/cmsis_gcc.h **** /**
 826:Drivers/CMSIS/Include/cmsis_gcc.h ****   \brief   Store-Release (32 bit)
 827:Drivers/CMSIS/Include/cmsis_gcc.h ****   \details Executes a STL instruction for 32 bit values.
 828:Drivers/CMSIS/Include/cmsis_gcc.h ****   \param [in]  value  Value to store
 829:Drivers/CMSIS/Include/cmsis_gcc.h ****   \param [in]    ptr  Pointer to location
 830:Drivers/CMSIS/Include/cmsis_gcc.h ****  */
 831:Drivers/CMSIS/Include/cmsis_gcc.h **** __STATIC_FORCEINLINE void __STL(uint32_t value, volatile uint32_t *ptr)
 832:Drivers/CMSIS/Include/cmsis_gcc.h **** {
 833:Drivers/CMSIS/Include/cmsis_gcc.h ****    __ASM volatile ("stl %1, %0" : "=Q" (*ptr) : "r" ((uint32_t)value) : "memory" );
 834:Drivers/CMSIS/Include/cmsis_gcc.h **** }
 835:Drivers/CMSIS/Include/cmsis_gcc.h **** 
 836:Drivers/CMSIS/Include/cmsis_gcc.h **** 
 837:Drivers/CMSIS/Include/cmsis_gcc.h **** /**
 838:Drivers/CMSIS/Include/cmsis_gcc.h ****   \brief   Load-Acquire Exclusive (8 bit)
ARM GAS  C:\Users\einom\AppData\Local\Temp\ccWbNOsJ.s 			page 27


 839:Drivers/CMSIS/Include/cmsis_gcc.h ****   \details Executes a LDAB exclusive instruction for 8 bit value.
 840:Drivers/CMSIS/Include/cmsis_gcc.h ****   \param [in]    ptr  Pointer to data
 841:Drivers/CMSIS/Include/cmsis_gcc.h ****   \return             value of type uint8_t at (*ptr)
 842:Drivers/CMSIS/Include/cmsis_gcc.h ****  */
 843:Drivers/CMSIS/Include/cmsis_gcc.h **** __STATIC_FORCEINLINE uint8_t __LDAEXB(volatile uint8_t *ptr)
 844:Drivers/CMSIS/Include/cmsis_gcc.h **** {
 845:Drivers/CMSIS/Include/cmsis_gcc.h ****     uint32_t result;
 846:Drivers/CMSIS/Include/cmsis_gcc.h **** 
 847:Drivers/CMSIS/Include/cmsis_gcc.h ****    __ASM volatile ("ldaexb %0, %1" : "=r" (result) : "Q" (*ptr) : "memory" );
 848:Drivers/CMSIS/Include/cmsis_gcc.h ****    return ((uint8_t) result);
 849:Drivers/CMSIS/Include/cmsis_gcc.h **** }
 850:Drivers/CMSIS/Include/cmsis_gcc.h **** 
 851:Drivers/CMSIS/Include/cmsis_gcc.h **** 
 852:Drivers/CMSIS/Include/cmsis_gcc.h **** /**
 853:Drivers/CMSIS/Include/cmsis_gcc.h ****   \brief   Load-Acquire Exclusive (16 bit)
 854:Drivers/CMSIS/Include/cmsis_gcc.h ****   \details Executes a LDAH exclusive instruction for 16 bit values.
 855:Drivers/CMSIS/Include/cmsis_gcc.h ****   \param [in]    ptr  Pointer to data
 856:Drivers/CMSIS/Include/cmsis_gcc.h ****   \return        value of type uint16_t at (*ptr)
 857:Drivers/CMSIS/Include/cmsis_gcc.h ****  */
 858:Drivers/CMSIS/Include/cmsis_gcc.h **** __STATIC_FORCEINLINE uint16_t __LDAEXH(volatile uint16_t *ptr)
 859:Drivers/CMSIS/Include/cmsis_gcc.h **** {
 860:Drivers/CMSIS/Include/cmsis_gcc.h ****     uint32_t result;
 861:Drivers/CMSIS/Include/cmsis_gcc.h **** 
 862:Drivers/CMSIS/Include/cmsis_gcc.h ****    __ASM volatile ("ldaexh %0, %1" : "=r" (result) : "Q" (*ptr) : "memory" );
 863:Drivers/CMSIS/Include/cmsis_gcc.h ****    return ((uint16_t) result);
 864:Drivers/CMSIS/Include/cmsis_gcc.h **** }
 865:Drivers/CMSIS/Include/cmsis_gcc.h **** 
 866:Drivers/CMSIS/Include/cmsis_gcc.h **** 
 867:Drivers/CMSIS/Include/cmsis_gcc.h **** /**
 868:Drivers/CMSIS/Include/cmsis_gcc.h ****   \brief   Load-Acquire Exclusive (32 bit)
 869:Drivers/CMSIS/Include/cmsis_gcc.h ****   \details Executes a LDA exclusive instruction for 32 bit values.
 870:Drivers/CMSIS/Include/cmsis_gcc.h ****   \param [in]    ptr  Pointer to data
 871:Drivers/CMSIS/Include/cmsis_gcc.h ****   \return        value of type uint32_t at (*ptr)
 872:Drivers/CMSIS/Include/cmsis_gcc.h ****  */
 873:Drivers/CMSIS/Include/cmsis_gcc.h **** __STATIC_FORCEINLINE uint32_t __LDAEX(volatile uint32_t *ptr)
 874:Drivers/CMSIS/Include/cmsis_gcc.h **** {
 875:Drivers/CMSIS/Include/cmsis_gcc.h ****     uint32_t result;
 876:Drivers/CMSIS/Include/cmsis_gcc.h **** 
 877:Drivers/CMSIS/Include/cmsis_gcc.h ****    __ASM volatile ("ldaex %0, %1" : "=r" (result) : "Q" (*ptr) : "memory" );
 878:Drivers/CMSIS/Include/cmsis_gcc.h ****    return(result);
 879:Drivers/CMSIS/Include/cmsis_gcc.h **** }
 880:Drivers/CMSIS/Include/cmsis_gcc.h **** 
 881:Drivers/CMSIS/Include/cmsis_gcc.h **** 
 882:Drivers/CMSIS/Include/cmsis_gcc.h **** /**
 883:Drivers/CMSIS/Include/cmsis_gcc.h ****   \brief   Store-Release Exclusive (8 bit)
 884:Drivers/CMSIS/Include/cmsis_gcc.h ****   \details Executes a STLB exclusive instruction for 8 bit values.
 885:Drivers/CMSIS/Include/cmsis_gcc.h ****   \param [in]  value  Value to store
 886:Drivers/CMSIS/Include/cmsis_gcc.h ****   \param [in]    ptr  Pointer to location
 887:Drivers/CMSIS/Include/cmsis_gcc.h ****   \return          0  Function succeeded
 888:Drivers/CMSIS/Include/cmsis_gcc.h ****   \return          1  Function failed
 889:Drivers/CMSIS/Include/cmsis_gcc.h ****  */
 890:Drivers/CMSIS/Include/cmsis_gcc.h **** __STATIC_FORCEINLINE uint32_t __STLEXB(uint8_t value, volatile uint8_t *ptr)
 891:Drivers/CMSIS/Include/cmsis_gcc.h **** {
 892:Drivers/CMSIS/Include/cmsis_gcc.h ****    uint32_t result;
 893:Drivers/CMSIS/Include/cmsis_gcc.h **** 
 894:Drivers/CMSIS/Include/cmsis_gcc.h ****    __ASM volatile ("stlexb %0, %2, %1" : "=&r" (result), "=Q" (*ptr) : "r" ((uint32_t)value) : "mem
 895:Drivers/CMSIS/Include/cmsis_gcc.h ****    return(result);
ARM GAS  C:\Users\einom\AppData\Local\Temp\ccWbNOsJ.s 			page 28


 896:Drivers/CMSIS/Include/cmsis_gcc.h **** }
 897:Drivers/CMSIS/Include/cmsis_gcc.h **** 
 898:Drivers/CMSIS/Include/cmsis_gcc.h **** 
 899:Drivers/CMSIS/Include/cmsis_gcc.h **** /**
 900:Drivers/CMSIS/Include/cmsis_gcc.h ****   \brief   Store-Release Exclusive (16 bit)
 901:Drivers/CMSIS/Include/cmsis_gcc.h ****   \details Executes a STLH exclusive instruction for 16 bit values.
 902:Drivers/CMSIS/Include/cmsis_gcc.h ****   \param [in]  value  Value to store
 903:Drivers/CMSIS/Include/cmsis_gcc.h ****   \param [in]    ptr  Pointer to location
 904:Drivers/CMSIS/Include/cmsis_gcc.h ****   \return          0  Function succeeded
 905:Drivers/CMSIS/Include/cmsis_gcc.h ****   \return          1  Function failed
 906:Drivers/CMSIS/Include/cmsis_gcc.h ****  */
 907:Drivers/CMSIS/Include/cmsis_gcc.h **** __STATIC_FORCEINLINE uint32_t __STLEXH(uint16_t value, volatile uint16_t *ptr)
 908:Drivers/CMSIS/Include/cmsis_gcc.h **** {
 909:Drivers/CMSIS/Include/cmsis_gcc.h ****    uint32_t result;
 910:Drivers/CMSIS/Include/cmsis_gcc.h **** 
 911:Drivers/CMSIS/Include/cmsis_gcc.h ****    __ASM volatile ("stlexh %0, %2, %1" : "=&r" (result), "=Q" (*ptr) : "r" ((uint32_t)value) : "mem
 912:Drivers/CMSIS/Include/cmsis_gcc.h ****    return(result);
 913:Drivers/CMSIS/Include/cmsis_gcc.h **** }
 914:Drivers/CMSIS/Include/cmsis_gcc.h **** 
 915:Drivers/CMSIS/Include/cmsis_gcc.h **** 
 916:Drivers/CMSIS/Include/cmsis_gcc.h **** /**
 917:Drivers/CMSIS/Include/cmsis_gcc.h ****   \brief   Store-Release Exclusive (32 bit)
 918:Drivers/CMSIS/Include/cmsis_gcc.h ****   \details Executes a STL exclusive instruction for 32 bit values.
 919:Drivers/CMSIS/Include/cmsis_gcc.h ****   \param [in]  value  Value to store
 920:Drivers/CMSIS/Include/cmsis_gcc.h ****   \param [in]    ptr  Pointer to location
 921:Drivers/CMSIS/Include/cmsis_gcc.h ****   \return          0  Function succeeded
 922:Drivers/CMSIS/Include/cmsis_gcc.h ****   \return          1  Function failed
 923:Drivers/CMSIS/Include/cmsis_gcc.h ****  */
 924:Drivers/CMSIS/Include/cmsis_gcc.h **** __STATIC_FORCEINLINE uint32_t __STLEX(uint32_t value, volatile uint32_t *ptr)
 925:Drivers/CMSIS/Include/cmsis_gcc.h **** {
 926:Drivers/CMSIS/Include/cmsis_gcc.h ****    uint32_t result;
 927:Drivers/CMSIS/Include/cmsis_gcc.h **** 
 928:Drivers/CMSIS/Include/cmsis_gcc.h ****    __ASM volatile ("stlex %0, %2, %1" : "=&r" (result), "=Q" (*ptr) : "r" ((uint32_t)value) : "memo
 929:Drivers/CMSIS/Include/cmsis_gcc.h ****    return(result);
 930:Drivers/CMSIS/Include/cmsis_gcc.h **** }
 931:Drivers/CMSIS/Include/cmsis_gcc.h **** 
 932:Drivers/CMSIS/Include/cmsis_gcc.h **** #endif /* ((defined (__ARM_ARCH_8M_MAIN__ ) && (__ARM_ARCH_8M_MAIN__ == 1)) || \
 933:Drivers/CMSIS/Include/cmsis_gcc.h ****            (defined (__ARM_ARCH_8M_BASE__ ) && (__ARM_ARCH_8M_BASE__ == 1))    ) */
 934:Drivers/CMSIS/Include/cmsis_gcc.h **** 
 935:Drivers/CMSIS/Include/cmsis_gcc.h **** /*@}*/ /* end of group CMSIS_Core_InstructionInterface */
 936:Drivers/CMSIS/Include/cmsis_gcc.h **** 
 937:Drivers/CMSIS/Include/cmsis_gcc.h **** 
 938:Drivers/CMSIS/Include/cmsis_gcc.h **** /* ###########################  Core Function Access  ########################### */
 939:Drivers/CMSIS/Include/cmsis_gcc.h **** /** \ingroup  CMSIS_Core_FunctionInterface
 940:Drivers/CMSIS/Include/cmsis_gcc.h ****     \defgroup CMSIS_Core_RegAccFunctions CMSIS Core Register Access Functions
 941:Drivers/CMSIS/Include/cmsis_gcc.h ****   @{
 942:Drivers/CMSIS/Include/cmsis_gcc.h ****  */
 943:Drivers/CMSIS/Include/cmsis_gcc.h **** 
 944:Drivers/CMSIS/Include/cmsis_gcc.h **** /**
 945:Drivers/CMSIS/Include/cmsis_gcc.h ****   \brief   Enable IRQ Interrupts
 946:Drivers/CMSIS/Include/cmsis_gcc.h ****   \details Enables IRQ interrupts by clearing special-purpose register PRIMASK.
 947:Drivers/CMSIS/Include/cmsis_gcc.h ****            Can only be executed in Privileged modes.
 948:Drivers/CMSIS/Include/cmsis_gcc.h ****  */
 949:Drivers/CMSIS/Include/cmsis_gcc.h **** __STATIC_FORCEINLINE void __enable_irq(void)
 950:Drivers/CMSIS/Include/cmsis_gcc.h **** {
 951:Drivers/CMSIS/Include/cmsis_gcc.h ****   __ASM volatile ("cpsie i" : : : "memory");
 952:Drivers/CMSIS/Include/cmsis_gcc.h **** }
ARM GAS  C:\Users\einom\AppData\Local\Temp\ccWbNOsJ.s 			page 29


 953:Drivers/CMSIS/Include/cmsis_gcc.h **** 
 954:Drivers/CMSIS/Include/cmsis_gcc.h **** 
 955:Drivers/CMSIS/Include/cmsis_gcc.h **** /**
 956:Drivers/CMSIS/Include/cmsis_gcc.h ****   \brief   Disable IRQ Interrupts
 957:Drivers/CMSIS/Include/cmsis_gcc.h ****   \details Disables IRQ interrupts by setting special-purpose register PRIMASK.
 958:Drivers/CMSIS/Include/cmsis_gcc.h ****            Can only be executed in Privileged modes.
 959:Drivers/CMSIS/Include/cmsis_gcc.h ****  */
 960:Drivers/CMSIS/Include/cmsis_gcc.h **** __STATIC_FORCEINLINE void __disable_irq(void)
 155              		.loc 2 960 27 view .LVU51
 156              	.LBB51:
 961:Drivers/CMSIS/Include/cmsis_gcc.h **** {
 962:Drivers/CMSIS/Include/cmsis_gcc.h ****   __ASM volatile ("cpsid i" : : : "memory");
 157              		.loc 2 962 3 view .LVU52
 158              		.syntax unified
 159              	@ 962 "Drivers/CMSIS/Include/cmsis_gcc.h" 1
 160 0076 72B6     		cpsid i
 161              	@ 0 "" 2
 162              		.thumb
 163              		.syntax unified
 164              	.L3:
 165              	.LBE51:
 166              	.LBE50:
 468:Core/Src/main.c ****   while (1)
 167              		.loc 1 468 3 view .LVU53
 469:Core/Src/main.c ****   {
 470:Core/Src/main.c ****   }
 168              		.loc 1 470 3 view .LVU54
 468:Core/Src/main.c ****   while (1)
 169              		.loc 1 468 9 view .LVU55
 468:Core/Src/main.c ****   while (1)
 170              		.loc 1 468 3 view .LVU56
 171              		.loc 1 470 3 view .LVU57
 468:Core/Src/main.c ****   while (1)
 172              		.loc 1 468 9 view .LVU58
 173 0078 FEE7     		b	.L3
 174              	.L2:
 175              	.LBE49:
 311:Core/Src/main.c ****                               |RCC_CLOCKTYPE_PCLK1|RCC_CLOCKTYPE_PCLK2;
 176              		.loc 1 311 3 view .LVU59
 177 007a 0346     		mov	r3, r0
 315:Core/Src/main.c ****   RCC_ClkInitStruct.APB2CLKDivider = RCC_HCLK_DIV2;
 178              		.loc 1 315 36 is_stmt 0 view .LVU60
 179 007c 4FF4A056 		mov	r6, #5120
 316:Core/Src/main.c **** 
 180              		.loc 1 316 36 view .LVU61
 181 0080 4FF48052 		mov	r2, #4096
 318:Core/Src/main.c ****   {
 182              		.loc 1 318 7 view .LVU62
 183 0084 03A8     		add	r0, sp, #12
 184 0086 0321     		movs	r1, #3
 313:Core/Src/main.c ****   RCC_ClkInitStruct.AHBCLKDivider = RCC_SYSCLK_DIV1;
 185              		.loc 1 313 34 view .LVU63
 186 0088 CDE90354 		strd	r5, r4, [sp, #12]
 314:Core/Src/main.c ****   RCC_ClkInitStruct.APB1CLKDivider = RCC_HCLK_DIV4;
 187              		.loc 1 314 3 is_stmt 1 view .LVU64
 315:Core/Src/main.c ****   RCC_ClkInitStruct.APB2CLKDivider = RCC_HCLK_DIV2;
 188              		.loc 1 315 36 is_stmt 0 view .LVU65
ARM GAS  C:\Users\einom\AppData\Local\Temp\ccWbNOsJ.s 			page 30


 189 008c CDE90536 		strd	r3, r6, [sp, #20]
 316:Core/Src/main.c **** 
 190              		.loc 1 316 3 is_stmt 1 view .LVU66
 316:Core/Src/main.c **** 
 191              		.loc 1 316 36 is_stmt 0 view .LVU67
 192 0090 0792     		str	r2, [sp, #28]
 318:Core/Src/main.c ****   {
 193              		.loc 1 318 3 is_stmt 1 view .LVU68
 318:Core/Src/main.c ****   {
 194              		.loc 1 318 7 is_stmt 0 view .LVU69
 195 0092 FFF7FEFF 		bl	HAL_RCC_ClockConfig
 196              	.LVL1:
 318:Core/Src/main.c ****   {
 197              		.loc 1 318 6 discriminator 1 view .LVU70
 198 0096 08B1     		cbz	r0, .L1
 320:Core/Src/main.c ****   }
 199              		.loc 1 320 5 is_stmt 1 view .LVU71
 200              	.LBB52:
 201              	.LBI52:
 463:Core/Src/main.c **** {
 202              		.loc 1 463 6 view .LVU72
 467:Core/Src/main.c ****   while (1)
 203              		.loc 1 467 3 view .LVU73
 204              	.LBB53:
 205              	.LBI53:
 960:Drivers/CMSIS/Include/cmsis_gcc.h **** {
 206              		.loc 2 960 27 view .LVU74
 207              	.LBB54:
 208              		.loc 2 962 3 view .LVU75
 209              		.syntax unified
 210              	@ 962 "Drivers/CMSIS/Include/cmsis_gcc.h" 1
 211 0098 72B6     		cpsid i
 212              	@ 0 "" 2
 213              		.thumb
 214              		.syntax unified
 215              	.L5:
 216              	.LBE54:
 217              	.LBE53:
 468:Core/Src/main.c ****   {
 218              		.loc 1 468 3 view .LVU76
 219              		.loc 1 470 3 view .LVU77
 468:Core/Src/main.c ****   {
 220              		.loc 1 468 9 view .LVU78
 468:Core/Src/main.c ****   {
 221              		.loc 1 468 3 view .LVU79
 222              		.loc 1 470 3 view .LVU80
 468:Core/Src/main.c ****   {
 223              		.loc 1 468 9 view .LVU81
 224 009a FEE7     		b	.L5
 225              	.L1:
 226              	.LBE52:
 322:Core/Src/main.c **** 
 227              		.loc 1 322 1 is_stmt 0 view .LVU82
 228 009c 16B0     		add	sp, sp, #88
 229              	.LCFI2:
 230              		.cfi_def_cfa_offset 16
 231              		@ sp needed
ARM GAS  C:\Users\einom\AppData\Local\Temp\ccWbNOsJ.s 			page 31


 232 009e 70BD     		pop	{r4, r5, r6, pc}
 233              	.L9:
 234              		.align	2
 235              	.L8:
 236 00a0 00380240 		.word	1073887232
 237 00a4 00700040 		.word	1073770496
 238              		.cfi_endproc
 239              	.LFE138:
 241              		.section	.rodata.main.str1.4,"aMS",%progbits,1
 242              		.align	2
 243              	.LC0:
 244 0000 0D0A4545 		.ascii	"\015\012EEE3096S Practical 3 - STM32F4 Mandelbrot B"
 244      45333039 
 244      36532050 
 244      72616374 
 244      6963616C 
 245 002d 656E6368 		.ascii	"enchmark\015\000"
 245      6D61726B 
 245      0D00
 246 0037 00       		.align	2
 247              	.LC1:
 248 0038 53595343 		.ascii	"SYSCLK: %lu Hz\015\012\000"
 248      4C4B3A20 
 248      256C7520 
 248      487A0D0A 
 248      00
 249 0049 000000   		.align	2
 250              	.LC2:
 251 004c 0D0A3D3D 		.ascii	"\015\012=== FPU Impact Analysis: FLOAT PRECISION =="
 251      3D204650 
 251      5520496D 
 251      70616374 
 251      20416E61 
 252 0079 3D0D00   		.ascii	"=\015\000"
 253              		.global	__aeabi_ui2d
 254              		.global	__aeabi_ddiv
 255              		.global	__aeabi_dmul
 256              		.align	2
 257              	.LC3:
 258 007c 464C4F41 		.ascii	"FLOAT\000"
 258      5400
 259 0082 0000     		.align	2
 260              	.LC4:
 261 0084 25733A20 		.ascii	"%s: %ux%u, cycles %lu, time %.6f s, throughput %.0f"
 261      25757825 
 261      752C2063 
 261      79636C65 
 261      7320256C 
 262 00b7 20707073 		.ascii	" pps, checksum %lu\015\012\000"
 262      2C206368 
 262      65636B73 
 262      756D2025 
 262      6C750D0A 
 263              		.align	2
 264              	.LC5:
 265 00cc 0D0A3D3D 		.ascii	"\015\012=== FPU Impact Analysis: DOUBLE PRECISION ="
 265      3D204650 
ARM GAS  C:\Users\einom\AppData\Local\Temp\ccWbNOsJ.s 			page 32


 265      5520496D 
 265      70616374 
 265      20416E61 
 266 00f9 3D3D0D00 		.ascii	"==\015\000"
 267              		.global	__aeabi_dadd
 268              		.global	__aeabi_dsub
 269              		.global	__aeabi_dcmple
 270 00fd 000000   		.align	2
 271              	.LC6:
 272 0100 444F5542 		.ascii	"DOUBLE\000"
 272      4C4500
 273 0107 00       		.align	2
 274              	.LC7:
 275 0108 0D0A3D3D 		.ascii	"\015\012=== FPU Impact Analysis: COMPARISON ===\015"
 275      3D204650 
 275      5520496D 
 275      70616374 
 275      20416E61 
 276 0132 00       		.ascii	"\000"
 277              		.global	__aeabi_dcmpeq
 278 0133 00       		.align	2
 279              	.LC8:
 280 0134 434F4D50 		.ascii	"COMPARISON %ux%u: Float checksum %lu, Double checks"
 280      41524953 
 280      4F4E2025 
 280      75782575 
 280      3A20466C 
 281 0167 756D2025 		.ascii	"um %lu, Speedup %.2fx\015\012\000"
 281      6C752C20 
 281      53706565 
 281      64757020 
 281      252E3266 
 282              		.section	.text.startup.main,"ax",%progbits
 283              		.align	1
 284              		.p2align 2,,3
 285              		.global	main
 286              		.syntax unified
 287              		.thumb
 288              		.thumb_func
 290              	main:
 291              	.LFB137:
 120:Core/Src/main.c **** 
 292              		.loc 1 120 1 is_stmt 1 view -0
 293              		.cfi_startproc
 294              		@ args = 0, pretend = 0, frame = 128
 295              		@ frame_needed = 0, uses_anonymous_args = 0
 129:Core/Src/main.c **** 
 296              		.loc 1 129 3 view .LVU84
 120:Core/Src/main.c **** 
 297              		.loc 1 120 1 is_stmt 0 view .LVU85
 298 0000 2DE9F04F 		push	{r4, r5, r6, r7, r8, r9, r10, fp, lr}
 299              	.LCFI3:
 300              		.cfi_def_cfa_offset 36
 301              		.cfi_offset 4, -36
 302              		.cfi_offset 5, -32
 303              		.cfi_offset 6, -28
 304              		.cfi_offset 7, -24
ARM GAS  C:\Users\einom\AppData\Local\Temp\ccWbNOsJ.s 			page 33


 305              		.cfi_offset 8, -20
 306              		.cfi_offset 9, -16
 307              		.cfi_offset 10, -12
 308              		.cfi_offset 11, -8
 309              		.cfi_offset 14, -4
 310 0004 A9B0     		sub	sp, sp, #164
 311              	.LCFI4:
 312              		.cfi_def_cfa_offset 200
 129:Core/Src/main.c **** 
 313              		.loc 1 129 3 view .LVU86
 314 0006 FFF7FEFF 		bl	HAL_Init
 315              	.LVL2:
 136:Core/Src/main.c **** 
 316              		.loc 1 136 3 is_stmt 1 view .LVU87
 317 000a FFF7FEFF 		bl	SystemClock_Config
 318              	.LVL3:
 143:Core/Src/main.c ****   /* USER CODE BEGIN 2 */
 319              		.loc 1 143 3 view .LVU88
 320              	.LBB112:
 321              	.LBI112:
 329:Core/Src/main.c **** {
 322              		.loc 1 329 13 view .LVU89
 323              	.LBB113:
 331:Core/Src/main.c ****   /* USER CODE BEGIN MX_GPIO_Init_1 */
 324              		.loc 1 331 3 view .LVU90
 325              	.LBB114:
 337:Core/Src/main.c ****   __HAL_RCC_GPIOH_CLK_ENABLE();
 326              		.loc 1 337 3 is_stmt 0 view .LVU91
 327 000e 0022     		movs	r2, #0
 328              	.LBE114:
 331:Core/Src/main.c ****   /* USER CODE BEGIN MX_GPIO_Init_1 */
 329              		.loc 1 331 20 view .LVU92
 330 0010 CDE92222 		strd	r2, r2, [sp, #136]
 331 0014 CDE92422 		strd	r2, r2, [sp, #144]
 332              	.LBB115:
 337:Core/Src/main.c ****   __HAL_RCC_GPIOH_CLK_ENABLE();
 333              		.loc 1 337 3 view .LVU93
 334 0018 994B     		ldr	r3, .L68
 335 001a 1F92     		str	r2, [sp, #124]
 336              	.LBE115:
 331:Core/Src/main.c ****   /* USER CODE BEGIN MX_GPIO_Init_1 */
 337              		.loc 1 331 20 view .LVU94
 338 001c 2692     		str	r2, [sp, #152]
 337:Core/Src/main.c ****   __HAL_RCC_GPIOH_CLK_ENABLE();
 339              		.loc 1 337 3 is_stmt 1 view .LVU95
 340              	.LBB116:
 337:Core/Src/main.c ****   __HAL_RCC_GPIOH_CLK_ENABLE();
 341              		.loc 1 337 3 view .LVU96
 337:Core/Src/main.c ****   __HAL_RCC_GPIOH_CLK_ENABLE();
 342              		.loc 1 337 3 view .LVU97
 343 001e 1A6B     		ldr	r2, [r3, #48]
 344              	.LBE116:
 342:Core/Src/main.c ****                           |GPIO_PIN_4|GPIO_PIN_5|GPIO_PIN_6|GPIO_PIN_7, GPIO_PIN_RESET);
 345              		.loc 1 342 3 is_stmt 0 view .LVU98
 346 0020 9848     		ldr	r0, .L68+4
 347              	.LBB117:
 337:Core/Src/main.c ****   __HAL_RCC_GPIOH_CLK_ENABLE();
ARM GAS  C:\Users\einom\AppData\Local\Temp\ccWbNOsJ.s 			page 34


 348              		.loc 1 337 3 view .LVU99
 349 0022 42F00402 		orr	r2, r2, #4
 350 0026 1A63     		str	r2, [r3, #48]
 337:Core/Src/main.c ****   __HAL_RCC_GPIOH_CLK_ENABLE();
 351              		.loc 1 337 3 is_stmt 1 view .LVU100
 352 0028 196B     		ldr	r1, [r3, #48]
 353 002a 01F00401 		and	r1, r1, #4
 354 002e 1F91     		str	r1, [sp, #124]
 337:Core/Src/main.c ****   __HAL_RCC_GPIOH_CLK_ENABLE();
 355              		.loc 1 337 3 view .LVU101
 356              	.LBE117:
 342:Core/Src/main.c ****                           |GPIO_PIN_4|GPIO_PIN_5|GPIO_PIN_6|GPIO_PIN_7, GPIO_PIN_RESET);
 357              		.loc 1 342 3 is_stmt 0 view .LVU102
 358 0030 0022     		movs	r2, #0
 359              	.LBB118:
 337:Core/Src/main.c ****   __HAL_RCC_GPIOH_CLK_ENABLE();
 360              		.loc 1 337 3 view .LVU103
 361 0032 1F99     		ldr	r1, [sp, #124]
 362              	.LBE118:
 337:Core/Src/main.c ****   __HAL_RCC_GPIOH_CLK_ENABLE();
 363              		.loc 1 337 3 is_stmt 1 view .LVU104
 338:Core/Src/main.c ****   __HAL_RCC_GPIOB_CLK_ENABLE();
 364              		.loc 1 338 3 view .LVU105
 365              	.LBB119:
 338:Core/Src/main.c ****   __HAL_RCC_GPIOB_CLK_ENABLE();
 366              		.loc 1 338 3 view .LVU106
 367 0034 2092     		str	r2, [sp, #128]
 338:Core/Src/main.c ****   __HAL_RCC_GPIOB_CLK_ENABLE();
 368              		.loc 1 338 3 view .LVU107
 369 0036 196B     		ldr	r1, [r3, #48]
 370 0038 41F08001 		orr	r1, r1, #128
 371 003c 1963     		str	r1, [r3, #48]
 338:Core/Src/main.c ****   __HAL_RCC_GPIOB_CLK_ENABLE();
 372              		.loc 1 338 3 view .LVU108
 373 003e 196B     		ldr	r1, [r3, #48]
 374 0040 01F08001 		and	r1, r1, #128
 375 0044 2091     		str	r1, [sp, #128]
 338:Core/Src/main.c ****   __HAL_RCC_GPIOB_CLK_ENABLE();
 376              		.loc 1 338 3 view .LVU109
 377 0046 2099     		ldr	r1, [sp, #128]
 378              	.LBE119:
 338:Core/Src/main.c ****   __HAL_RCC_GPIOB_CLK_ENABLE();
 379              		.loc 1 338 3 view .LVU110
 339:Core/Src/main.c **** 
 380              		.loc 1 339 3 view .LVU111
 381              	.LBB120:
 339:Core/Src/main.c **** 
 382              		.loc 1 339 3 view .LVU112
 383 0048 2192     		str	r2, [sp, #132]
 339:Core/Src/main.c **** 
 384              		.loc 1 339 3 view .LVU113
 385 004a 196B     		ldr	r1, [r3, #48]
 386 004c 41F00201 		orr	r1, r1, #2
 387 0050 1963     		str	r1, [r3, #48]
 339:Core/Src/main.c **** 
 388              		.loc 1 339 3 view .LVU114
 389 0052 1B6B     		ldr	r3, [r3, #48]
ARM GAS  C:\Users\einom\AppData\Local\Temp\ccWbNOsJ.s 			page 35


 390 0054 03F00203 		and	r3, r3, #2
 391 0058 2193     		str	r3, [sp, #132]
 339:Core/Src/main.c **** 
 392              		.loc 1 339 3 view .LVU115
 393              	.LBE120:
 342:Core/Src/main.c ****                           |GPIO_PIN_4|GPIO_PIN_5|GPIO_PIN_6|GPIO_PIN_7, GPIO_PIN_RESET);
 394              		.loc 1 342 3 is_stmt 0 view .LVU116
 395 005a FF21     		movs	r1, #255
 396              	.LBB121:
 339:Core/Src/main.c **** 
 397              		.loc 1 339 3 view .LVU117
 398 005c 219B     		ldr	r3, [sp, #132]
 399              	.LBE121:
 339:Core/Src/main.c **** 
 400              		.loc 1 339 3 is_stmt 1 view .LVU118
 342:Core/Src/main.c ****                           |GPIO_PIN_4|GPIO_PIN_5|GPIO_PIN_6|GPIO_PIN_7, GPIO_PIN_RESET);
 401              		.loc 1 342 3 view .LVU119
 402 005e FFF7FEFF 		bl	HAL_GPIO_WritePin
 403              	.LVL4:
 347:Core/Src/main.c ****                           |GPIO_PIN_4|GPIO_PIN_5|GPIO_PIN_6|GPIO_PIN_7;
 404              		.loc 1 347 3 view .LVU120
 349:Core/Src/main.c ****   GPIO_InitStruct.Pull = GPIO_NOPULL;
 405              		.loc 1 349 3 view .LVU121
 350:Core/Src/main.c ****   GPIO_InitStruct.Speed = GPIO_SPEED_FREQ_LOW;
 406              		.loc 1 350 3 view .LVU122
 351:Core/Src/main.c ****   HAL_GPIO_Init(GPIOB, &GPIO_InitStruct);
 407              		.loc 1 351 3 view .LVU123
 347:Core/Src/main.c ****                           |GPIO_PIN_4|GPIO_PIN_5|GPIO_PIN_6|GPIO_PIN_7;
 408              		.loc 1 347 23 is_stmt 0 view .LVU124
 409 0062 FF22     		movs	r2, #255
 410 0064 0123     		movs	r3, #1
 411 0066 CDE92223 		strd	r2, [sp, #136]
 352:Core/Src/main.c **** 
 412              		.loc 1 352 3 view .LVU125
 413 006a 22A9     		add	r1, sp, #136
 347:Core/Src/main.c ****                           |GPIO_PIN_4|GPIO_PIN_5|GPIO_PIN_6|GPIO_PIN_7;
 414              		.loc 1 347 23 view .LVU126
 415 006c 0022     		movs	r2, #0
 416 006e 0023     		movs	r3, #0
 352:Core/Src/main.c **** 
 417              		.loc 1 352 3 view .LVU127
 418 0070 8448     		ldr	r0, .L68+4
 347:Core/Src/main.c ****                           |GPIO_PIN_4|GPIO_PIN_5|GPIO_PIN_6|GPIO_PIN_7;
 419              		.loc 1 347 23 view .LVU128
 420 0072 CDE92423 		strd	r2, [sp, #144]
 352:Core/Src/main.c **** 
 421              		.loc 1 352 3 is_stmt 1 view .LVU129
 422 0076 FFF7FEFF 		bl	HAL_GPIO_Init
 423              	.LVL5:
 424              	.LBE113:
 425              	.LBE112:
 145:Core/Src/main.c ****   printf("\r\nEEE3096S Practical 3 - STM32F4 Mandelbrot Benchmark\r\n");
 426              		.loc 1 145 3 view .LVU130
 427              	.LBB122:
 428              	.LBI122:
 412:Core/Src/main.c **** {
 429              		.loc 1 412 13 view .LVU131
ARM GAS  C:\Users\einom\AppData\Local\Temp\ccWbNOsJ.s 			page 36


 430              	.LBB123:
 415:Core/Src/main.c **** 	/* Unlock DWT (if locked) by writing the key to LAR when present */
 431              		.loc 1 415 2 view .LVU132
 415:Core/Src/main.c **** 	/* Unlock DWT (if locked) by writing the key to LAR when present */
 432              		.loc 1 415 11 is_stmt 0 view .LVU133
 433 007a 834A     		ldr	r2, .L68+8
 434              	.LBE123:
 435              	.LBE122:
 146:Core/Src/main.c ****   printf("SYSCLK: %lu Hz\r\n", SystemCoreClock);
 436              		.loc 1 146 3 view .LVU134
 437 007c 8348     		ldr	r0, .L68+12
 438              	.LBB125:
 439              	.LBB124:
 415:Core/Src/main.c **** 	/* Unlock DWT (if locked) by writing the key to LAR when present */
 440              		.loc 1 415 11 view .LVU135
 441 007e D2F8FC30 		ldr	r3, [r2, #252]
 415:Core/Src/main.c **** 	/* Unlock DWT (if locked) by writing the key to LAR when present */
 442              		.loc 1 415 19 view .LVU136
 443 0082 43F08073 		orr	r3, r3, #16777216
 444 0086 C2F8FC30 		str	r3, [r2, #252]
 421:Core/Src/main.c **** 	/* Enable the cycle counter */
 445              		.loc 1 421 2 is_stmt 1 view .LVU137
 421:Core/Src/main.c **** 	/* Enable the cycle counter */
 446              		.loc 1 421 14 is_stmt 0 view .LVU138
 447 008a A2F55D42 		sub	r2, r2, #56576
 448 008e 0023     		movs	r3, #0
 449 0090 5360     		str	r3, [r2, #4]
 423:Core/Src/main.c **** }
 450              		.loc 1 423 2 is_stmt 1 view .LVU139
 423:Core/Src/main.c **** }
 451              		.loc 1 423 5 is_stmt 0 view .LVU140
 452 0092 1368     		ldr	r3, [r2]
 423:Core/Src/main.c **** }
 453              		.loc 1 423 12 view .LVU141
 454 0094 43F00103 		orr	r3, r3, #1
 455 0098 1360     		str	r3, [r2]
 456              	.LBE124:
 457              	.LBE125:
 146:Core/Src/main.c ****   printf("SYSCLK: %lu Hz\r\n", SystemCoreClock);
 458              		.loc 1 146 3 is_stmt 1 view .LVU142
 459 009a FFF7FEFF 		bl	puts
 460              	.LVL6:
 147:Core/Src/main.c **** 
 461              		.loc 1 147 3 view .LVU143
 462 009e 7C4B     		ldr	r3, .L68+16
 463 00a0 7C48     		ldr	r0, .L68+20
 464 00a2 1968     		ldr	r1, [r3]
 465 00a4 FFF7FEFF 		bl	printf
 466              	.LVL7:
 467              	.L37:
 153:Core/Src/main.c ****   {
 468              		.loc 1 153 3 view .LVU144
 469              	.LBB126:
 159:Core/Src/main.c ****       uint32_t program_start_cycles = dwt_get_cycles();
 470              		.loc 1 159 7 view .LVU145
 159:Core/Src/main.c ****       uint32_t program_start_cycles = dwt_get_cycles();
 471              		.loc 1 159 19 is_stmt 0 view .LVU146
ARM GAS  C:\Users\einom\AppData\Local\Temp\ccWbNOsJ.s 			page 37


 472 00a8 7B4B     		ldr	r3, .L68+24
 163:Core/Src/main.c **** 
 473              		.loc 1 163 7 view .LVU147
 474 00aa 7648     		ldr	r0, .L68+4
 475 00ac 7B4F     		ldr	r7, .L68+28
 159:Core/Src/main.c ****       uint32_t program_start_cycles = dwt_get_cycles();
 476              		.loc 1 159 19 view .LVU148
 477 00ae 0022     		movs	r2, #0
 478 00b0 5A60     		str	r2, [r3, #4]
 160:Core/Src/main.c ****       
 479              		.loc 1 160 7 is_stmt 1 view .LVU149
 480              	.LBB127:
 481              	.LBI127:
 426:Core/Src/main.c **** {
 482              		.loc 1 426 24 view .LVU150
 483              	.LBB128:
 428:Core/Src/main.c **** }
 484              		.loc 1 428 2 view .LVU151
 485              	.LBE128:
 486              	.LBE127:
 163:Core/Src/main.c **** 
 487              		.loc 1 163 7 is_stmt 0 view .LVU152
 488 00b2 0122     		movs	r2, #1
 489 00b4 1146     		mov	r1, r2
 490              	.LBB130:
 491              	.LBB129:
 428:Core/Src/main.c **** }
 492              		.loc 1 428 12 view .LVU153
 493 00b6 5E68     		ldr	r6, [r3, #4]
 494              	.LVL8:
 428:Core/Src/main.c **** }
 495              		.loc 1 428 12 view .LVU154
 496              	.LBE129:
 497              	.LBE130:
 163:Core/Src/main.c **** 
 498              		.loc 1 163 7 is_stmt 1 view .LVU155
 499 00b8 FFF7FEFF 		bl	HAL_GPIO_WritePin
 500              	.LVL9:
 168:Core/Src/main.c ****       printf("\r\n=== FPU Impact Analysis: FLOAT PRECISION ===\r\n");
 501              		.loc 1 168 7 view .LVU156
 168:Core/Src/main.c ****       printf("\r\n=== FPU Impact Analysis: FLOAT PRECISION ===\r\n");
 502              		.loc 1 168 27 is_stmt 0 view .LVU157
 503 00bc 784B     		ldr	r3, .L68+32
 169:Core/Src/main.c ****       for (uint32_t size_index = 0; size_index < kNumResolutions; ++size_index)
 504              		.loc 1 169 7 view .LVU158
 505 00be 7948     		ldr	r0, .L68+36
 168:Core/Src/main.c ****       printf("\r\n=== FPU Impact Analysis: FLOAT PRECISION ===\r\n");
 506              		.loc 1 168 27 view .LVU159
 507 00c0 0022     		movs	r2, #0
 508 00c2 1A60     		str	r2, [r3]
 169:Core/Src/main.c ****       for (uint32_t size_index = 0; size_index < kNumResolutions; ++size_index)
 509              		.loc 1 169 7 is_stmt 1 view .LVU160
 510 00c4 4FF0800B 		mov	fp, #128
 511 00c8 FFF7FEFF 		bl	puts
 512              	.LVL10:
 170:Core/Src/main.c ****       {
 513              		.loc 1 170 7 view .LVU161
ARM GAS  C:\Users\einom\AppData\Local\Temp\ccWbNOsJ.s 			page 38


 514              	.LBB131:
 170:Core/Src/main.c ****       {
 515              		.loc 1 170 12 view .LVU162
 170:Core/Src/main.c ****       {
 516              		.loc 1 170 48 discriminator 1 view .LVU163
 517 00cc 764B     		ldr	r3, .L68+40
 518              	.LBB132:
 189:Core/Src/main.c ****         g_current_throughput = throughput;
 519              		.loc 1 189 52 is_stmt 0 view .LVU164
 520 00ce 0E96     		str	r6, [sp, #56]
 521 00d0 1993     		str	r3, [sp, #100]
 522              	.LBE132:
 523              	.LBE131:
 169:Core/Src/main.c ****       for (uint32_t size_index = 0; size_index < kNumResolutions; ++size_index)
 524              		.loc 1 169 7 view .LVU165
 525 00d2 0A97     		str	r7, [sp, #40]
 526 00d4 0D93     		str	r3, [sp, #52]
 527              	.LBB168:
 170:Core/Src/main.c ****       {
 528              		.loc 1 170 21 view .LVU166
 529 00d6 0025     		movs	r5, #0
 530              	.LBB164:
 189:Core/Src/main.c ****         g_current_throughput = throughput;
 531              		.loc 1 189 52 view .LVU167
 532 00d8 5E46     		mov	r6, fp
 533              	.LVL11:
 189:Core/Src/main.c ****         g_current_throughput = throughput;
 534              		.loc 1 189 52 view .LVU168
 535 00da BA46     		mov	r10, r7
 536              	.LVL12:
 537              	.L20:
 172:Core/Src/main.c ****         uint16_t h = kHeights[size_index];
 538              		.loc 1 172 9 is_stmt 1 view .LVU169
 173:Core/Src/main.c ****         g_current_width = (uint32_t)w;
 539              		.loc 1 173 9 view .LVU170
 174:Core/Src/main.c ****         g_current_height = (uint32_t)h;
 540              		.loc 1 174 9 view .LVU171
 174:Core/Src/main.c ****         g_current_height = (uint32_t)h;
 541              		.loc 1 174 25 is_stmt 0 view .LVU172
 542 00dc 734B     		ldr	r3, .L68+44
 543 00de 1E60     		str	r6, [r3]
 175:Core/Src/main.c **** 
 544              		.loc 1 175 9 is_stmt 1 view .LVU173
 175:Core/Src/main.c **** 
 545              		.loc 1 175 26 is_stmt 0 view .LVU174
 546 00e0 734B     		ldr	r3, .L68+48
 547 00e2 C3F800B0 		str	fp, [r3]
 177:Core/Src/main.c ****         uint32_t start_cycles = dwt_get_cycles();
 548              		.loc 1 177 9 is_stmt 1 view .LVU175
 177:Core/Src/main.c ****         uint32_t start_cycles = dwt_get_cycles();
 549              		.loc 1 177 21 is_stmt 0 view .LVU176
 550 00e6 6C4B     		ldr	r3, .L68+24
 551 00e8 0022     		movs	r2, #0
 552 00ea 5A60     		str	r2, [r3, #4]
 178:Core/Src/main.c ****         uint32_t result_checksum = generate_mandelbrot_checksum_float(w, h, kMaxIter);
 553              		.loc 1 178 9 is_stmt 1 view .LVU177
 554              	.LBB133:
ARM GAS  C:\Users\einom\AppData\Local\Temp\ccWbNOsJ.s 			page 39


 555              	.LBI133:
 426:Core/Src/main.c **** {
 556              		.loc 1 426 24 view .LVU178
 557              	.LBB134:
 428:Core/Src/main.c **** }
 558              		.loc 1 428 2 view .LVU179
 428:Core/Src/main.c **** }
 559              		.loc 1 428 12 is_stmt 0 view .LVU180
 560 00ec 5B68     		ldr	r3, [r3, #4]
 561              	.LVL13:
 428:Core/Src/main.c **** }
 562              		.loc 1 428 12 view .LVU181
 563              	.LBE134:
 564              	.LBE133:
 179:Core/Src/main.c ****         uint32_t end_cycles = dwt_get_cycles();
 565              		.loc 1 179 9 is_stmt 1 view .LVU182
 566              	.LBB135:
 567              	.LBI135:
 362:Core/Src/main.c **** {
 568              		.loc 1 362 17 view .LVU183
 569              	.LBB136:
 364:Core/Src/main.c **** 	for (uint16_t y = 0; y < height; ++y)
 570              		.loc 1 364 2 view .LVU184
 365:Core/Src/main.c **** 	{
 571              		.loc 1 365 2 view .LVU185
 572              	.LBB137:
 365:Core/Src/main.c **** 	{
 573              		.loc 1 365 7 view .LVU186
 365:Core/Src/main.c **** 	{
 574              		.loc 1 365 25 discriminator 1 view .LVU187
 575 00ee BBF1000F 		cmp	fp, #0
 576 00f2 00F04B83 		beq	.L38
 577              	.LBB138:
 367:Core/Src/main.c **** 		for (uint16_t x = 0; x < width; ++x)
 578              		.loc 1 367 26 is_stmt 0 view .LVU188
 579 00f6 07EE90BA 		vmov	s15, fp	@ int
 580 00fa 1146     		mov	r1, r2
 581              	.LVL14:
 367:Core/Src/main.c **** 		for (uint16_t x = 0; x < width; ++x)
 582              		.loc 1 367 3 is_stmt 1 view .LVU189
 368:Core/Src/main.c **** 		{
 583              		.loc 1 368 3 view .LVU190
 584              	.LBB139:
 368:Core/Src/main.c **** 		{
 585              		.loc 1 368 8 view .LVU191
 368:Core/Src/main.c **** 		{
 586              		.loc 1 368 26 discriminator 1 view .LVU192
 587              	.LBE139:
 367:Core/Src/main.c **** 		for (uint16_t x = 0; x < width; ++x)
 588              		.loc 1 367 26 is_stmt 0 view .LVU193
 589 00fc F8EE676A 		vcvt.f32.u32	s13, s15
 590              	.LBB145:
 368:Core/Src/main.c **** 		{
 591              		.loc 1 368 26 discriminator 1 view .LVU194
 592 0100 002E     		cmp	r6, #0
 593 0102 57D0     		beq	.L12
 594              	.LBE145:
ARM GAS  C:\Users\einom\AppData\Local\Temp\ccWbNOsJ.s 			page 40


 367:Core/Src/main.c **** 		for (uint16_t x = 0; x < width; ++x)
 595              		.loc 1 367 15 view .LVU195
 596 0104 07EE902A 		vmov	s15, r2	@ int
 597 0108 B8EE677A 		vcvt.f32.u32	s14, s15
 367:Core/Src/main.c **** 		for (uint16_t x = 0; x < width; ++x)
 598              		.loc 1 367 9 view .LVU196
 599 010c BFEE002A 		vmov.f32	s4, #-1.0e+0
 367:Core/Src/main.c **** 		for (uint16_t x = 0; x < width; ++x)
 600              		.loc 1 367 24 view .LVU197
 601 0110 C7EE267A 		vdiv.f32	s15, s14, s13
 367:Core/Src/main.c **** 		for (uint16_t x = 0; x < width; ++x)
 602              		.loc 1 367 9 view .LVU198
 603 0114 1446     		mov	r4, r2
 604 0116 F0EE001A 		vmov.f32	s3, #2.0e+0
 605 011a B0EE424A 		vmov.f32	s8, s4
 606 011e 07EE106A 		vmov	s14, r6	@ int
 607 0122 A7EEA14A 		vfma.f32	s8, s15, s3
 608 0126 F8EE472A 		vcvt.f32.u32	s5, s14
 609              	.LBB146:
 610              	.LBB140:
 370:Core/Src/main.c **** 			float xi = 0.0f;
 611              		.loc 1 370 10 view .LVU199
 612 012a B0EE0C3A 		vmov.f32	s6, #3.5e+0
 613 012e F8EE043A 		vmov.f32	s7, #-2.5e+0
 374:Core/Src/main.c **** 			{
 614              		.loc 1 374 32 discriminator 1 view .LVU200
 615 0132 F1EE004A 		vmov.f32	s9, #4.0e+0
 616              	.LVL15:
 617              	.L17:
 370:Core/Src/main.c **** 			float xi = 0.0f;
 618              		.loc 1 370 27 view .LVU201
 619 0136 0020     		movs	r0, #0
 620              	.LVL16:
 621              	.L16:
 370:Core/Src/main.c **** 			float xi = 0.0f;
 622              		.loc 1 370 4 is_stmt 1 view .LVU202
 370:Core/Src/main.c **** 			float xi = 0.0f;
 623              		.loc 1 370 16 is_stmt 0 view .LVU203
 624 0138 82B2     		uxth	r2, r0
 625 013a 07EE102A 		vmov	s14, r2	@ int
 626 013e B8EE477A 		vcvt.f32.u32	s14, s14
 372:Core/Src/main.c **** 			uint32_t iteration = 0u;
 627              		.loc 1 372 10 view .LVU204
 628 0142 9FED5C1A 		vldr.32	s2, .L68+52
 370:Core/Src/main.c **** 			float xi = 0.0f;
 629              		.loc 1 370 25 view .LVU205
 630 0146 87EE226A 		vdiv.f32	s12, s14, s5
 373:Core/Src/main.c **** 			while (iteration < max_iter && (xi*xi + yi*yi) <= 4.0f)
 631              		.loc 1 373 13 view .LVU206
 632 014a 0022     		movs	r2, #0
 370:Core/Src/main.c **** 			float xi = 0.0f;
 633              		.loc 1 370 10 view .LVU207
 634 014c B0EE635A 		vmov.f32	s10, s7
 635 0150 A6EE035A 		vfma.f32	s10, s12, s6
 636              	.LVL17:
 371:Core/Src/main.c **** 			float yi = 0.0f;
 637              		.loc 1 371 4 is_stmt 1 view .LVU208
ARM GAS  C:\Users\einom\AppData\Local\Temp\ccWbNOsJ.s 			page 41


 372:Core/Src/main.c **** 			uint32_t iteration = 0u;
 638              		.loc 1 372 4 view .LVU209
 373:Core/Src/main.c **** 			while (iteration < max_iter && (xi*xi + yi*yi) <= 4.0f)
 639              		.loc 1 373 4 view .LVU210
 374:Core/Src/main.c **** 			{
 640              		.loc 1 374 4 view .LVU211
 374:Core/Src/main.c **** 			{
 641              		.loc 1 374 32 view .LVU212
 371:Core/Src/main.c **** 			float yi = 0.0f;
 642              		.loc 1 371 10 is_stmt 0 view .LVU213
 643 0154 F0EE417A 		vmov.f32	s15, s2
 644 0158 0EE0     		b	.L13
 645              	.LVL18:
 646              	.L15:
 647              	.LBB141:
 376:Core/Src/main.c **** 				yi = 2.0f*xi*yi + y0;
 648              		.loc 1 376 23 view .LVU214
 649 015a 37EE467A 		vsub.f32	s14, s14, s12
 377:Core/Src/main.c **** 				xi = tmp;
 650              		.loc 1 377 14 view .LVU215
 651 015e 77EEA75A 		vadd.f32	s11, s15, s15
 376:Core/Src/main.c **** 				yi = 2.0f*xi*yi + y0;
 652              		.loc 1 376 11 view .LVU216
 653 0162 77EE057A 		vadd.f32	s15, s14, s10
 654              	.LVL19:
 377:Core/Src/main.c **** 				xi = tmp;
 655              		.loc 1 377 5 is_stmt 1 view .LVU217
 377:Core/Src/main.c **** 				xi = tmp;
 656              		.loc 1 377 8 is_stmt 0 view .LVU218
 657 0166 B0EE447A 		vmov.f32	s14, s8
 658 016a A5EE817A 		vfma.f32	s14, s11, s2
 379:Core/Src/main.c **** 			}
 659              		.loc 1 379 5 view .LVU219
 660 016e 0132     		adds	r2, r2, #1
 661              	.LVL20:
 379:Core/Src/main.c **** 			}
 662              		.loc 1 379 5 view .LVU220
 663              	.LBE141:
 374:Core/Src/main.c **** 			{
 664              		.loc 1 374 32 view .LVU221
 665 0170 642A     		cmp	r2, #100
 666              	.LBB142:
 377:Core/Src/main.c **** 				xi = tmp;
 667              		.loc 1 377 8 view .LVU222
 668 0172 B0EE471A 		vmov.f32	s2, s14
 669              	.LVL21:
 378:Core/Src/main.c **** 				++iteration;
 670              		.loc 1 378 5 is_stmt 1 view .LVU223
 379:Core/Src/main.c **** 			}
 671              		.loc 1 379 5 view .LVU224
 379:Core/Src/main.c **** 			}
 672              		.loc 1 379 5 is_stmt 0 view .LVU225
 673              	.LBE142:
 374:Core/Src/main.c **** 			{
 674              		.loc 1 374 32 is_stmt 1 view .LVU226
 675 0176 0AD0     		beq	.L14
 676              	.LVL22:
ARM GAS  C:\Users\einom\AppData\Local\Temp\ccWbNOsJ.s 			page 42


 677              	.L13:
 678              	.LBB143:
 376:Core/Src/main.c **** 				yi = 2.0f*xi*yi + y0;
 679              		.loc 1 376 5 view .LVU227
 376:Core/Src/main.c **** 				yi = 2.0f*xi*yi + y0;
 680              		.loc 1 376 5 is_stmt 0 view .LVU228
 681              	.LBE143:
 374:Core/Src/main.c **** 			{
 682              		.loc 1 374 38 discriminator 1 view .LVU229
 683 0178 27EEA77A 		vmul.f32	s14, s15, s15
 374:Core/Src/main.c **** 			{
 684              		.loc 1 374 46 discriminator 1 view .LVU230
 685 017c 21EE016A 		vmul.f32	s12, s2, s2
 374:Core/Src/main.c **** 			{
 686              		.loc 1 374 42 discriminator 1 view .LVU231
 687 0180 77EE065A 		vadd.f32	s11, s14, s12
 374:Core/Src/main.c **** 			{
 688              		.loc 1 374 32 discriminator 1 view .LVU232
 689 0184 F4EEE45A 		vcmpe.f32	s11, s9
 690 0188 F1EE10FA 		vmrs	APSR_nzcv, FPSCR
 691 018c E5D9     		bls	.L15
 692              	.L14:
 381:Core/Src/main.c **** 		}
 693              		.loc 1 381 4 is_stmt 1 view .LVU233
 694              	.LBE140:
 368:Core/Src/main.c **** 		{
 695              		.loc 1 368 26 is_stmt 0 discriminator 1 view .LVU234
 696 018e 0130     		adds	r0, r0, #1
 697              	.LVL23:
 368:Core/Src/main.c **** 		{
 698              		.loc 1 368 26 discriminator 1 view .LVU235
 699 0190 8642     		cmp	r6, r0
 700              	.LBB144:
 381:Core/Src/main.c **** 		}
 701              		.loc 1 381 19 view .LVU236
 702 0192 1444     		add	r4, r4, r2
 703              	.LVL24:
 381:Core/Src/main.c **** 		}
 704              		.loc 1 381 19 view .LVU237
 705              	.LBE144:
 368:Core/Src/main.c **** 		{
 706              		.loc 1 368 35 is_stmt 1 discriminator 2 view .LVU238
 368:Core/Src/main.c **** 		{
 707              		.loc 1 368 26 discriminator 1 view .LVU239
 708 0194 D0D1     		bne	.L16
 368:Core/Src/main.c **** 		{
 709              		.loc 1 368 26 is_stmt 0 discriminator 1 view .LVU240
 710              	.LBE146:
 711              	.LBE138:
 365:Core/Src/main.c **** 	{
 712              		.loc 1 365 35 is_stmt 1 discriminator 2 view .LVU241
 713              	.LVL25:
 365:Core/Src/main.c **** 	{
 714              		.loc 1 365 25 discriminator 1 view .LVU242
 715 0196 0131     		adds	r1, r1, #1
 716              	.LVL26:
 365:Core/Src/main.c **** 	{
ARM GAS  C:\Users\einom\AppData\Local\Temp\ccWbNOsJ.s 			page 43


 717              		.loc 1 365 25 is_stmt 0 discriminator 1 view .LVU243
 718 0198 8B45     		cmp	fp, r1
 719 019a 0FD0     		beq	.L11
 720              	.LVL27:
 721              	.LBB148:
 367:Core/Src/main.c **** 		for (uint16_t x = 0; x < width; ++x)
 722              		.loc 1 367 3 is_stmt 1 view .LVU244
 367:Core/Src/main.c **** 		for (uint16_t x = 0; x < width; ++x)
 723              		.loc 1 367 15 is_stmt 0 view .LVU245
 724 019c 8AB2     		uxth	r2, r1
 725              	.LVL28:
 367:Core/Src/main.c **** 		for (uint16_t x = 0; x < width; ++x)
 726              		.loc 1 367 15 view .LVU246
 727 019e 07EE902A 		vmov	s15, r2	@ int
 728              	.LVL29:
 367:Core/Src/main.c **** 		for (uint16_t x = 0; x < width; ++x)
 729              		.loc 1 367 15 view .LVU247
 730 01a2 F8EE677A 		vcvt.f32.u32	s15, s15
 367:Core/Src/main.c **** 		for (uint16_t x = 0; x < width; ++x)
 731              		.loc 1 367 9 view .LVU248
 732 01a6 B0EE424A 		vmov.f32	s8, s4
 367:Core/Src/main.c **** 		for (uint16_t x = 0; x < width; ++x)
 733              		.loc 1 367 24 view .LVU249
 734 01aa 87EEA67A 		vdiv.f32	s14, s15, s13
 367:Core/Src/main.c **** 		for (uint16_t x = 0; x < width; ++x)
 735              		.loc 1 367 9 view .LVU250
 736 01ae A7EE214A 		vfma.f32	s8, s14, s3
 737              	.LVL30:
 368:Core/Src/main.c **** 		{
 738              		.loc 1 368 3 is_stmt 1 view .LVU251
 739              	.LBB147:
 368:Core/Src/main.c **** 		{
 740              		.loc 1 368 8 view .LVU252
 368:Core/Src/main.c **** 		{
 741              		.loc 1 368 26 discriminator 1 view .LVU253
 742 01b2 C0E7     		b	.L17
 743              	.LVL31:
 744              	.L12:
 368:Core/Src/main.c **** 		{
 745              		.loc 1 368 26 is_stmt 0 discriminator 1 view .LVU254
 746              	.LBE147:
 747              	.LBE148:
 365:Core/Src/main.c **** 	{
 748              		.loc 1 365 35 is_stmt 1 discriminator 2 view .LVU255
 365:Core/Src/main.c **** 	{
 749              		.loc 1 365 25 discriminator 1 view .LVU256
 750 01b4 0131     		adds	r1, r1, #1
 751              	.LVL32:
 365:Core/Src/main.c **** 	{
 752              		.loc 1 365 25 is_stmt 0 discriminator 1 view .LVU257
 753 01b6 8B45     		cmp	fp, r1
 754 01b8 FCD1     		bne	.L12
 755 01ba 0024     		movs	r4, #0
 756              	.LVL33:
 757              	.L11:
 365:Core/Src/main.c **** 	{
 758              		.loc 1 365 25 discriminator 1 view .LVU258
ARM GAS  C:\Users\einom\AppData\Local\Temp\ccWbNOsJ.s 			page 44


 759              	.LBE137:
 384:Core/Src/main.c **** }
 760              		.loc 1 384 2 is_stmt 1 view .LVU259
 384:Core/Src/main.c **** }
 761              		.loc 1 384 2 is_stmt 0 view .LVU260
 762              	.LBE136:
 763              	.LBE135:
 180:Core/Src/main.c ****         uint32_t elapsed_cycles = end_cycles - start_cycles;
 764              		.loc 1 180 9 is_stmt 1 view .LVU261
 765              	.LBB151:
 766              	.LBI151:
 426:Core/Src/main.c **** {
 767              		.loc 1 426 24 view .LVU262
 768              	.LBB152:
 428:Core/Src/main.c **** }
 769              		.loc 1 428 2 view .LVU263
 428:Core/Src/main.c **** }
 770              		.loc 1 428 12 is_stmt 0 view .LVU264
 771 01bc 364A     		ldr	r2, .L68+24
 772 01be 5768     		ldr	r7, [r2, #4]
 773              	.LVL34:
 428:Core/Src/main.c **** }
 774              		.loc 1 428 12 view .LVU265
 775              	.LBE152:
 776              	.LBE151:
 181:Core/Src/main.c ****         double elapsed_seconds = (double)elapsed_cycles / (double)SystemCoreClock;
 777              		.loc 1 181 9 is_stmt 1 view .LVU266
 181:Core/Src/main.c ****         double elapsed_seconds = (double)elapsed_cycles / (double)SystemCoreClock;
 778              		.loc 1 181 18 is_stmt 0 view .LVU267
 779 01c0 FF1A     		subs	r7, r7, r3
 780              	.LVL35:
 182:Core/Src/main.c ****         double total_pixels = (double)w * (double)h;
 781              		.loc 1 182 9 is_stmt 1 view .LVU268
 182:Core/Src/main.c ****         double total_pixels = (double)w * (double)h;
 782              		.loc 1 182 34 is_stmt 0 view .LVU269
 783 01c2 3846     		mov	r0, r7
 784 01c4 FFF7FEFF 		bl	__aeabi_ui2d
 785              	.LVL36:
 182:Core/Src/main.c ****         double total_pixels = (double)w * (double)h;
 786              		.loc 1 182 59 view .LVU270
 787 01c8 314B     		ldr	r3, .L68+16
 182:Core/Src/main.c ****         double total_pixels = (double)w * (double)h;
 788              		.loc 1 182 34 view .LVU271
 789 01ca 8046     		mov	r8, r0
 182:Core/Src/main.c ****         double total_pixels = (double)w * (double)h;
 790              		.loc 1 182 59 view .LVU272
 791 01cc 1868     		ldr	r0, [r3]
 182:Core/Src/main.c ****         double total_pixels = (double)w * (double)h;
 792              		.loc 1 182 34 view .LVU273
 793 01ce 8946     		mov	r9, r1
 182:Core/Src/main.c ****         double total_pixels = (double)w * (double)h;
 794              		.loc 1 182 59 view .LVU274
 795 01d0 FFF7FEFF 		bl	__aeabi_ui2d
 796              	.LVL37:
 797 01d4 0246     		mov	r2, r0
 798 01d6 0B46     		mov	r3, r1
 182:Core/Src/main.c ****         double total_pixels = (double)w * (double)h;
ARM GAS  C:\Users\einom\AppData\Local\Temp\ccWbNOsJ.s 			page 45


 799              		.loc 1 182 16 view .LVU275
 800 01d8 4046     		mov	r0, r8
 801 01da 4946     		mov	r1, r9
 802 01dc FFF7FEFF 		bl	__aeabi_ddiv
 803              	.LVL38:
 183:Core/Src/main.c ****         double throughput = total_pixels / elapsed_seconds;
 804              		.loc 1 183 9 is_stmt 1 view .LVU276
 184:Core/Src/main.c **** 
 805              		.loc 1 184 9 view .LVU277
 182:Core/Src/main.c ****         double total_pixels = (double)w * (double)h;
 806              		.loc 1 182 16 is_stmt 0 view .LVU278
 807 01e0 CDE90801 		strd	r0, [sp, #32]
 808              	.LVL39:
 183:Core/Src/main.c ****         double throughput = total_pixels / elapsed_seconds;
 809              		.loc 1 183 31 view .LVU279
 810 01e4 3046     		mov	r0, r6
 811 01e6 FFF7FEFF 		bl	__aeabi_ui2d
 812              	.LVL40:
 813 01ea 8046     		mov	r8, r0
 183:Core/Src/main.c ****         double throughput = total_pixels / elapsed_seconds;
 814              		.loc 1 183 43 view .LVU280
 815 01ec 5846     		mov	r0, fp
 183:Core/Src/main.c ****         double throughput = total_pixels / elapsed_seconds;
 816              		.loc 1 183 31 view .LVU281
 817 01ee 8946     		mov	r9, r1
 183:Core/Src/main.c ****         double throughput = total_pixels / elapsed_seconds;
 818              		.loc 1 183 43 view .LVU282
 819 01f0 FFF7FEFF 		bl	__aeabi_ui2d
 820              	.LVL41:
 821 01f4 0246     		mov	r2, r0
 822 01f6 0B46     		mov	r3, r1
 183:Core/Src/main.c ****         double throughput = total_pixels / elapsed_seconds;
 823              		.loc 1 183 16 view .LVU283
 824 01f8 4046     		mov	r0, r8
 825 01fa 4946     		mov	r1, r9
 826 01fc FFF7FEFF 		bl	__aeabi_dmul
 827              	.LVL42:
 184:Core/Src/main.c **** 
 828              		.loc 1 184 16 view .LVU284
 829 0200 DDE90823 		ldrd	r2, [sp, #32]
 830 0204 FFF7FEFF 		bl	__aeabi_ddiv
 831              	.LVL43:
 187:Core/Src/main.c ****         g_current_checksum = result_checksum;
 832              		.loc 1 187 26 view .LVU285
 833 0208 2B4B     		ldr	r3, .L68+56
 834 020a 1F60     		str	r7, [r3]
 188:Core/Src/main.c ****         g_current_execution_time = elapsed_seconds * 1000.0;
 835              		.loc 1 188 28 view .LVU286
 836 020c 2B4B     		ldr	r3, .L68+60
 184:Core/Src/main.c **** 
 837              		.loc 1 184 16 view .LVU287
 838 020e 8046     		mov	r8, r0
 839 0210 8946     		mov	r9, r1
 840              	.LVL44:
 187:Core/Src/main.c ****         g_current_checksum = result_checksum;
 841              		.loc 1 187 9 is_stmt 1 view .LVU288
 188:Core/Src/main.c ****         g_current_execution_time = elapsed_seconds * 1000.0;
ARM GAS  C:\Users\einom\AppData\Local\Temp\ccWbNOsJ.s 			page 46


 842              		.loc 1 188 9 view .LVU289
 188:Core/Src/main.c ****         g_current_execution_time = elapsed_seconds * 1000.0;
 843              		.loc 1 188 28 is_stmt 0 view .LVU290
 844 0212 1C60     		str	r4, [r3]
 189:Core/Src/main.c ****         g_current_throughput = throughput;
 845              		.loc 1 189 9 is_stmt 1 view .LVU291
 189:Core/Src/main.c ****         g_current_throughput = throughput;
 846              		.loc 1 189 52 is_stmt 0 view .LVU292
 847 0214 DDE90801 		ldrd	r0, [sp, #32]
 848 0218 294B     		ldr	r3, .L68+64
 849 021a 0022     		movs	r2, #0
 850 021c FFF7FEFF 		bl	__aeabi_dmul
 851              	.LVL45:
 852              	.LBB153:
 853              	.LBB154:
 434:Core/Src/main.c **** 			precision, (unsigned)width, (unsigned)height, (unsigned long)cycles, seconds, throughput, (unsig
 854              		.loc 1 434 2 view .LVU293
 855 0220 9DED087B 		vldr.64	d7, [sp, #32]
 856 0224 3246     		mov	r2, r6
 857              	.LBE154:
 858              	.LBE153:
 189:Core/Src/main.c ****         g_current_throughput = throughput;
 859              		.loc 1 189 34 view .LVU294
 860 0226 274E     		ldr	r6, .L68+68
 861              	.LVL46:
 862              	.LBB159:
 863              	.LBB155:
 434:Core/Src/main.c **** 			precision, (unsigned)width, (unsigned)height, (unsigned long)cycles, seconds, throughput, (unsig
 864              		.loc 1 434 2 view .LVU295
 865 0228 0694     		str	r4, [sp, #24]
 866 022a 8DED027B 		vstr.64	d7, [sp, #8]
 867 022e CDE90489 		strd	r8, [sp, #16]
 868 0232 0097     		str	r7, [sp]
 869              	.LBE155:
 870              	.LBE159:
 189:Core/Src/main.c ****         g_current_throughput = throughput;
 871              		.loc 1 189 34 view .LVU296
 872 0234 C6E90001 		strd	r0, [r6]
 190:Core/Src/main.c **** 
 873              		.loc 1 190 9 is_stmt 1 view .LVU297
 190:Core/Src/main.c **** 
 874              		.loc 1 190 30 is_stmt 0 view .LVU298
 875 0238 234E     		ldr	r6, .L68+72
 876 023a C6E90089 		strd	r8, [r6]
 193:Core/Src/main.c ****         execution_time_ms_float[size_index] = elapsed_seconds * 1000.0;
 877              		.loc 1 193 9 is_stmt 1 view .LVU299
 193:Core/Src/main.c ****         execution_time_ms_float[size_index] = elapsed_seconds * 1000.0;
 878              		.loc 1 193 36 is_stmt 0 view .LVU300
 879 023e 234E     		ldr	r6, .L68+76
 880 0240 46F82540 		str	r4, [r6, r5, lsl #2]
 194:Core/Src/main.c ****         cpu_cycles_float[size_index] = elapsed_cycles;
 881              		.loc 1 194 9 is_stmt 1 view .LVU301
 194:Core/Src/main.c ****         cpu_cycles_float[size_index] = elapsed_cycles;
 882              		.loc 1 194 45 is_stmt 0 view .LVU302
 883 0244 224C     		ldr	r4, .L68+80
 884              	.LVL47:
 194:Core/Src/main.c ****         cpu_cycles_float[size_index] = elapsed_cycles;
ARM GAS  C:\Users\einom\AppData\Local\Temp\ccWbNOsJ.s 			page 47


 885              		.loc 1 194 45 view .LVU303
 886 0246 04EBC504 		add	r4, r4, r5, lsl #3
 887 024a C4E90001 		strd	r0, [r4]
 195:Core/Src/main.c ****         throughput_pps_float[size_index] = throughput;
 888              		.loc 1 195 9 is_stmt 1 view .LVU304
 195:Core/Src/main.c ****         throughput_pps_float[size_index] = throughput;
 889              		.loc 1 195 38 is_stmt 0 view .LVU305
 890 024e 2149     		ldr	r1, .L68+84
 891              	.LBB160:
 892              	.LBB156:
 434:Core/Src/main.c **** 			precision, (unsigned)width, (unsigned)height, (unsigned long)cycles, seconds, throughput, (unsig
 893              		.loc 1 434 2 view .LVU306
 894 0250 2148     		ldr	r0, .L68+88
 895              	.LBE156:
 896              	.LBE160:
 195:Core/Src/main.c ****         throughput_pps_float[size_index] = throughput;
 897              		.loc 1 195 38 view .LVU307
 898 0252 41F82570 		str	r7, [r1, r5, lsl #2]
 196:Core/Src/main.c **** 
 899              		.loc 1 196 9 is_stmt 1 view .LVU308
 196:Core/Src/main.c **** 
 900              		.loc 1 196 42 is_stmt 0 view .LVU309
 901 0256 2149     		ldr	r1, .L68+92
 902 0258 01EBC501 		add	r1, r1, r5, lsl #3
 903 025c C1E90089 		strd	r8, [r1]
 198:Core/Src/main.c ****       }
 904              		.loc 1 198 9 is_stmt 1 view .LVU310
 905              	.LVL48:
 906              	.LBB161:
 907              	.LBI153:
 431:Core/Src/main.c **** {
 908              		.loc 1 431 13 view .LVU311
 909              	.LBB157:
 433:Core/Src/main.c **** 	printf("%s: %ux%u, cycles %lu, time %.6f s, throughput %.0f pps, checksum %lu\r\n",
 910              		.loc 1 433 2 view .LVU312
 434:Core/Src/main.c **** 			precision, (unsigned)width, (unsigned)height, (unsigned long)cycles, seconds, throughput, (unsig
 911              		.loc 1 434 2 view .LVU313
 912 0260 5B46     		mov	r3, fp
 913 0262 1F49     		ldr	r1, .L68+96
 914              	.LBE157:
 915              	.LBE161:
 916              	.LBE164:
 170:Core/Src/main.c ****       {
 917              		.loc 1 170 67 is_stmt 0 discriminator 3 view .LVU314
 918 0264 0135     		adds	r5, r5, #1
 919              	.LVL49:
 920              	.LBB165:
 921              	.LBB162:
 922              	.LBB158:
 434:Core/Src/main.c **** 			precision, (unsigned)width, (unsigned)height, (unsigned long)cycles, seconds, throughput, (unsig
 923              		.loc 1 434 2 view .LVU315
 924 0266 FFF7FEFF 		bl	printf
 925              	.LVL50:
 434:Core/Src/main.c **** 			precision, (unsigned)width, (unsigned)height, (unsigned long)cycles, seconds, throughput, (unsig
 926              		.loc 1 434 2 view .LVU316
 927              	.LBE158:
 928              	.LBE162:
ARM GAS  C:\Users\einom\AppData\Local\Temp\ccWbNOsJ.s 			page 48


 929              	.LBE165:
 170:Core/Src/main.c ****       {
 930              		.loc 1 170 67 is_stmt 1 discriminator 3 view .LVU317
 170:Core/Src/main.c ****       {
 931              		.loc 1 170 48 discriminator 1 view .LVU318
 932 026a 052D     		cmp	r5, #5
 933 026c 3AD0     		beq	.L19
 934              	.LBB166:
 172:Core/Src/main.c ****         uint16_t h = kHeights[size_index];
 935              		.loc 1 172 18 is_stmt 0 view .LVU319
 936 026e 0D9B     		ldr	r3, [sp, #52]
 937 0270 33F8026F 		ldrh	r6, [r3, #2]!
 938 0274 0D93     		str	r3, [sp, #52]
 173:Core/Src/main.c ****         g_current_width = (uint32_t)w;
 939              		.loc 1 173 18 view .LVU320
 940 0276 0A9B     		ldr	r3, [sp, #40]
 941 0278 33F802BF 		ldrh	fp, [r3, #2]!
 942 027c 0A93     		str	r3, [sp, #40]
 943 027e 2DE7     		b	.L20
 944              	.L69:
 945              		.align	2
 946              	.L68:
 947 0280 00380240 		.word	1073887232
 948 0284 00040240 		.word	1073873920
 949 0288 00ED00E0 		.word	-536810240
 950 028c 00000000 		.word	.LC0
 951 0290 00000000 		.word	SystemCoreClock
 952 0294 38000000 		.word	.LC1
 953 0298 001000E0 		.word	-536866816
 954 029c 00000000 		.word	kHeights
 955 02a0 00000000 		.word	g_current_test_mode
 956 02a4 4C000000 		.word	.LC2
 957 02a8 00000000 		.word	kWidths
 958 02ac 00000000 		.word	g_current_width
 959 02b0 00000000 		.word	g_current_height
 960 02b4 00000000 		.word	0
 961 02b8 00000000 		.word	g_current_cycles
 962 02bc 00000000 		.word	g_current_checksum
 963 02c0 00408F40 		.word	1083129856
 964 02c4 00000000 		.word	g_current_execution_time
 965 02c8 00000000 		.word	g_current_throughput
 966 02cc 00000000 		.word	checksum_float
 967 02d0 00000000 		.word	execution_time_ms_float
 968 02d4 00000000 		.word	cpu_cycles_float
 969 02d8 84000000 		.word	.LC4
 970 02dc 00000000 		.word	throughput_pps_float
 971 02e0 7C000000 		.word	.LC3
 972              	.L19:
 973              	.LBE166:
 974              	.LBE168:
 202:Core/Src/main.c ****       printf("\r\n=== FPU Impact Analysis: DOUBLE PRECISION ===\r\n");
 975              		.loc 1 202 27 view .LVU321
 976 02e4 9C4A     		ldr	r2, .L70
 203:Core/Src/main.c ****       for (uint32_t size_index = 0; size_index < kNumResolutions; ++size_index)
 977              		.loc 1 203 7 view .LVU322
 978 02e6 9D48     		ldr	r0, .L70+4
 202:Core/Src/main.c ****       printf("\r\n=== FPU Impact Analysis: DOUBLE PRECISION ===\r\n");
ARM GAS  C:\Users\einom\AppData\Local\Temp\ccWbNOsJ.s 			page 49


 979              		.loc 1 202 27 view .LVU323
 980 02e8 0E9E     		ldr	r6, [sp, #56]
 202:Core/Src/main.c ****       printf("\r\n=== FPU Impact Analysis: DOUBLE PRECISION ===\r\n");
 981              		.loc 1 202 7 is_stmt 1 view .LVU324
 202:Core/Src/main.c ****       printf("\r\n=== FPU Impact Analysis: DOUBLE PRECISION ===\r\n");
 982              		.loc 1 202 27 is_stmt 0 view .LVU325
 983 02ea 0123     		movs	r3, #1
 984 02ec 1360     		str	r3, [r2]
 203:Core/Src/main.c ****       for (uint32_t size_index = 0; size_index < kNumResolutions; ++size_index)
 985              		.loc 1 203 7 is_stmt 1 view .LVU326
 986 02ee FFF7FEFF 		bl	puts
 987              	.LVL51:
 204:Core/Src/main.c ****       {
 988              		.loc 1 204 7 view .LVU327
 989              	.LBB169:
 204:Core/Src/main.c ****       {
 990              		.loc 1 204 12 view .LVU328
 204:Core/Src/main.c ****       {
 991              		.loc 1 204 48 discriminator 1 view .LVU329
 992              	.LBE169:
 203:Core/Src/main.c ****       for (uint32_t size_index = 0; size_index < kNumResolutions; ++size_index)
 993              		.loc 1 203 7 is_stmt 0 view .LVU330
 994 02f2 9B4B     		ldr	r3, .L70+8
 995 02f4 1793     		str	r3, [sp, #92]
 996 02f6 4FF0800B 		mov	fp, #128
 997 02fa 9A4B     		ldr	r3, .L70+12
 998 02fc 1893     		str	r3, [sp, #96]
 999              	.LBB222:
 204:Core/Src/main.c ****       {
 1000              		.loc 1 204 21 view .LVU331
 1001 02fe 4FF00009 		mov	r9, #0
 1002              	.LBB170:
 1003              	.LBB171:
 1004              	.LBB172:
 1005              	.LBB173:
 1006              	.LBB174:
 1007              	.LBB175:
 1008              	.LBB176:
 395:Core/Src/main.c **** 			double xi = 0.0;
 1009              		.loc 1 395 11 view .LVU332
 1010 0302 CDE91A6A 		strd	r6, r10, [sp, #104]
 1011              	.LBE176:
 1012              	.LBE175:
 1013              	.LBE174:
 1014              	.LBE173:
 1015              	.LBE172:
 1016              	.LBE171:
 1017              	.LBE170:
 1018              	.LBE222:
 203:Core/Src/main.c ****       for (uint32_t size_index = 0; size_index < kNumResolutions; ++size_index)
 1019              		.loc 1 203 7 view .LVU333
 1020 0306 CDF848B0 		str	fp, [sp, #72]
 1021              	.LBB223:
 1022              	.LBB219:
 1023              	.LBB198:
 1024              	.LBB195:
 1025              	.LBB192:
ARM GAS  C:\Users\einom\AppData\Local\Temp\ccWbNOsJ.s 			page 50


 1026              	.LBB189:
 1027              	.LBB184:
 1028              	.LBB180:
 395:Core/Src/main.c **** 			double xi = 0.0;
 1029              		.loc 1 395 11 view .LVU334
 1030 030a 4D46     		mov	r5, r9
 1031              	.LVL52:
 395:Core/Src/main.c **** 			double xi = 0.0;
 1032              		.loc 1 395 11 view .LVU335
 1033 030c 5E46     		mov	r6, fp
 1034              	.LVL53:
 1035              	.L30:
 395:Core/Src/main.c **** 			double xi = 0.0;
 1036              		.loc 1 395 11 view .LVU336
 1037              	.LBE180:
 1038              	.LBE184:
 1039              	.LBE189:
 1040              	.LBE192:
 1041              	.LBE195:
 1042              	.LBE198:
 206:Core/Src/main.c ****         uint16_t h = kHeights[size_index];
 1043              		.loc 1 206 9 is_stmt 1 view .LVU337
 207:Core/Src/main.c ****         g_current_width = (uint32_t)w;
 1044              		.loc 1 207 9 view .LVU338
 208:Core/Src/main.c ****         g_current_height = (uint32_t)h;
 1045              		.loc 1 208 9 view .LVU339
 208:Core/Src/main.c ****         g_current_height = (uint32_t)h;
 1046              		.loc 1 208 25 is_stmt 0 view .LVU340
 1047 030e 964B     		ldr	r3, .L70+16
 1048 0310 1E60     		str	r6, [r3]
 209:Core/Src/main.c **** 
 1049              		.loc 1 209 9 is_stmt 1 view .LVU341
 209:Core/Src/main.c **** 
 1050              		.loc 1 209 26 is_stmt 0 view .LVU342
 1051 0312 964B     		ldr	r3, .L70+20
 1052 0314 C3F800B0 		str	fp, [r3]
 211:Core/Src/main.c ****         uint32_t start_cycles = dwt_get_cycles();
 1053              		.loc 1 211 9 is_stmt 1 view .LVU343
 211:Core/Src/main.c ****         uint32_t start_cycles = dwt_get_cycles();
 1054              		.loc 1 211 21 is_stmt 0 view .LVU344
 1055 0318 954B     		ldr	r3, .L70+24
 1056 031a 0022     		movs	r2, #0
 1057 031c 5A60     		str	r2, [r3, #4]
 212:Core/Src/main.c ****         uint32_t result_checksum = generate_mandelbrot_checksum_double(w, h, kMaxIter);
 1058              		.loc 1 212 9 is_stmt 1 view .LVU345
 1059              	.LBB199:
 1060              	.LBI199:
 426:Core/Src/main.c **** {
 1061              		.loc 1 426 24 view .LVU346
 1062              	.LBB200:
 428:Core/Src/main.c **** }
 1063              		.loc 1 428 2 view .LVU347
 1064              	.LBE200:
 1065              	.LBE199:
 217:Core/Src/main.c ****         double throughput = total_pixels / elapsed_seconds;
 1066              		.loc 1 217 43 is_stmt 0 view .LVU348
 1067 031e 5846     		mov	r0, fp
ARM GAS  C:\Users\einom\AppData\Local\Temp\ccWbNOsJ.s 			page 51


 1068              	.LBB202:
 1069              	.LBB201:
 428:Core/Src/main.c **** }
 1070              		.loc 1 428 12 view .LVU349
 1071 0320 5C68     		ldr	r4, [r3, #4]
 1072              	.LVL54:
 428:Core/Src/main.c **** }
 1073              		.loc 1 428 12 view .LVU350
 1074              	.LBE201:
 1075              	.LBE202:
 213:Core/Src/main.c ****         uint32_t end_cycles = dwt_get_cycles();
 1076              		.loc 1 213 9 is_stmt 1 view .LVU351
 1077              	.LBB203:
 1078              	.LBI171:
 387:Core/Src/main.c **** {
 1079              		.loc 1 387 17 view .LVU352
 1080              	.LBB196:
 389:Core/Src/main.c **** 	for (uint16_t y = 0; y < height; ++y)
 1081              		.loc 1 389 2 view .LVU353
 390:Core/Src/main.c **** 	{
 1082              		.loc 1 390 2 view .LVU354
 1083              	.LBB193:
 390:Core/Src/main.c **** 	{
 1084              		.loc 1 390 7 view .LVU355
 390:Core/Src/main.c **** 	{
 1085              		.loc 1 390 25 discriminator 1 view .LVU356
 1086              	.LBE193:
 1087              	.LBE196:
 1088              	.LBE203:
 217:Core/Src/main.c ****         double throughput = total_pixels / elapsed_seconds;
 1089              		.loc 1 217 43 is_stmt 0 view .LVU357
 1090 0322 FFF7FEFF 		bl	__aeabi_ui2d
 1091              	.LVL55:
 1092 0326 0746     		mov	r7, r0
 1093 0328 8846     		mov	r8, r1
 217:Core/Src/main.c ****         double throughput = total_pixels / elapsed_seconds;
 1094              		.loc 1 217 31 view .LVU358
 1095 032a 3046     		mov	r0, r6
 217:Core/Src/main.c ****         double throughput = total_pixels / elapsed_seconds;
 1096              		.loc 1 217 43 view .LVU359
 1097 032c CDE91478 		strd	r7, [sp, #80]
 217:Core/Src/main.c ****         double throughput = total_pixels / elapsed_seconds;
 1098              		.loc 1 217 31 view .LVU360
 1099 0330 FFF7FEFF 		bl	__aeabi_ui2d
 1100              	.LVL56:
 1101 0334 CDE91001 		strd	r0, [sp, #64]
 1102              	.LBB204:
 1103              	.LBB197:
 1104              	.LBB194:
 390:Core/Src/main.c **** 	{
 1105              		.loc 1 390 25 discriminator 1 view .LVU361
 1106 0338 BBF1000F 		cmp	fp, #0
 1107 033c 00F09B80 		beq	.L64
 1108 0340 4FF0000A 		mov	r10, #0
 1109              	.LVL57:
 1110              	.LBB190:
 392:Core/Src/main.c **** 		for (uint16_t x = 0; x < width; ++x)
ARM GAS  C:\Users\einom\AppData\Local\Temp\ccWbNOsJ.s 			page 52


 1111              		.loc 1 392 3 is_stmt 1 view .LVU362
 393:Core/Src/main.c **** 		{
 1112              		.loc 1 393 3 view .LVU363
 1113              	.LBB185:
 393:Core/Src/main.c **** 		{
 1114              		.loc 1 393 8 view .LVU364
 393:Core/Src/main.c **** 		{
 1115              		.loc 1 393 26 discriminator 1 view .LVU365
 1116 0344 002E     		cmp	r6, #0
 1117 0346 00F09280 		beq	.L22
 1118              	.LBE185:
 392:Core/Src/main.c **** 		for (uint16_t x = 0; x < width; ++x)
 1119              		.loc 1 392 16 is_stmt 0 view .LVU366
 1120 034a 5046     		mov	r0, r10
 1121 034c FFF7FEFF 		bl	__aeabi_ui2d
 1122              	.LVL58:
 392:Core/Src/main.c **** 		for (uint16_t x = 0; x < width; ++x)
 1123              		.loc 1 392 26 view .LVU367
 1124 0350 3A46     		mov	r2, r7
 1125 0352 4346     		mov	r3, r8
 1126 0354 FFF7FEFF 		bl	__aeabi_ddiv
 1127              	.LVL59:
 1128 0358 0246     		mov	r2, r0
 1129 035a 0B46     		mov	r3, r1
 392:Core/Src/main.c **** 		for (uint16_t x = 0; x < width; ++x)
 1130              		.loc 1 392 44 view .LVU368
 1131 035c FFF7FEFF 		bl	__aeabi_dadd
 1132              	.LVL60:
 392:Core/Src/main.c **** 		for (uint16_t x = 0; x < width; ++x)
 1133              		.loc 1 392 10 view .LVU369
 1134 0360 844B     		ldr	r3, .L70+28
 1135 0362 0022     		movs	r2, #0
 1136 0364 FFF7FEFF 		bl	__aeabi_dsub
 1137              	.LVL61:
 1138 0368 CDE90E01 		strd	r0, [sp, #56]
 1139              	.LBB186:
 1140              	.LBB181:
 399:Core/Src/main.c **** 			{
 1141              		.loc 1 399 32 discriminator 1 view .LVU370
 1142 036c CDE91C54 		strd	r5, r4, [sp, #112]
 1143 0370 CDF858B0 		str	fp, [sp, #88]
 1144 0374 5546     		mov	r5, r10
 1145              	.LVL62:
 399:Core/Src/main.c **** 			{
 1146              		.loc 1 399 32 discriminator 1 view .LVU371
 1147 0376 D346     		mov	fp, r10
 1148              	.LVL63:
 1149              	.L27:
 399:Core/Src/main.c **** 			{
 1150              		.loc 1 399 32 discriminator 1 view .LVU372
 1151              	.LBE181:
 1152              	.LBE186:
 392:Core/Src/main.c **** 		for (uint16_t x = 0; x < width; ++x)
 1153              		.loc 1 392 10 view .LVU373
 1154 0378 4FF0000A 		mov	r10, #0
 1155 037c 1395     		str	r5, [sp, #76]
 1156 037e 5446     		mov	r4, r10
ARM GAS  C:\Users\einom\AppData\Local\Temp\ccWbNOsJ.s 			page 53


 1157              	.LVL64:
 1158              	.L26:
 1159              	.LBB187:
 1160              	.LBB182:
 395:Core/Src/main.c **** 			double xi = 0.0;
 1161              		.loc 1 395 4 is_stmt 1 view .LVU374
 395:Core/Src/main.c **** 			double xi = 0.0;
 1162              		.loc 1 395 17 is_stmt 0 view .LVU375
 1163 0380 A0B2     		uxth	r0, r4
 1164 0382 FFF7FEFF 		bl	__aeabi_ui2d
 1165              	.LVL65:
 395:Core/Src/main.c **** 			double xi = 0.0;
 1166              		.loc 1 395 27 view .LVU376
 1167 0386 DDE91023 		ldrd	r2, [sp, #64]
 1168 038a FFF7FEFF 		bl	__aeabi_ddiv
 1169              	.LVL66:
 395:Core/Src/main.c **** 			double xi = 0.0;
 1170              		.loc 1 395 44 view .LVU377
 1171 038e 7A4B     		ldr	r3, .L70+32
 1172 0390 0022     		movs	r2, #0
 1173 0392 FFF7FEFF 		bl	__aeabi_dmul
 1174              	.LVL67:
 395:Core/Src/main.c **** 			double xi = 0.0;
 1175              		.loc 1 395 11 view .LVU378
 1176 0396 794B     		ldr	r3, .L70+36
 1177 0398 0022     		movs	r2, #0
 1178 039a FFF7FEFF 		bl	__aeabi_dsub
 1179              	.LVL68:
 397:Core/Src/main.c **** 			uint32_t iteration = 0u;
 1180              		.loc 1 397 11 view .LVU379
 1181 039e 4FF00009 		mov	r9, #0
 1182 03a2 4FF0000A 		mov	r10, #0
 395:Core/Src/main.c **** 			double xi = 0.0;
 1183              		.loc 1 395 11 view .LVU380
 1184 03a6 CDE90A01 		strd	r0, [sp, #40]
 1185              	.LVL69:
 396:Core/Src/main.c **** 			double yi = 0.0;
 1186              		.loc 1 396 4 is_stmt 1 view .LVU381
 397:Core/Src/main.c **** 			uint32_t iteration = 0u;
 1187              		.loc 1 397 4 view .LVU382
 398:Core/Src/main.c **** 			while (iteration < max_iter && (xi*xi + yi*yi) <= 4.0)
 1188              		.loc 1 398 4 view .LVU383
 399:Core/Src/main.c **** 			{
 1189              		.loc 1 399 4 view .LVU384
 399:Core/Src/main.c **** 			{
 1190              		.loc 1 399 32 view .LVU385
 398:Core/Src/main.c **** 			while (iteration < max_iter && (xi*xi + yi*yi) <= 4.0)
 1191              		.loc 1 398 13 is_stmt 0 view .LVU386
 1192 03aa 4FF00008 		mov	r8, #0
 396:Core/Src/main.c **** 			double yi = 0.0;
 1193              		.loc 1 396 11 view .LVU387
 1194 03ae 4E46     		mov	r6, r9
 1195 03b0 5746     		mov	r7, r10
 1196 03b2 0D94     		str	r4, [sp, #52]
 1197 03b4 22E0     		b	.L23
 1198              	.LVL70:
 1199              	.L25:
ARM GAS  C:\Users\einom\AppData\Local\Temp\ccWbNOsJ.s 			page 54


 1200              	.LBB177:
 401:Core/Src/main.c **** 				yi = 2.0*xi*yi + y0;
 1201              		.loc 1 401 24 view .LVU388
 1202 03b6 2246     		mov	r2, r4
 1203 03b8 2B46     		mov	r3, r5
 1204 03ba DDE90801 		ldrd	r0, [sp, #32]
 1205 03be FFF7FEFF 		bl	__aeabi_dsub
 1206              	.LVL71:
 401:Core/Src/main.c **** 				yi = 2.0*xi*yi + y0;
 1207              		.loc 1 401 12 view .LVU389
 1208 03c2 DDE90A23 		ldrd	r2, [sp, #40]
 1209 03c6 FFF7FEFF 		bl	__aeabi_dadd
 1210              	.LVL72:
 402:Core/Src/main.c **** 				xi = tmp;
 1211              		.loc 1 402 13 view .LVU390
 1212 03ca 3246     		mov	r2, r6
 1213 03cc 3B46     		mov	r3, r7
 401:Core/Src/main.c **** 				yi = 2.0*xi*yi + y0;
 1214              		.loc 1 401 12 view .LVU391
 1215 03ce 0446     		mov	r4, r0
 1216 03d0 0D46     		mov	r5, r1
 1217              	.LVL73:
 402:Core/Src/main.c **** 				xi = tmp;
 1218              		.loc 1 402 5 is_stmt 1 view .LVU392
 402:Core/Src/main.c **** 				xi = tmp;
 1219              		.loc 1 402 13 is_stmt 0 view .LVU393
 1220 03d2 3046     		mov	r0, r6
 1221 03d4 3946     		mov	r1, r7
 1222 03d6 FFF7FEFF 		bl	__aeabi_dadd
 1223              	.LVL74:
 402:Core/Src/main.c **** 				xi = tmp;
 1224              		.loc 1 402 16 view .LVU394
 1225 03da 4A46     		mov	r2, r9
 1226 03dc 5346     		mov	r3, r10
 1227 03de FFF7FEFF 		bl	__aeabi_dmul
 1228              	.LVL75:
 402:Core/Src/main.c **** 				xi = tmp;
 1229              		.loc 1 402 8 view .LVU395
 1230 03e2 DDE90E23 		ldrd	r2, [sp, #56]
 1231 03e6 FFF7FEFF 		bl	__aeabi_dadd
 1232              	.LVL76:
 404:Core/Src/main.c **** 			}
 1233              		.loc 1 404 5 view .LVU396
 1234 03ea 08F10108 		add	r8, r8, #1
 1235              	.LVL77:
 404:Core/Src/main.c **** 			}
 1236              		.loc 1 404 5 view .LVU397
 1237              	.LBE177:
 399:Core/Src/main.c **** 			{
 1238              		.loc 1 399 32 view .LVU398
 1239 03ee B8F1640F 		cmp	r8, #100
 1240              	.LBB178:
 402:Core/Src/main.c **** 				xi = tmp;
 1241              		.loc 1 402 8 view .LVU399
 1242 03f2 8146     		mov	r9, r0
 1243              	.LVL78:
 402:Core/Src/main.c **** 				xi = tmp;
ARM GAS  C:\Users\einom\AppData\Local\Temp\ccWbNOsJ.s 			page 55


 1244              		.loc 1 402 8 view .LVU400
 1245 03f4 8A46     		mov	r10, r1
 1246              	.LVL79:
 403:Core/Src/main.c **** 				++iteration;
 1247              		.loc 1 403 5 is_stmt 1 view .LVU401
 404:Core/Src/main.c **** 			}
 1248              		.loc 1 404 5 view .LVU402
 404:Core/Src/main.c **** 			}
 1249              		.loc 1 404 5 is_stmt 0 view .LVU403
 1250              	.LBE178:
 399:Core/Src/main.c **** 			{
 1251              		.loc 1 399 32 is_stmt 1 view .LVU404
 1252 03f6 1DD0     		beq	.L24
 1253 03f8 2646     		mov	r6, r4
 1254 03fa 2F46     		mov	r7, r5
 1255              	.LVL80:
 1256              	.L23:
 399:Core/Src/main.c **** 			{
 1257              		.loc 1 399 38 is_stmt 0 discriminator 1 view .LVU405
 1258 03fc 3246     		mov	r2, r6
 1259 03fe 3B46     		mov	r3, r7
 1260 0400 3046     		mov	r0, r6
 1261 0402 3946     		mov	r1, r7
 1262 0404 FFF7FEFF 		bl	__aeabi_dmul
 1263              	.LVL81:
 399:Core/Src/main.c **** 			{
 1264              		.loc 1 399 46 discriminator 1 view .LVU406
 1265 0408 4A46     		mov	r2, r9
 399:Core/Src/main.c **** 			{
 1266              		.loc 1 399 38 discriminator 1 view .LVU407
 1267 040a CDE90801 		strd	r0, [sp, #32]
 399:Core/Src/main.c **** 			{
 1268              		.loc 1 399 46 discriminator 1 view .LVU408
 1269 040e 5346     		mov	r3, r10
 1270 0410 4846     		mov	r0, r9
 1271 0412 5146     		mov	r1, r10
 1272 0414 FFF7FEFF 		bl	__aeabi_dmul
 1273              	.LVL82:
 1274 0418 0446     		mov	r4, r0
 1275 041a 0D46     		mov	r5, r1
 399:Core/Src/main.c **** 			{
 1276              		.loc 1 399 42 discriminator 1 view .LVU409
 1277 041c 2246     		mov	r2, r4
 1278 041e 2B46     		mov	r3, r5
 1279 0420 DDE90801 		ldrd	r0, [sp, #32]
 1280 0424 FFF7FEFF 		bl	__aeabi_dadd
 1281              	.LVL83:
 399:Core/Src/main.c **** 			{
 1282              		.loc 1 399 32 discriminator 1 view .LVU410
 1283 0428 554B     		ldr	r3, .L70+40
 1284 042a 0022     		movs	r2, #0
 1285 042c FFF7FEFF 		bl	__aeabi_dcmple
 1286              	.LVL84:
 1287              	.LBB179:
 401:Core/Src/main.c **** 				yi = 2.0*xi*yi + y0;
 1288              		.loc 1 401 5 is_stmt 1 view .LVU411
 1289              	.LBE179:
ARM GAS  C:\Users\einom\AppData\Local\Temp\ccWbNOsJ.s 			page 56


 399:Core/Src/main.c **** 			{
 1290              		.loc 1 399 32 is_stmt 0 discriminator 1 view .LVU412
 1291 0430 0028     		cmp	r0, #0
 1292 0432 C0D1     		bne	.L25
 1293              	.LVL85:
 1294              	.L24:
 406:Core/Src/main.c **** 		}
 1295              		.loc 1 406 19 view .LVU413
 1296 0434 0D9C     		ldr	r4, [sp, #52]
 406:Core/Src/main.c **** 		}
 1297              		.loc 1 406 4 is_stmt 1 view .LVU414
 1298              	.LBE182:
 393:Core/Src/main.c **** 		{
 1299              		.loc 1 393 26 is_stmt 0 discriminator 1 view .LVU415
 1300 0436 129B     		ldr	r3, [sp, #72]
 1301 0438 0134     		adds	r4, r4, #1
 1302 043a A342     		cmp	r3, r4
 1303              	.LBB183:
 406:Core/Src/main.c **** 		}
 1304              		.loc 1 406 19 view .LVU416
 1305 043c C344     		add	fp, fp, r8
 1306              	.LVL86:
 406:Core/Src/main.c **** 		}
 1307              		.loc 1 406 19 view .LVU417
 1308              	.LBE183:
 393:Core/Src/main.c **** 		{
 1309              		.loc 1 393 35 is_stmt 1 discriminator 2 view .LVU418
 393:Core/Src/main.c **** 		{
 1310              		.loc 1 393 26 discriminator 1 view .LVU419
 1311 043e 9FD1     		bne	.L26
 393:Core/Src/main.c **** 		{
 1312              		.loc 1 393 26 is_stmt 0 discriminator 1 view .LVU420
 1313              	.LBE187:
 1314              	.LBE190:
 390:Core/Src/main.c **** 	{
 1315              		.loc 1 390 25 discriminator 1 view .LVU421
 1316 0440 139D     		ldr	r5, [sp, #76]
 390:Core/Src/main.c **** 	{
 1317              		.loc 1 390 35 is_stmt 1 discriminator 2 view .LVU422
 1318              	.LVL87:
 390:Core/Src/main.c **** 	{
 1319              		.loc 1 390 25 discriminator 1 view .LVU423
 1320 0442 169B     		ldr	r3, [sp, #88]
 1321 0444 0135     		adds	r5, r5, #1
 1322              	.LVL88:
 390:Core/Src/main.c **** 	{
 1323              		.loc 1 390 25 is_stmt 0 discriminator 1 view .LVU424
 1324 0446 AB42     		cmp	r3, r5
 1325 0448 77D0     		beq	.L62
 1326              	.LVL89:
 1327              	.LBB191:
 392:Core/Src/main.c **** 		for (uint16_t x = 0; x < width; ++x)
 1328              		.loc 1 392 3 is_stmt 1 view .LVU425
 392:Core/Src/main.c **** 		for (uint16_t x = 0; x < width; ++x)
 1329              		.loc 1 392 16 is_stmt 0 view .LVU426
 1330 044a A8B2     		uxth	r0, r5
 1331 044c FFF7FEFF 		bl	__aeabi_ui2d
ARM GAS  C:\Users\einom\AppData\Local\Temp\ccWbNOsJ.s 			page 57


 1332              	.LVL90:
 392:Core/Src/main.c **** 		for (uint16_t x = 0; x < width; ++x)
 1333              		.loc 1 392 26 view .LVU427
 1334 0450 DDE91423 		ldrd	r2, [sp, #80]
 1335 0454 FFF7FEFF 		bl	__aeabi_ddiv
 1336              	.LVL91:
 1337 0458 0246     		mov	r2, r0
 1338 045a 0B46     		mov	r3, r1
 392:Core/Src/main.c **** 		for (uint16_t x = 0; x < width; ++x)
 1339              		.loc 1 392 44 view .LVU428
 1340 045c FFF7FEFF 		bl	__aeabi_dadd
 1341              	.LVL92:
 392:Core/Src/main.c **** 		for (uint16_t x = 0; x < width; ++x)
 1342              		.loc 1 392 10 view .LVU429
 1343 0460 444B     		ldr	r3, .L70+28
 1344 0462 0022     		movs	r2, #0
 1345 0464 FFF7FEFF 		bl	__aeabi_dsub
 1346              	.LVL93:
 1347 0468 CDE90E01 		strd	r0, [sp, #56]
 1348              	.LVL94:
 393:Core/Src/main.c **** 		{
 1349              		.loc 1 393 3 is_stmt 1 view .LVU430
 1350              	.LBB188:
 393:Core/Src/main.c **** 		{
 1351              		.loc 1 393 8 view .LVU431
 393:Core/Src/main.c **** 		{
 1352              		.loc 1 393 26 discriminator 1 view .LVU432
 1353 046c 84E7     		b	.L27
 1354              	.LVL95:
 1355              	.L22:
 393:Core/Src/main.c **** 		{
 1356              		.loc 1 393 26 is_stmt 0 discriminator 1 view .LVU433
 1357              	.LBE188:
 1358              	.LBE191:
 390:Core/Src/main.c **** 	{
 1359              		.loc 1 390 35 is_stmt 1 discriminator 2 view .LVU434
 390:Core/Src/main.c **** 	{
 1360              		.loc 1 390 25 discriminator 1 view .LVU435
 1361 046e 0AF1010A 		add	r10, r10, #1
 1362              	.LVL96:
 390:Core/Src/main.c **** 	{
 1363              		.loc 1 390 25 is_stmt 0 discriminator 1 view .LVU436
 1364 0472 D345     		cmp	fp, r10
 1365 0474 FBD1     		bne	.L22
 1366              	.LVL97:
 1367              	.L64:
 390:Core/Src/main.c **** 	{
 1368              		.loc 1 390 25 discriminator 1 view .LVU437
 1369 0476 4FF00009 		mov	r9, #0
 1370              	.LVL98:
 1371              	.L21:
 390:Core/Src/main.c **** 	{
 1372              		.loc 1 390 25 discriminator 1 view .LVU438
 1373              	.LBE194:
 409:Core/Src/main.c **** }
 1374              		.loc 1 409 2 is_stmt 1 view .LVU439
 409:Core/Src/main.c **** }
ARM GAS  C:\Users\einom\AppData\Local\Temp\ccWbNOsJ.s 			page 58


 1375              		.loc 1 409 2 is_stmt 0 view .LVU440
 1376              	.LBE197:
 1377              	.LBE204:
 214:Core/Src/main.c ****         uint32_t elapsed_cycles = end_cycles - start_cycles;
 1378              		.loc 1 214 9 is_stmt 1 view .LVU441
 1379              	.LBB205:
 1380              	.LBI205:
 426:Core/Src/main.c **** {
 1381              		.loc 1 426 24 view .LVU442
 1382              	.LBB206:
 428:Core/Src/main.c **** }
 1383              		.loc 1 428 2 view .LVU443
 428:Core/Src/main.c **** }
 1384              		.loc 1 428 12 is_stmt 0 view .LVU444
 1385 047a 3D4B     		ldr	r3, .L70+24
 1386 047c 5B68     		ldr	r3, [r3, #4]
 1387              	.LVL99:
 428:Core/Src/main.c **** }
 1388              		.loc 1 428 12 view .LVU445
 1389              	.LBE206:
 1390              	.LBE205:
 215:Core/Src/main.c ****         double elapsed_seconds = (double)elapsed_cycles / (double)SystemCoreClock;
 1391              		.loc 1 215 9 is_stmt 1 view .LVU446
 215:Core/Src/main.c ****         double elapsed_seconds = (double)elapsed_cycles / (double)SystemCoreClock;
 1392              		.loc 1 215 18 is_stmt 0 view .LVU447
 1393 047e 1C1B     		subs	r4, r3, r4
 1394              	.LVL100:
 216:Core/Src/main.c ****         double total_pixels = (double)w * (double)h;
 1395              		.loc 1 216 9 is_stmt 1 view .LVU448
 216:Core/Src/main.c ****         double total_pixels = (double)w * (double)h;
 1396              		.loc 1 216 34 is_stmt 0 view .LVU449
 1397 0480 2046     		mov	r0, r4
 1398 0482 FFF7FEFF 		bl	__aeabi_ui2d
 1399              	.LVL101:
 216:Core/Src/main.c ****         double total_pixels = (double)w * (double)h;
 1400              		.loc 1 216 59 view .LVU450
 1401 0486 3F4B     		ldr	r3, .L70+44
 216:Core/Src/main.c ****         double total_pixels = (double)w * (double)h;
 1402              		.loc 1 216 34 view .LVU451
 1403 0488 0646     		mov	r6, r0
 216:Core/Src/main.c ****         double total_pixels = (double)w * (double)h;
 1404              		.loc 1 216 59 view .LVU452
 1405 048a 1868     		ldr	r0, [r3]
 216:Core/Src/main.c ****         double total_pixels = (double)w * (double)h;
 1406              		.loc 1 216 34 view .LVU453
 1407 048c 0F46     		mov	r7, r1
 216:Core/Src/main.c ****         double total_pixels = (double)w * (double)h;
 1408              		.loc 1 216 59 view .LVU454
 1409 048e FFF7FEFF 		bl	__aeabi_ui2d
 1410              	.LVL102:
 1411 0492 0246     		mov	r2, r0
 1412 0494 0B46     		mov	r3, r1
 216:Core/Src/main.c ****         double total_pixels = (double)w * (double)h;
 1413              		.loc 1 216 16 view .LVU455
 1414 0496 3046     		mov	r0, r6
 1415 0498 3946     		mov	r1, r7
 1416 049a FFF7FEFF 		bl	__aeabi_ddiv
ARM GAS  C:\Users\einom\AppData\Local\Temp\ccWbNOsJ.s 			page 59


 1417              	.LVL103:
 217:Core/Src/main.c ****         double throughput = total_pixels / elapsed_seconds;
 1418              		.loc 1 217 16 view .LVU456
 1419 049e DDE91023 		ldrd	r2, [sp, #64]
 216:Core/Src/main.c ****         double total_pixels = (double)w * (double)h;
 1420              		.loc 1 216 16 view .LVU457
 1421 04a2 0646     		mov	r6, r0
 1422 04a4 0F46     		mov	r7, r1
 1423              	.LVL104:
 217:Core/Src/main.c ****         double throughput = total_pixels / elapsed_seconds;
 1424              		.loc 1 217 9 is_stmt 1 view .LVU458
 218:Core/Src/main.c **** 
 1425              		.loc 1 218 9 view .LVU459
 217:Core/Src/main.c ****         double throughput = total_pixels / elapsed_seconds;
 1426              		.loc 1 217 16 is_stmt 0 view .LVU460
 1427 04a6 DDE91401 		ldrd	r0, [sp, #80]
 1428 04aa FFF7FEFF 		bl	__aeabi_dmul
 1429              	.LVL105:
 218:Core/Src/main.c **** 
 1430              		.loc 1 218 16 view .LVU461
 1431 04ae 3246     		mov	r2, r6
 1432 04b0 3B46     		mov	r3, r7
 1433 04b2 FFF7FEFF 		bl	__aeabi_ddiv
 1434              	.LVL106:
 221:Core/Src/main.c ****         g_current_checksum = result_checksum;
 1435              		.loc 1 221 9 is_stmt 1 view .LVU462
 222:Core/Src/main.c ****         g_current_execution_time = elapsed_seconds * 1000.0;
 1436              		.loc 1 222 9 view .LVU463
 221:Core/Src/main.c ****         g_current_checksum = result_checksum;
 1437              		.loc 1 221 26 is_stmt 0 view .LVU464
 1438 04b6 344B     		ldr	r3, .L70+48
 1439 04b8 1C60     		str	r4, [r3]
 222:Core/Src/main.c ****         g_current_execution_time = elapsed_seconds * 1000.0;
 1440              		.loc 1 222 28 view .LVU465
 1441 04ba 344B     		ldr	r3, .L70+52
 218:Core/Src/main.c **** 
 1442              		.loc 1 218 16 view .LVU466
 1443 04bc CDE90801 		strd	r0, [sp, #32]
 1444              	.LVL107:
 222:Core/Src/main.c ****         g_current_execution_time = elapsed_seconds * 1000.0;
 1445              		.loc 1 222 28 view .LVU467
 1446 04c0 C3F80090 		str	r9, [r3]
 223:Core/Src/main.c ****         g_current_throughput = throughput;
 1447              		.loc 1 223 9 is_stmt 1 view .LVU468
 223:Core/Src/main.c ****         g_current_throughput = throughput;
 1448              		.loc 1 223 52 is_stmt 0 view .LVU469
 1449 04c4 0022     		movs	r2, #0
 1450 04c6 324B     		ldr	r3, .L70+56
 1451 04c8 3046     		mov	r0, r6
 1452 04ca 3946     		mov	r1, r7
 1453 04cc FFF7FEFF 		bl	__aeabi_dmul
 1454              	.LVL108:
 1455              	.LBB207:
 1456              	.LBB208:
 434:Core/Src/main.c **** 			precision, (unsigned)width, (unsigned)height, (unsigned long)cycles, seconds, throughput, (unsig
 1457              		.loc 1 434 2 view .LVU470
 1458 04d0 47EC176B 		vmov	d7, r6, r7
ARM GAS  C:\Users\einom\AppData\Local\Temp\ccWbNOsJ.s 			page 60


 1459 04d4 8DED027B 		vstr.64	d7, [sp, #8]
 1460 04d8 9DED087B 		vldr.64	d7, [sp, #32]
 1461              	.LBE208:
 1462              	.LBE207:
 223:Core/Src/main.c ****         g_current_throughput = throughput;
 1463              		.loc 1 223 34 view .LVU471
 1464 04dc 2D4E     		ldr	r6, .L70+60
 1465              	.LVL109:
 1466              	.LBB214:
 1467              	.LBB209:
 434:Core/Src/main.c **** 			precision, (unsigned)width, (unsigned)height, (unsigned long)cycles, seconds, throughput, (unsig
 1468              		.loc 1 434 2 view .LVU472
 1469 04de CDF81890 		str	r9, [sp, #24]
 1470 04e2 8DED047B 		vstr.64	d7, [sp, #16]
 1471 04e6 0094     		str	r4, [sp]
 1472              	.LBE209:
 1473              	.LBE214:
 223:Core/Src/main.c ****         g_current_throughput = throughput;
 1474              		.loc 1 223 34 view .LVU473
 1475 04e8 C6E90001 		strd	r0, [r6]
 224:Core/Src/main.c **** 
 1476              		.loc 1 224 9 is_stmt 1 view .LVU474
 224:Core/Src/main.c **** 
 1477              		.loc 1 224 30 is_stmt 0 view .LVU475
 1478 04ec 2A4E     		ldr	r6, .L70+64
 1479              	.LBB215:
 1480              	.LBB210:
 434:Core/Src/main.c **** 			precision, (unsigned)width, (unsigned)height, (unsigned long)cycles, seconds, throughput, (unsig
 1481              		.loc 1 434 2 view .LVU476
 1482 04ee 129A     		ldr	r2, [sp, #72]
 1483              	.LBE210:
 1484              	.LBE215:
 224:Core/Src/main.c **** 
 1485              		.loc 1 224 30 view .LVU477
 1486 04f0 86ED007B 		vstr.64	d7, [r6]
 227:Core/Src/main.c ****         execution_time_ms_double[size_index] = elapsed_seconds * 1000.0;
 1487              		.loc 1 227 9 is_stmt 1 view .LVU478
 227:Core/Src/main.c ****         execution_time_ms_double[size_index] = elapsed_seconds * 1000.0;
 1488              		.loc 1 227 37 is_stmt 0 view .LVU479
 1489 04f4 294E     		ldr	r6, .L70+68
 1490 04f6 46F82590 		str	r9, [r6, r5, lsl #2]
 228:Core/Src/main.c ****         cpu_cycles_double[size_index] = elapsed_cycles;
 1491              		.loc 1 228 9 is_stmt 1 view .LVU480
 228:Core/Src/main.c ****         cpu_cycles_double[size_index] = elapsed_cycles;
 1492              		.loc 1 228 46 is_stmt 0 view .LVU481
 1493 04fa 294E     		ldr	r6, .L70+72
 1494 04fc 06EBC50C 		add	ip, r6, r5, lsl #3
 1495 0500 CCE90001 		strd	r0, [ip]
 229:Core/Src/main.c ****         throughput_pps_double[size_index] = throughput;
 1496              		.loc 1 229 9 is_stmt 1 view .LVU482
 229:Core/Src/main.c ****         throughput_pps_double[size_index] = throughput;
 1497              		.loc 1 229 39 is_stmt 0 view .LVU483
 1498 0504 2749     		ldr	r1, .L70+76
 1499              	.LBB216:
 1500              	.LBB211:
 434:Core/Src/main.c **** 			precision, (unsigned)width, (unsigned)height, (unsigned long)cycles, seconds, throughput, (unsig
 1501              		.loc 1 434 2 view .LVU484
ARM GAS  C:\Users\einom\AppData\Local\Temp\ccWbNOsJ.s 			page 61


 1502 0506 2848     		ldr	r0, .L70+80
 1503              	.LBE211:
 1504              	.LBE216:
 229:Core/Src/main.c ****         throughput_pps_double[size_index] = throughput;
 1505              		.loc 1 229 39 view .LVU485
 1506 0508 41F82540 		str	r4, [r1, r5, lsl #2]
 230:Core/Src/main.c **** 
 1507              		.loc 1 230 9 is_stmt 1 view .LVU486
 230:Core/Src/main.c **** 
 1508              		.loc 1 230 43 is_stmt 0 view .LVU487
 1509 050c 2749     		ldr	r1, .L70+84
 1510 050e 01EBC501 		add	r1, r1, r5, lsl #3
 1511 0512 81ED007B 		vstr.64	d7, [r1]
 232:Core/Src/main.c ****       }
 1512              		.loc 1 232 9 is_stmt 1 view .LVU488
 1513              	.LVL110:
 1514              	.LBB217:
 1515              	.LBI207:
 431:Core/Src/main.c **** {
 1516              		.loc 1 431 13 view .LVU489
 1517              	.LBB212:
 433:Core/Src/main.c **** 	printf("%s: %ux%u, cycles %lu, time %.6f s, throughput %.0f pps, checksum %lu\r\n",
 1518              		.loc 1 433 2 view .LVU490
 434:Core/Src/main.c **** 			precision, (unsigned)width, (unsigned)height, (unsigned long)cycles, seconds, throughput, (unsig
 1519              		.loc 1 434 2 view .LVU491
 1520 0516 5B46     		mov	r3, fp
 1521 0518 2549     		ldr	r1, .L70+88
 1522              	.LBE212:
 1523              	.LBE217:
 1524              	.LBE219:
 204:Core/Src/main.c ****       {
 1525              		.loc 1 204 67 is_stmt 0 discriminator 3 view .LVU492
 1526 051a 0135     		adds	r5, r5, #1
 1527              	.LBB220:
 1528              	.LBB218:
 1529              	.LBB213:
 434:Core/Src/main.c **** 			precision, (unsigned)width, (unsigned)height, (unsigned long)cycles, seconds, throughput, (unsig
 1530              		.loc 1 434 2 view .LVU493
 1531 051c FFF7FEFF 		bl	printf
 1532              	.LVL111:
 434:Core/Src/main.c **** 			precision, (unsigned)width, (unsigned)height, (unsigned long)cycles, seconds, throughput, (unsig
 1533              		.loc 1 434 2 view .LVU494
 1534              	.LBE213:
 1535              	.LBE218:
 1536              	.LBE220:
 204:Core/Src/main.c ****       {
 1537              		.loc 1 204 67 is_stmt 1 discriminator 3 view .LVU495
 204:Core/Src/main.c ****       {
 1538              		.loc 1 204 48 discriminator 1 view .LVU496
 1539 0520 052D     		cmp	r5, #5
 1540 0522 10D0     		beq	.L29
 1541              	.LBB221:
 206:Core/Src/main.c ****         uint16_t h = kHeights[size_index];
 1542              		.loc 1 206 18 is_stmt 0 view .LVU497
 1543 0524 189B     		ldr	r3, [sp, #96]
 1544 0526 33F8022F 		ldrh	r2, [r3, #2]!
 1545 052a 1893     		str	r3, [sp, #96]
ARM GAS  C:\Users\einom\AppData\Local\Temp\ccWbNOsJ.s 			page 62


 207:Core/Src/main.c ****         g_current_width = (uint32_t)w;
 1546              		.loc 1 207 18 view .LVU498
 1547 052c 179B     		ldr	r3, [sp, #92]
 206:Core/Src/main.c ****         uint16_t h = kHeights[size_index];
 1548              		.loc 1 206 18 view .LVU499
 1549 052e 1292     		str	r2, [sp, #72]
 207:Core/Src/main.c ****         g_current_width = (uint32_t)w;
 1550              		.loc 1 207 18 view .LVU500
 1551 0530 33F802BF 		ldrh	fp, [r3, #2]!
 1552 0534 1793     		str	r3, [sp, #92]
 1553 0536 1646     		mov	r6, r2
 1554 0538 E9E6     		b	.L30
 1555              	.LVL112:
 1556              	.L62:
 207:Core/Src/main.c ****         g_current_width = (uint32_t)w;
 1557              		.loc 1 207 18 view .LVU501
 1558 053a D946     		mov	r9, fp
 1559              	.LVL113:
 207:Core/Src/main.c ****         g_current_width = (uint32_t)w;
 1560              		.loc 1 207 18 view .LVU502
 1561 053c DDE91C54 		ldrd	r5, r4, [sp, #112]
 1562 0540 DDF858B0 		ldr	fp, [sp, #88]
 1563              	.LVL114:
 207:Core/Src/main.c ****         g_current_width = (uint32_t)w;
 1564              		.loc 1 207 18 view .LVU503
 1565 0544 99E7     		b	.L21
 1566              	.LVL115:
 1567              	.L29:
 207:Core/Src/main.c ****         g_current_width = (uint32_t)w;
 1568              		.loc 1 207 18 view .LVU504
 1569              	.LBE221:
 1570              	.LBE223:
 236:Core/Src/main.c ****       for (uint32_t size_index = 0; size_index < kNumResolutions; ++size_index)
 1571              		.loc 1 236 7 view .LVU505
 1572 0546 1B48     		ldr	r0, .L70+92
 1573              	.LBB224:
 1574              	.LBB225:
 1575              	.LBB226:
 1576              	.LBB227:
 440:Core/Src/main.c **** 			(unsigned)width, (unsigned)height, (unsigned long)checksum_float, (unsigned long)checksum_double
 1577              		.loc 1 440 2 view .LVU506
 1578 0548 DFF86CB0 		ldr	fp, .L70+96
 1579              	.LBE227:
 1580              	.LBE226:
 1581              	.LBE225:
 1582              	.LBE224:
 236:Core/Src/main.c ****       for (uint32_t size_index = 0; size_index < kNumResolutions; ++size_index)
 1583              		.loc 1 236 7 view .LVU507
 1584 054c DDE91A67 		ldrd	r6, r7, [sp, #104]
 236:Core/Src/main.c ****       for (uint32_t size_index = 0; size_index < kNumResolutions; ++size_index)
 1585              		.loc 1 236 7 is_stmt 1 view .LVU508
 1586              	.LBB240:
 237:Core/Src/main.c ****       {
 1587              		.loc 1 237 21 is_stmt 0 view .LVU509
 1588 0550 0024     		movs	r4, #0
 1589              	.LVL116:
 237:Core/Src/main.c ****       {
ARM GAS  C:\Users\einom\AppData\Local\Temp\ccWbNOsJ.s 			page 63


 1590              		.loc 1 237 21 view .LVU510
 1591              	.LBE240:
 236:Core/Src/main.c ****       for (uint32_t size_index = 0; size_index < kNumResolutions; ++size_index)
 1592              		.loc 1 236 7 view .LVU511
 1593 0552 FFF7FEFF 		bl	puts
 1594              	.LVL117:
 237:Core/Src/main.c ****       {
 1595              		.loc 1 237 7 is_stmt 1 view .LVU512
 1596              	.LBB241:
 237:Core/Src/main.c ****       {
 1597              		.loc 1 237 12 view .LVU513
 237:Core/Src/main.c ****       {
 1598              		.loc 1 237 48 discriminator 1 view .LVU514
 1599 0556 86E0     		b	.L36
 1600              	.L71:
 1601              		.align	2
 1602              	.L70:
 1603 0558 00000000 		.word	g_current_test_mode
 1604 055c CC000000 		.word	.LC5
 1605 0560 00000000 		.word	kHeights
 1606 0564 00000000 		.word	kWidths
 1607 0568 00000000 		.word	g_current_width
 1608 056c 00000000 		.word	g_current_height
 1609 0570 001000E0 		.word	-536866816
 1610 0574 0000F03F 		.word	1072693248
 1611 0578 00000C40 		.word	1074528256
 1612 057c 00000440 		.word	1074003968
 1613 0580 00001040 		.word	1074790400
 1614 0584 00000000 		.word	SystemCoreClock
 1615 0588 00000000 		.word	g_current_cycles
 1616 058c 00000000 		.word	g_current_checksum
 1617 0590 00408F40 		.word	1083129856
 1618 0594 00000000 		.word	g_current_execution_time
 1619 0598 00000000 		.word	g_current_throughput
 1620 059c 00000000 		.word	checksum_double
 1621 05a0 00000000 		.word	execution_time_ms_double
 1622 05a4 00000000 		.word	cpu_cycles_double
 1623 05a8 84000000 		.word	.LC4
 1624 05ac 00000000 		.word	throughput_pps_double
 1625 05b0 00010000 		.word	.LC6
 1626 05b4 08010000 		.word	.LC7
 1627 05b8 34010000 		.word	.LC8
 1628              	.LVL118:
 1629              	.L67:
 1630              	.LBB237:
 245:Core/Src/main.c ****         }
 1631              		.loc 1 245 50 is_stmt 0 view .LVU515
 1632 05bc 764B     		ldr	r3, .L72+8
 1633 05be 53F82400 		ldr	r0, [r3, r4, lsl #2]
 245:Core/Src/main.c ****         }
 1634              		.loc 1 245 88 view .LVU516
 1635 05c2 52F82490 		ldr	r9, [r2, r4, lsl #2]
 245:Core/Src/main.c ****         }
 1636              		.loc 1 245 127 view .LVU517
 1637 05c6 52F82430 		ldr	r3, [r2, r4, lsl #2]
 1638 05ca 0893     		str	r3, [sp, #32]
 245:Core/Src/main.c ****         }
ARM GAS  C:\Users\einom\AppData\Local\Temp\ccWbNOsJ.s 			page 64


 1639              		.loc 1 245 28 view .LVU518
 1640 05cc FFF7FEFF 		bl	__aeabi_ui2d
 1641              	.LVL119:
 1642 05d0 0246     		mov	r2, r0
 245:Core/Src/main.c ****         }
 1643              		.loc 1 245 65 view .LVU519
 1644 05d2 4846     		mov	r0, r9
 245:Core/Src/main.c ****         }
 1645              		.loc 1 245 28 view .LVU520
 1646 05d4 9046     		mov	r8, r2
 1647 05d6 8946     		mov	r9, r1
 245:Core/Src/main.c ****         }
 1648              		.loc 1 245 65 view .LVU521
 1649 05d8 FFF7FEFF 		bl	__aeabi_ui2d
 1650              	.LVL120:
 1651 05dc 0246     		mov	r2, r0
 1652 05de 0B46     		mov	r3, r1
 245:Core/Src/main.c ****         }
 1653              		.loc 1 245 63 view .LVU522
 1654 05e0 4046     		mov	r0, r8
 1655 05e2 4946     		mov	r1, r9
 1656 05e4 FFF7FEFF 		bl	__aeabi_dsub
 1657              	.LVL121:
 1658 05e8 8046     		mov	r8, r0
 245:Core/Src/main.c ****         }
 1659              		.loc 1 245 104 view .LVU523
 1660 05ea 0898     		ldr	r0, [sp, #32]
 245:Core/Src/main.c ****         }
 1661              		.loc 1 245 63 view .LVU524
 1662 05ec 8946     		mov	r9, r1
 245:Core/Src/main.c ****         }
 1663              		.loc 1 245 104 view .LVU525
 1664 05ee FFF7FEFF 		bl	__aeabi_ui2d
 1665              	.LVL122:
 1666 05f2 0246     		mov	r2, r0
 1667 05f4 0B46     		mov	r3, r1
 245:Core/Src/main.c ****         }
 1668              		.loc 1 245 102 view .LVU526
 1669 05f6 4046     		mov	r0, r8
 1670 05f8 4946     		mov	r1, r9
 1671 05fa FFF7FEFF 		bl	__aeabi_ddiv
 1672              	.LVL123:
 245:Core/Src/main.c ****         }
 1673              		.loc 1 245 25 view .LVU527
 1674 05fe 674B     		ldr	r3, .L72+12
 1675 0600 0022     		movs	r2, #0
 1676 0602 FFF7FEFF 		bl	__aeabi_dmul
 1677              	.LVL124:
 1678 0606 0246     		mov	r2, r0
 1679 0608 0B46     		mov	r3, r1
 1680              	.LVL125:
 1681              	.L31:
 247:Core/Src/main.c ****         
 1682              		.loc 1 247 9 is_stmt 1 view .LVU528
 247:Core/Src/main.c ****         
 1683              		.loc 1 247 43 is_stmt 0 view .LVU529
 1684 060a 6549     		ldr	r1, .L72+16
ARM GAS  C:\Users\einom\AppData\Local\Temp\ccWbNOsJ.s 			page 65


 1685 060c 01EBC401 		add	r1, r1, r4, lsl #3
 1686 0610 C1E90023 		strd	r2, [r1]
 250:Core/Src/main.c ****         if (execution_time_ms_float[size_index] != 0) {
 1687              		.loc 1 250 9 is_stmt 1 view .LVU530
 1688              	.LVL126:
 251:Core/Src/main.c ****           speedup = execution_time_ms_double[size_index] / execution_time_ms_float[size_index];
 1689              		.loc 1 251 9 view .LVU531
 251:Core/Src/main.c ****           speedup = execution_time_ms_double[size_index] / execution_time_ms_float[size_index];
 1690              		.loc 1 251 36 is_stmt 0 view .LVU532
 1691 0614 634B     		ldr	r3, .L72+20
 1692 0616 03EBC409 		add	r9, r3, r4, lsl #3
 251:Core/Src/main.c ****           speedup = execution_time_ms_double[size_index] / execution_time_ms_float[size_index];
 1693              		.loc 1 251 12 view .LVU533
 1694 061a D9E90001 		ldrd	r0, [r9]
 1695 061e 0022     		movs	r2, #0
 1696              	.LVL127:
 251:Core/Src/main.c ****           speedup = execution_time_ms_double[size_index] / execution_time_ms_float[size_index];
 1697              		.loc 1 251 12 view .LVU534
 1698 0620 0023     		movs	r3, #0
 247:Core/Src/main.c ****         
 1699              		.loc 1 247 43 view .LVU535
 1700 0622 4FEAC408 		lsl	r8, r4, #3
 251:Core/Src/main.c ****           speedup = execution_time_ms_double[size_index] / execution_time_ms_float[size_index];
 1701              		.loc 1 251 12 view .LVU536
 1702 0626 FFF7FEFF 		bl	__aeabi_dcmpeq
 1703              	.LVL128:
 252:Core/Src/main.c ****         }
 1704              		.loc 1 252 11 is_stmt 1 view .LVU537
 254:Core/Src/main.c ****         
 1705              		.loc 1 254 9 view .LVU538
 251:Core/Src/main.c ****           speedup = execution_time_ms_double[size_index] / execution_time_ms_float[size_index];
 1706              		.loc 1 251 12 is_stmt 0 view .LVU539
 1707 062a 50BB     		cbnz	r0, .L58
 252:Core/Src/main.c ****         }
 1708              		.loc 1 252 45 view .LVU540
 1709 062c 5E4B     		ldr	r3, .L72+24
 1710 062e 4344     		add	r3, r3, r8
 1711 0630 D3E90001 		ldrd	r0, [r3]
 252:Core/Src/main.c ****         }
 1712              		.loc 1 252 19 view .LVU541
 1713 0634 D9E90023 		ldrd	r2, [r9]
 1714 0638 FFF7FEFF 		bl	__aeabi_ddiv
 1715              	.LVL129:
 254:Core/Src/main.c ****         
 1716              		.loc 1 254 9 is_stmt 1 view .LVU542
 254:Core/Src/main.c ****         
 1717              		.loc 1 254 36 is_stmt 0 view .LVU543
 1718 063c 5B4B     		ldr	r3, .L72+28
 1719 063e 9844     		add	r8, r8, r3
 1720 0640 C8E90001 		strd	r0, [r8]
 256:Core/Src/main.c ****       }
 1721              		.loc 1 256 9 is_stmt 1 view .LVU544
 1722              	.LBB233:
 1723              	.LBB228:
 440:Core/Src/main.c **** 			(unsigned)width, (unsigned)height, (unsigned long)checksum_float, (unsigned long)checksum_double
 1724              		.loc 1 440 2 is_stmt 0 view .LVU545
 1725 0644 CDE90201 		strd	r0, [sp, #8]
ARM GAS  C:\Users\einom\AppData\Local\Temp\ccWbNOsJ.s 			page 66


 1726              	.LVL130:
 1727              	.L65:
 440:Core/Src/main.c **** 			(unsigned)width, (unsigned)height, (unsigned long)checksum_float, (unsigned long)checksum_double
 1728              		.loc 1 440 2 view .LVU546
 1729              	.LBE228:
 1730              	.LBE233:
 256:Core/Src/main.c ****       }
 1731              		.loc 1 256 48 view .LVU547
 1732 0648 534B     		ldr	r3, .L72+8
 256:Core/Src/main.c ****       }
 1733              		.loc 1 256 77 view .LVU548
 1734 064a 5948     		ldr	r0, .L72+32
 256:Core/Src/main.c ****       }
 1735              		.loc 1 256 48 view .LVU549
 1736 064c 53F82430 		ldr	r3, [r3, r4, lsl #2]
 256:Core/Src/main.c ****       }
 1737              		.loc 1 256 77 view .LVU550
 1738 0650 50F82400 		ldr	r0, [r0, r4, lsl #2]
 1739              	.LBB234:
 1740              	.LBB229:
 440:Core/Src/main.c **** 			(unsigned)width, (unsigned)height, (unsigned long)checksum_float, (unsigned long)checksum_double
 1741              		.loc 1 440 2 view .LVU551
 1742 0654 0090     		str	r0, [sp]
 1743 0656 5246     		mov	r2, r10
 1744              	.LVL131:
 440:Core/Src/main.c **** 			(unsigned)width, (unsigned)height, (unsigned long)checksum_float, (unsigned long)checksum_double
 1745              		.loc 1 440 2 view .LVU552
 1746              	.LBE229:
 1747              	.LBI226:
 438:Core/Src/main.c **** {
 1748              		.loc 1 438 13 is_stmt 1 view .LVU553
 1749              	.LBB230:
 440:Core/Src/main.c **** 			(unsigned)width, (unsigned)height, (unsigned long)checksum_float, (unsigned long)checksum_double
 1750              		.loc 1 440 2 view .LVU554
 1751 0658 2946     		mov	r1, r5
 1752 065a 5846     		mov	r0, fp
 1753              	.LVL132:
 440:Core/Src/main.c **** 			(unsigned)width, (unsigned)height, (unsigned long)checksum_float, (unsigned long)checksum_double
 1754              		.loc 1 440 2 is_stmt 0 view .LVU555
 1755              	.LBE230:
 1756              	.LBE234:
 1757              	.LBE237:
 237:Core/Src/main.c ****       {
 1758              		.loc 1 237 67 discriminator 2 view .LVU556
 1759 065c 0134     		adds	r4, r4, #1
 1760              	.LVL133:
 1761              	.LBB238:
 1762              	.LBB235:
 1763              	.LBB231:
 440:Core/Src/main.c **** 			(unsigned)width, (unsigned)height, (unsigned long)checksum_float, (unsigned long)checksum_double
 1764              		.loc 1 440 2 view .LVU557
 1765 065e FFF7FEFF 		bl	printf
 1766              	.LVL134:
 440:Core/Src/main.c **** 			(unsigned)width, (unsigned)height, (unsigned long)checksum_float, (unsigned long)checksum_double
 1767              		.loc 1 440 2 view .LVU558
 1768              	.LBE231:
 1769              	.LBE235:
ARM GAS  C:\Users\einom\AppData\Local\Temp\ccWbNOsJ.s 			page 67


 1770              	.LBE238:
 237:Core/Src/main.c ****       {
 1771              		.loc 1 237 67 is_stmt 1 discriminator 2 view .LVU559
 237:Core/Src/main.c ****       {
 1772              		.loc 1 237 48 discriminator 1 view .LVU560
 1773 0662 052C     		cmp	r4, #5
 1774 0664 16D0     		beq	.L66
 1775              	.LVL135:
 1776              	.L36:
 1777              	.LBB239:
 239:Core/Src/main.c ****         uint16_t h = kHeights[size_index];
 1778              		.loc 1 239 9 view .LVU561
 245:Core/Src/main.c ****         }
 1779              		.loc 1 245 11 view .LVU562
 244:Core/Src/main.c ****           accuracy_diff = ((double)checksum_float[size_index] - (double)checksum_double[size_index]
 1780              		.loc 1 244 28 is_stmt 0 view .LVU563
 1781 0666 524A     		ldr	r2, .L72+32
 239:Core/Src/main.c ****         uint16_t h = kHeights[size_index];
 1782              		.loc 1 239 18 view .LVU564
 1783 0668 1999     		ldr	r1, [sp, #100]
 244:Core/Src/main.c ****           accuracy_diff = ((double)checksum_float[size_index] - (double)checksum_double[size_index]
 1784              		.loc 1 244 28 view .LVU565
 1785 066a 52F82430 		ldr	r3, [r2, r4, lsl #2]
 239:Core/Src/main.c ****         uint16_t h = kHeights[size_index];
 1786              		.loc 1 239 18 view .LVU566
 1787 066e 31F8025B 		ldrh	r5, [r1], #2
 240:Core/Src/main.c ****         
 1788              		.loc 1 240 18 view .LVU567
 1789 0672 37F802AB 		ldrh	r10, [r7], #2
 239:Core/Src/main.c ****         uint16_t h = kHeights[size_index];
 1790              		.loc 1 239 18 view .LVU568
 1791 0676 1991     		str	r1, [sp, #100]
 1792              	.LVL136:
 240:Core/Src/main.c ****         
 1793              		.loc 1 240 9 is_stmt 1 view .LVU569
 243:Core/Src/main.c ****         if (checksum_double[size_index] != 0) {
 1794              		.loc 1 243 9 view .LVU570
 244:Core/Src/main.c ****           accuracy_diff = ((double)checksum_float[size_index] - (double)checksum_double[size_index]
 1795              		.loc 1 244 9 view .LVU571
 244:Core/Src/main.c ****           accuracy_diff = ((double)checksum_float[size_index] - (double)checksum_double[size_index]
 1796              		.loc 1 244 12 is_stmt 0 view .LVU572
 1797 0678 002B     		cmp	r3, #0
 1798 067a 9FD1     		bne	.L67
 243:Core/Src/main.c ****         if (checksum_double[size_index] != 0) {
 1799              		.loc 1 243 16 view .LVU573
 1800 067c 0022     		movs	r2, #0
 1801 067e 0023     		movs	r3, #0
 1802 0680 C3E7     		b	.L31
 1803              	.LVL137:
 1804              	.L58:
 254:Core/Src/main.c ****         
 1805              		.loc 1 254 36 view .LVU574
 1806 0682 9FED437B 		vldr.64	d7, .L72
 1807 0686 494B     		ldr	r3, .L72+28
 1808 0688 9844     		add	r8, r8, r3
 1809 068a 88ED007B 		vstr.64	d7, [r8]
 256:Core/Src/main.c ****       }
ARM GAS  C:\Users\einom\AppData\Local\Temp\ccWbNOsJ.s 			page 68


 1810              		.loc 1 256 9 is_stmt 1 view .LVU575
 1811              	.LBB236:
 1812              	.LBB232:
 440:Core/Src/main.c **** 			(unsigned)width, (unsigned)height, (unsigned long)checksum_float, (unsigned long)checksum_double
 1813              		.loc 1 440 2 is_stmt 0 view .LVU576
 1814 068e 8DED027B 		vstr.64	d7, [sp, #8]
 1815 0692 D9E7     		b	.L65
 1816              	.LVL138:
 1817              	.L66:
 440:Core/Src/main.c **** 			(unsigned)width, (unsigned)height, (unsigned long)checksum_float, (unsigned long)checksum_double
 1818              		.loc 1 440 2 view .LVU577
 1819              	.LBE232:
 1820              	.LBE236:
 1821              	.LBE239:
 1822              	.LBE241:
 260:Core/Src/main.c ****       g_total_program_cycles = program_end_cycles - program_start_cycles;
 1823              		.loc 1 260 7 is_stmt 1 view .LVU578
 1824              	.LBB242:
 1825              	.LBI242:
 426:Core/Src/main.c **** {
 1826              		.loc 1 426 24 view .LVU579
 1827              	.LBB243:
 428:Core/Src/main.c **** }
 1828              		.loc 1 428 2 view .LVU580
 428:Core/Src/main.c **** }
 1829              		.loc 1 428 12 is_stmt 0 view .LVU581
 1830 0694 474B     		ldr	r3, .L72+36
 1831              	.LBE243:
 1832              	.LBE242:
 261:Core/Src/main.c ****       g_total_program_time_ms = (double)g_total_program_cycles / (double)SystemCoreClock * 1000.0;
 1833              		.loc 1 261 30 view .LVU582
 1834 0696 484A     		ldr	r2, .L72+40
 1835              	.LBB245:
 1836              	.LBB244:
 428:Core/Src/main.c **** }
 1837              		.loc 1 428 12 view .LVU583
 1838 0698 5B68     		ldr	r3, [r3, #4]
 1839              	.LVL139:
 428:Core/Src/main.c **** }
 1840              		.loc 1 428 12 view .LVU584
 1841              	.LBE244:
 1842              	.LBE245:
 261:Core/Src/main.c ****       g_total_program_time_ms = (double)g_total_program_cycles / (double)SystemCoreClock * 1000.0;
 1843              		.loc 1 261 7 is_stmt 1 view .LVU585
 1844              	.LBB246:
 267:Core/Src/main.c ****       }
 1845              		.loc 1 267 52 is_stmt 0 view .LVU586
 1846 069a 424F     		ldr	r7, .L72+20
 1847              	.LBE246:
 261:Core/Src/main.c ****       g_total_program_time_ms = (double)g_total_program_cycles / (double)SystemCoreClock * 1000.0;
 1848              		.loc 1 261 51 view .LVU587
 1849 069c 9B1B     		subs	r3, r3, r6
 1850              	.LVL140:
 261:Core/Src/main.c ****       g_total_program_time_ms = (double)g_total_program_cycles / (double)SystemCoreClock * 1000.0;
 1851              		.loc 1 261 30 view .LVU588
 1852 069e 1360     		str	r3, [r2]
 262:Core/Src/main.c ****       
ARM GAS  C:\Users\einom\AppData\Local\Temp\ccWbNOsJ.s 			page 69


 1853              		.loc 1 262 7 is_stmt 1 view .LVU589
 262:Core/Src/main.c ****       
 1854              		.loc 1 262 33 is_stmt 0 view .LVU590
 1855 06a0 1068     		ldr	r0, [r2]
 1856 06a2 FFF7FEFF 		bl	__aeabi_ui2d
 1857              	.LVL141:
 262:Core/Src/main.c ****       
 1858              		.loc 1 262 66 view .LVU591
 1859 06a6 454B     		ldr	r3, .L72+44
 262:Core/Src/main.c ****       
 1860              		.loc 1 262 33 view .LVU592
 1861 06a8 0446     		mov	r4, r0
 1862              	.LVL142:
 262:Core/Src/main.c ****       
 1863              		.loc 1 262 66 view .LVU593
 1864 06aa 1868     		ldr	r0, [r3]
 262:Core/Src/main.c ****       
 1865              		.loc 1 262 33 view .LVU594
 1866 06ac 0D46     		mov	r5, r1
 1867              	.LVL143:
 262:Core/Src/main.c ****       
 1868              		.loc 1 262 66 view .LVU595
 1869 06ae FFF7FEFF 		bl	__aeabi_ui2d
 1870              	.LVL144:
 1871 06b2 0246     		mov	r2, r0
 1872 06b4 0B46     		mov	r3, r1
 262:Core/Src/main.c ****       
 1873              		.loc 1 262 64 view .LVU596
 1874 06b6 2046     		mov	r0, r4
 1875 06b8 2946     		mov	r1, r5
 1876 06ba FFF7FEFF 		bl	__aeabi_ddiv
 1877              	.LVL145:
 262:Core/Src/main.c ****       
 1878              		.loc 1 262 90 view .LVU597
 1879 06be 404B     		ldr	r3, .L72+48
 265:Core/Src/main.c ****       for (uint32_t i = 0; i < kNumResolutions; ++i) {
 1880              		.loc 1 265 24 view .LVU598
 1881 06c0 404C     		ldr	r4, .L72+52
 262:Core/Src/main.c ****       
 1882              		.loc 1 262 90 view .LVU599
 1883 06c2 0022     		movs	r2, #0
 1884 06c4 FFF7FEFF 		bl	__aeabi_dmul
 1885              	.LVL146:
 265:Core/Src/main.c ****       for (uint32_t i = 0; i < kNumResolutions; ++i) {
 1886              		.loc 1 265 24 view .LVU600
 1887 06c8 9FED317B 		vldr.64	d7, .L72
 262:Core/Src/main.c ****       
 1888              		.loc 1 262 31 view .LVU601
 1889 06cc 3E4B     		ldr	r3, .L72+56
 1890 06ce C3E90001 		strd	r0, [r3]
 265:Core/Src/main.c ****       for (uint32_t i = 0; i < kNumResolutions; ++i) {
 1891              		.loc 1 265 7 is_stmt 1 view .LVU602
 265:Core/Src/main.c ****       for (uint32_t i = 0; i < kNumResolutions; ++i) {
 1892              		.loc 1 265 24 is_stmt 0 view .LVU603
 1893 06d2 84ED007B 		vstr.64	d7, [r4]
 266:Core/Src/main.c ****         g_total_time_sum += execution_time_ms_float[i] + execution_time_ms_double[i];
 1894              		.loc 1 266 7 is_stmt 1 view .LVU604
ARM GAS  C:\Users\einom\AppData\Local\Temp\ccWbNOsJ.s 			page 70


 1895              	.LBB247:
 266:Core/Src/main.c ****         g_total_time_sum += execution_time_ms_float[i] + execution_time_ms_double[i];
 1896              		.loc 1 266 12 view .LVU605
 1897              	.LVL147:
 266:Core/Src/main.c ****         g_total_time_sum += execution_time_ms_float[i] + execution_time_ms_double[i];
 1898              		.loc 1 266 30 discriminator 1 view .LVU606
 267:Core/Src/main.c ****       }
 1899              		.loc 1 267 9 view .LVU607
 267:Core/Src/main.c ****       }
 1900              		.loc 1 267 82 is_stmt 0 view .LVU608
 1901 06d6 344B     		ldr	r3, .L72+24
 267:Core/Src/main.c ****       }
 1902              		.loc 1 267 52 view .LVU609
 1903 06d8 D7E90001 		ldrd	r0, [r7]
 267:Core/Src/main.c ****       }
 1904              		.loc 1 267 26 view .LVU610
 1905 06dc 2646     		mov	r6, r4
 267:Core/Src/main.c ****       }
 1906              		.loc 1 267 82 view .LVU611
 1907 06de D3E90023 		ldrd	r2, [r3]
 267:Core/Src/main.c ****       }
 1908              		.loc 1 267 26 view .LVU612
 1909 06e2 D4E90045 		ldrd	r4, [r4]
 267:Core/Src/main.c ****       }
 1910              		.loc 1 267 56 view .LVU613
 1911 06e6 FFF7FEFF 		bl	__aeabi_dadd
 1912              	.LVL148:
 267:Core/Src/main.c ****       }
 1913              		.loc 1 267 26 view .LVU614
 1914 06ea 2246     		mov	r2, r4
 1915 06ec 2B46     		mov	r3, r5
 1916 06ee FFF7FEFF 		bl	__aeabi_dadd
 1917              	.LVL149:
 1918 06f2 C6E90001 		strd	r0, [r6]
 266:Core/Src/main.c ****         g_total_time_sum += execution_time_ms_float[i] + execution_time_ms_double[i];
 1919              		.loc 1 266 49 is_stmt 1 discriminator 3 view .LVU615
 1920              	.LVL150:
 266:Core/Src/main.c ****         g_total_time_sum += execution_time_ms_float[i] + execution_time_ms_double[i];
 1921              		.loc 1 266 30 discriminator 1 view .LVU616
 267:Core/Src/main.c ****       }
 1922              		.loc 1 267 9 view .LVU617
 267:Core/Src/main.c ****       }
 1923              		.loc 1 267 82 is_stmt 0 view .LVU618
 1924 06f6 2C4B     		ldr	r3, .L72+24
 267:Core/Src/main.c ****       }
 1925              		.loc 1 267 52 view .LVU619
 1926 06f8 D7E90201 		ldrd	r0, [r7, #8]
 267:Core/Src/main.c ****       }
 1927              		.loc 1 267 82 view .LVU620
 1928 06fc D3E90223 		ldrd	r2, [r3, #8]
 267:Core/Src/main.c ****       }
 1929              		.loc 1 267 26 view .LVU621
 1930 0700 D6E90045 		ldrd	r4, [r6]
 267:Core/Src/main.c ****       }
 1931              		.loc 1 267 56 view .LVU622
 1932 0704 FFF7FEFF 		bl	__aeabi_dadd
 1933              	.LVL151:
ARM GAS  C:\Users\einom\AppData\Local\Temp\ccWbNOsJ.s 			page 71


 267:Core/Src/main.c ****       }
 1934              		.loc 1 267 26 view .LVU623
 1935 0708 2246     		mov	r2, r4
 1936 070a 2B46     		mov	r3, r5
 1937 070c FFF7FEFF 		bl	__aeabi_dadd
 1938              	.LVL152:
 1939 0710 C6E90001 		strd	r0, [r6]
 266:Core/Src/main.c ****         g_total_time_sum += execution_time_ms_float[i] + execution_time_ms_double[i];
 1940              		.loc 1 266 49 is_stmt 1 discriminator 3 view .LVU624
 1941              	.LVL153:
 266:Core/Src/main.c ****         g_total_time_sum += execution_time_ms_float[i] + execution_time_ms_double[i];
 1942              		.loc 1 266 30 discriminator 1 view .LVU625
 267:Core/Src/main.c ****       }
 1943              		.loc 1 267 9 view .LVU626
 267:Core/Src/main.c ****       }
 1944              		.loc 1 267 82 is_stmt 0 view .LVU627
 1945 0714 244B     		ldr	r3, .L72+24
 267:Core/Src/main.c ****       }
 1946              		.loc 1 267 52 view .LVU628
 1947 0716 D7E90401 		ldrd	r0, [r7, #16]
 267:Core/Src/main.c ****       }
 1948              		.loc 1 267 82 view .LVU629
 1949 071a D3E90423 		ldrd	r2, [r3, #16]
 267:Core/Src/main.c ****       }
 1950              		.loc 1 267 26 view .LVU630
 1951 071e D6E90045 		ldrd	r4, [r6]
 267:Core/Src/main.c ****       }
 1952              		.loc 1 267 56 view .LVU631
 1953 0722 FFF7FEFF 		bl	__aeabi_dadd
 1954              	.LVL154:
 267:Core/Src/main.c ****       }
 1955              		.loc 1 267 26 view .LVU632
 1956 0726 2246     		mov	r2, r4
 1957 0728 2B46     		mov	r3, r5
 1958 072a FFF7FEFF 		bl	__aeabi_dadd
 1959              	.LVL155:
 1960 072e C6E90001 		strd	r0, [r6]
 266:Core/Src/main.c ****         g_total_time_sum += execution_time_ms_float[i] + execution_time_ms_double[i];
 1961              		.loc 1 266 49 is_stmt 1 discriminator 3 view .LVU633
 1962              	.LVL156:
 266:Core/Src/main.c ****         g_total_time_sum += execution_time_ms_float[i] + execution_time_ms_double[i];
 1963              		.loc 1 266 30 discriminator 1 view .LVU634
 267:Core/Src/main.c ****       }
 1964              		.loc 1 267 9 view .LVU635
 267:Core/Src/main.c ****       }
 1965              		.loc 1 267 82 is_stmt 0 view .LVU636
 1966 0732 1D4B     		ldr	r3, .L72+24
 267:Core/Src/main.c ****       }
 1967              		.loc 1 267 52 view .LVU637
 1968 0734 D7E90601 		ldrd	r0, [r7, #24]
 267:Core/Src/main.c ****       }
 1969              		.loc 1 267 82 view .LVU638
 1970 0738 D3E90623 		ldrd	r2, [r3, #24]
 267:Core/Src/main.c ****       }
 1971              		.loc 1 267 26 view .LVU639
 1972 073c D6E90045 		ldrd	r4, [r6]
 267:Core/Src/main.c ****       }
ARM GAS  C:\Users\einom\AppData\Local\Temp\ccWbNOsJ.s 			page 72


 1973              		.loc 1 267 56 view .LVU640
 1974 0740 FFF7FEFF 		bl	__aeabi_dadd
 1975              	.LVL157:
 267:Core/Src/main.c ****       }
 1976              		.loc 1 267 26 view .LVU641
 1977 0744 2246     		mov	r2, r4
 1978 0746 2B46     		mov	r3, r5
 1979 0748 FFF7FEFF 		bl	__aeabi_dadd
 1980              	.LVL158:
 1981 074c C6E90001 		strd	r0, [r6]
 266:Core/Src/main.c ****         g_total_time_sum += execution_time_ms_float[i] + execution_time_ms_double[i];
 1982              		.loc 1 266 49 is_stmt 1 discriminator 3 view .LVU642
 1983              	.LVL159:
 266:Core/Src/main.c ****         g_total_time_sum += execution_time_ms_float[i] + execution_time_ms_double[i];
 1984              		.loc 1 266 30 discriminator 1 view .LVU643
 267:Core/Src/main.c ****       }
 1985              		.loc 1 267 9 view .LVU644
 267:Core/Src/main.c ****       }
 1986              		.loc 1 267 82 is_stmt 0 view .LVU645
 1987 0750 154B     		ldr	r3, .L72+24
 267:Core/Src/main.c ****       }
 1988              		.loc 1 267 52 view .LVU646
 1989 0752 D7E90801 		ldrd	r0, [r7, #32]
 267:Core/Src/main.c ****       }
 1990              		.loc 1 267 82 view .LVU647
 1991 0756 D3E90823 		ldrd	r2, [r3, #32]
 267:Core/Src/main.c ****       }
 1992              		.loc 1 267 26 view .LVU648
 1993 075a D6E90045 		ldrd	r4, [r6]
 267:Core/Src/main.c ****       }
 1994              		.loc 1 267 56 view .LVU649
 1995 075e FFF7FEFF 		bl	__aeabi_dadd
 1996              	.LVL160:
 267:Core/Src/main.c ****       }
 1997              		.loc 1 267 26 view .LVU650
 1998 0762 2B46     		mov	r3, r5
 1999 0764 2246     		mov	r2, r4
 2000 0766 FFF7FEFF 		bl	__aeabi_dadd
 2001              	.LVL161:
 2002              	.LBE247:
 271:Core/Src/main.c ****       HAL_Delay(2000);
 2003              		.loc 1 271 7 view .LVU651
 2004 076a 0122     		movs	r2, #1
 2005              	.LBB248:
 267:Core/Src/main.c ****       }
 2006              		.loc 1 267 26 view .LVU652
 2007 076c C6E90001 		strd	r0, [r6]
 266:Core/Src/main.c ****         g_total_time_sum += execution_time_ms_float[i] + execution_time_ms_double[i];
 2008              		.loc 1 266 49 is_stmt 1 discriminator 3 view .LVU653
 2009              	.LVL162:
 266:Core/Src/main.c ****         g_total_time_sum += execution_time_ms_float[i] + execution_time_ms_double[i];
 2010              		.loc 1 266 30 discriminator 1 view .LVU654
 2011              	.LBE248:
 271:Core/Src/main.c ****       HAL_Delay(2000);
 2012              		.loc 1 271 7 view .LVU655
 2013 0770 0221     		movs	r1, #2
 2014 0772 1648     		ldr	r0, .L72+60
ARM GAS  C:\Users\einom\AppData\Local\Temp\ccWbNOsJ.s 			page 73


 2015 0774 FFF7FEFF 		bl	HAL_GPIO_WritePin
 2016              	.LVL163:
 272:Core/Src/main.c ****       HAL_GPIO_WritePin(GPIOB, GPIO_PIN_0 | GPIO_PIN_1, GPIO_PIN_RESET);
 2017              		.loc 1 272 7 view .LVU656
 2018 0778 4FF4FA60 		mov	r0, #2000
 2019 077c FFF7FEFF 		bl	HAL_Delay
 2020              	.LVL164:
 273:Core/Src/main.c ****   }
 2021              		.loc 1 273 7 view .LVU657
 2022 0780 1248     		ldr	r0, .L72+60
 2023 0782 0022     		movs	r2, #0
 2024 0784 0321     		movs	r1, #3
 2025 0786 FFF7FEFF 		bl	HAL_GPIO_WritePin
 2026              	.LVL165:
 2027              	.LBE126:
 153:Core/Src/main.c ****   {
 2028              		.loc 1 153 9 view .LVU658
 154:Core/Src/main.c ****     /* USER CODE END WHILE */
 2029              		.loc 1 154 3 is_stmt 0 view .LVU659
 2030 078a 8DE4     		b	.L37
 2031              	.LVL166:
 2032              	.L38:
 2033              	.LBB250:
 2034              	.LBB249:
 2035              	.LBB167:
 2036              	.LBB163:
 2037              	.LBB150:
 2038              	.LBB149:
 365:Core/Src/main.c **** 	{
 2039              		.loc 1 365 25 discriminator 1 view .LVU660
 2040 078c 5C46     		mov	r4, fp
 2041 078e 15E5     		b	.L11
 2042              	.L73:
 2043              		.align	3
 2044              	.L72:
 2045 0790 00000000 		.word	0
 2046 0794 00000000 		.word	0
 2047 0798 00000000 		.word	checksum_float
 2048 079c 00005940 		.word	1079574528
 2049 07a0 00000000 		.word	accuracy_diff_percent
 2050 07a4 00000000 		.word	execution_time_ms_float
 2051 07a8 00000000 		.word	execution_time_ms_double
 2052 07ac 00000000 		.word	speedup_factor
 2053 07b0 00000000 		.word	checksum_double
 2054 07b4 001000E0 		.word	-536866816
 2055 07b8 00000000 		.word	g_total_program_cycles
 2056 07bc 00000000 		.word	SystemCoreClock
 2057 07c0 00408F40 		.word	1083129856
 2058 07c4 00000000 		.word	g_total_time_sum
 2059 07c8 00000000 		.word	g_total_program_time_ms
 2060 07cc 00040240 		.word	1073873920
 2061              	.LBE149:
 2062              	.LBE150:
 2063              	.LBE163:
 2064              	.LBE167:
 2065              	.LBE249:
 2066              	.LBE250:
ARM GAS  C:\Users\einom\AppData\Local\Temp\ccWbNOsJ.s 			page 74


 2067              		.cfi_endproc
 2068              	.LFE137:
 2070              		.section	.text.__io_putchar,"ax",%progbits
 2071              		.align	1
 2072              		.p2align 2,,3
 2073              		.global	__io_putchar
 2074              		.syntax unified
 2075              		.thumb
 2076              		.thumb_func
 2078              	__io_putchar:
 2079              	.LVL167:
 2080              	.LFB146:
 445:Core/Src/main.c **** 	/* Route to ITM stimulus port 0 for SWV view. Requires debugger and SWO enabled. */
 2081              		.loc 1 445 1 is_stmt 1 view -0
 2082              		.cfi_startproc
 2083              		@ args = 0, pretend = 0, frame = 0
 2084              		@ frame_needed = 0, uses_anonymous_args = 0
 2085              		@ link register save eliminated.
 447:Core/Src/main.c **** 	{
 2086              		.loc 1 447 2 view .LVU662
 447:Core/Src/main.c **** 	{
 2087              		.loc 1 447 10 is_stmt 0 view .LVU663
 2088 0000 4FF06043 		mov	r3, #-536870912
 2089 0004 D3F8802E 		ldr	r2, [r3, #3712]
 447:Core/Src/main.c **** 	{
 2090              		.loc 1 447 5 view .LVU664
 2091 0008 D107     		lsls	r1, r2, #31
 2092 000a 04D5     		bpl	.L75
 447:Core/Src/main.c **** 	{
 2093              		.loc 1 447 51 discriminator 1 view .LVU665
 2094 000c 074A     		ldr	r2, .L87
 2095 000e D2F8FC20 		ldr	r2, [r2, #252]
 447:Core/Src/main.c **** 	{
 2096              		.loc 1 447 38 discriminator 1 view .LVU666
 2097 0012 D201     		lsls	r2, r2, #7
 2098 0014 01D4     		bmi	.L86
 2099              	.L75:
 455:Core/Src/main.c **** 
 2100              		.loc 1 455 1 view .LVU667
 2101 0016 7047     		bx	lr
 2102              	.L77:
 449:Core/Src/main.c **** 		ITM->PORT[0].u8 = (uint8_t)ch;
 2103              		.loc 1 449 35 is_stmt 1 discriminator 2 view .LVU668
 2104              		.syntax unified
 2105              	@ 449 "Core/Src/main.c" 1
 2106 0018 00BF     		nop
 2107              	@ 0 "" 2
 2108              		.thumb
 2109              		.syntax unified
 2110              	.L86:
 449:Core/Src/main.c **** 		ITM->PORT[0].u8 = (uint8_t)ch;
 2111              		.loc 1 449 27 discriminator 1 view .LVU669
 449:Core/Src/main.c **** 		ITM->PORT[0].u8 = (uint8_t)ch;
 2112              		.loc 1 449 22 is_stmt 0 discriminator 1 view .LVU670
 2113 001a 1A68     		ldr	r2, [r3]
 449:Core/Src/main.c **** 		ITM->PORT[0].u8 = (uint8_t)ch;
 2114              		.loc 1 449 27 discriminator 1 view .LVU671
ARM GAS  C:\Users\einom\AppData\Local\Temp\ccWbNOsJ.s 			page 75


 2115 001c 002A     		cmp	r2, #0
 2116 001e FBD0     		beq	.L77
 450:Core/Src/main.c **** 		return ch;
 2117              		.loc 1 450 3 is_stmt 1 view .LVU672
 450:Core/Src/main.c **** 		return ch;
 2118              		.loc 1 450 19 is_stmt 0 view .LVU673
 2119 0020 4FF06043 		mov	r3, #-536870912
 450:Core/Src/main.c **** 		return ch;
 2120              		.loc 1 450 21 view .LVU674
 2121 0024 C2B2     		uxtb	r2, r0
 450:Core/Src/main.c **** 		return ch;
 2122              		.loc 1 450 19 view .LVU675
 2123 0026 1A70     		strb	r2, [r3]
 451:Core/Src/main.c **** 	}
 2124              		.loc 1 451 3 is_stmt 1 view .LVU676
 455:Core/Src/main.c **** 
 2125              		.loc 1 455 1 is_stmt 0 view .LVU677
 2126 0028 7047     		bx	lr
 2127              	.L88:
 2128 002a 00BF     		.align	2
 2129              	.L87:
 2130 002c 00ED00E0 		.word	-536810240
 2131              		.cfi_endproc
 2132              	.LFE146:
 2134              		.section	.text.Error_Handler,"ax",%progbits
 2135              		.align	1
 2136              		.p2align 2,,3
 2137              		.global	Error_Handler
 2138              		.syntax unified
 2139              		.thumb
 2140              		.thumb_func
 2142              	Error_Handler:
 2143              	.LFB147:
 464:Core/Src/main.c ****   /* USER CODE BEGIN Error_Handler_Debug */
 2144              		.loc 1 464 1 is_stmt 1 view -0
 2145              		.cfi_startproc
 2146              		@ Volatile: function does not return.
 2147              		@ args = 0, pretend = 0, frame = 0
 2148              		@ frame_needed = 0, uses_anonymous_args = 0
 2149              		@ link register save eliminated.
 467:Core/Src/main.c ****   while (1)
 2150              		.loc 1 467 3 view .LVU679
 2151              	.LBB251:
 2152              	.LBI251:
 960:Drivers/CMSIS/Include/cmsis_gcc.h **** {
 2153              		.loc 2 960 27 view .LVU680
 2154              	.LBB252:
 2155              		.loc 2 962 3 view .LVU681
 2156              		.syntax unified
 2157              	@ 962 "Drivers/CMSIS/Include/cmsis_gcc.h" 1
 2158 0000 72B6     		cpsid i
 2159              	@ 0 "" 2
 2160              		.thumb
 2161              		.syntax unified
 2162              	.L90:
 2163              	.LBE252:
 2164              	.LBE251:
ARM GAS  C:\Users\einom\AppData\Local\Temp\ccWbNOsJ.s 			page 76


 468:Core/Src/main.c ****   {
 2165              		.loc 1 468 3 view .LVU682
 2166              		.loc 1 470 3 view .LVU683
 468:Core/Src/main.c ****   {
 2167              		.loc 1 468 9 view .LVU684
 468:Core/Src/main.c ****   {
 2168              		.loc 1 468 3 view .LVU685
 2169              		.loc 1 470 3 view .LVU686
 468:Core/Src/main.c ****   {
 2170              		.loc 1 468 9 view .LVU687
 2171 0002 FEE7     		b	.L90
 2172              		.cfi_endproc
 2173              	.LFE147:
 2175              		.global	g_total_time_sum
 2176              		.section	.bss.g_total_time_sum,"aw",%nobits
 2177              		.align	3
 2180              	g_total_time_sum:
 2181 0000 00000000 		.space	8
 2181      00000000 
 2182              		.global	g_total_program_time_ms
 2183              		.section	.bss.g_total_program_time_ms,"aw",%nobits
 2184              		.align	3
 2187              	g_total_program_time_ms:
 2188 0000 00000000 		.space	8
 2188      00000000 
 2189              		.global	g_total_program_cycles
 2190              		.section	.bss.g_total_program_cycles,"aw",%nobits
 2191              		.align	2
 2194              	g_total_program_cycles:
 2195 0000 00000000 		.space	4
 2196              		.global	g_fpu_enabled
 2197              		.section	.data.g_fpu_enabled,"aw"
 2198              		.align	2
 2201              	g_fpu_enabled:
 2202 0000 01000000 		.word	1
 2203              		.global	g_current_test_mode
 2204              		.section	.bss.g_current_test_mode,"aw",%nobits
 2205              		.align	2
 2208              	g_current_test_mode:
 2209 0000 00000000 		.space	4
 2210              		.global	speedup_factor
 2211              		.section	.bss.speedup_factor,"aw",%nobits
 2212              		.align	3
 2215              	speedup_factor:
 2216 0000 00000000 		.space	40
 2216      00000000 
 2216      00000000 
 2216      00000000 
 2216      00000000 
 2217              		.global	accuracy_diff_percent
 2218              		.section	.bss.accuracy_diff_percent,"aw",%nobits
 2219              		.align	3
 2222              	accuracy_diff_percent:
 2223 0000 00000000 		.space	40
 2223      00000000 
 2223      00000000 
 2223      00000000 
ARM GAS  C:\Users\einom\AppData\Local\Temp\ccWbNOsJ.s 			page 77


 2223      00000000 
 2224              		.global	throughput_pps_double
 2225              		.section	.bss.throughput_pps_double,"aw",%nobits
 2226              		.align	3
 2229              	throughput_pps_double:
 2230 0000 00000000 		.space	40
 2230      00000000 
 2230      00000000 
 2230      00000000 
 2230      00000000 
 2231              		.global	cpu_cycles_double
 2232              		.section	.bss.cpu_cycles_double,"aw",%nobits
 2233              		.align	2
 2236              	cpu_cycles_double:
 2237 0000 00000000 		.space	20
 2237      00000000 
 2237      00000000 
 2237      00000000 
 2237      00000000 
 2238              		.global	execution_time_ms_double
 2239              		.section	.bss.execution_time_ms_double,"aw",%nobits
 2240              		.align	3
 2243              	execution_time_ms_double:
 2244 0000 00000000 		.space	40
 2244      00000000 
 2244      00000000 
 2244      00000000 
 2244      00000000 
 2245              		.global	checksum_double
 2246              		.section	.bss.checksum_double,"aw",%nobits
 2247              		.align	2
 2250              	checksum_double:
 2251 0000 00000000 		.space	20
 2251      00000000 
 2251      00000000 
 2251      00000000 
 2251      00000000 
 2252              		.global	throughput_pps_float
 2253              		.section	.bss.throughput_pps_float,"aw",%nobits
 2254              		.align	3
 2257              	throughput_pps_float:
 2258 0000 00000000 		.space	40
 2258      00000000 
 2258      00000000 
 2258      00000000 
 2258      00000000 
 2259              		.global	cpu_cycles_float
 2260              		.section	.bss.cpu_cycles_float,"aw",%nobits
 2261              		.align	2
 2264              	cpu_cycles_float:
 2265 0000 00000000 		.space	20
 2265      00000000 
 2265      00000000 
 2265      00000000 
 2265      00000000 
 2266              		.global	execution_time_ms_float
 2267              		.section	.bss.execution_time_ms_float,"aw",%nobits
ARM GAS  C:\Users\einom\AppData\Local\Temp\ccWbNOsJ.s 			page 78


 2268              		.align	3
 2271              	execution_time_ms_float:
 2272 0000 00000000 		.space	40
 2272      00000000 
 2272      00000000 
 2272      00000000 
 2272      00000000 
 2273              		.global	checksum_float
 2274              		.section	.bss.checksum_float,"aw",%nobits
 2275              		.align	2
 2278              	checksum_float:
 2279 0000 00000000 		.space	20
 2279      00000000 
 2279      00000000 
 2279      00000000 
 2279      00000000 
 2280              		.global	g_current_throughput
 2281              		.section	.bss.g_current_throughput,"aw",%nobits
 2282              		.align	3
 2285              	g_current_throughput:
 2286 0000 00000000 		.space	8
 2286      00000000 
 2287              		.global	g_current_execution_time
 2288              		.section	.bss.g_current_execution_time,"aw",%nobits
 2289              		.align	3
 2292              	g_current_execution_time:
 2293 0000 00000000 		.space	8
 2293      00000000 
 2294              		.global	g_current_checksum
 2295              		.section	.bss.g_current_checksum,"aw",%nobits
 2296              		.align	2
 2299              	g_current_checksum:
 2300 0000 00000000 		.space	4
 2301              		.global	g_current_cycles
 2302              		.section	.bss.g_current_cycles,"aw",%nobits
 2303              		.align	2
 2306              	g_current_cycles:
 2307 0000 00000000 		.space	4
 2308              		.global	g_current_height
 2309              		.section	.bss.g_current_height,"aw",%nobits
 2310              		.align	2
 2313              	g_current_height:
 2314 0000 00000000 		.space	4
 2315              		.global	g_current_width
 2316              		.section	.bss.g_current_width,"aw",%nobits
 2317              		.align	2
 2320              	g_current_width:
 2321 0000 00000000 		.space	4
 2322              		.section	.rodata.kWidths,"a"
 2323              		.align	2
 2326              	kWidths:
 2327 0000 8000     		.short	128
 2328 0002 A000     		.short	160
 2329 0004 C000     		.short	192
 2330 0006 E000     		.short	224
 2331 0008 0001     		.short	256
 2332              		.set	kHeights,kWidths
ARM GAS  C:\Users\einom\AppData\Local\Temp\ccWbNOsJ.s 			page 79


 2333              		.text
 2334              	.Letext0:
 2335              		.file 3 "C:\\ST\\STM32CubeIDE_1.19.0\\STM32CubeIDE\\plugins\\com.st.stm32cube.ide.mcu.externaltool
 2336              		.file 4 "C:\\ST\\STM32CubeIDE_1.19.0\\STM32CubeIDE\\plugins\\com.st.stm32cube.ide.mcu.externaltool
 2337              		.file 5 "Drivers/CMSIS/Include/core_cm4.h"
 2338              		.file 6 "Drivers/CMSIS/Device/ST/STM32F4xx/Include/stm32f446xx.h"
 2339              		.file 7 "Drivers/STM32F4xx_HAL_Driver/Inc/stm32f4xx_hal_def.h"
 2340              		.file 8 "Drivers/STM32F4xx_HAL_Driver/Inc/stm32f4xx_hal_rcc_ex.h"
 2341              		.file 9 "Drivers/STM32F4xx_HAL_Driver/Inc/stm32f4xx_hal_rcc.h"
 2342              		.file 10 "Drivers/STM32F4xx_HAL_Driver/Inc/stm32f4xx_hal_gpio.h"
 2343              		.file 11 "Drivers/CMSIS/Device/ST/STM32F4xx/Include/system_stm32f4xx.h"
 2344              		.file 12 "Drivers/STM32F4xx_HAL_Driver/Inc/stm32f4xx_hal.h"
 2345              		.file 13 "C:\\ST\\STM32CubeIDE_1.19.0\\STM32CubeIDE\\plugins\\com.st.stm32cube.ide.mcu.externaltoo
 2346              		.file 14 "<built-in>"
ARM GAS  C:\Users\einom\AppData\Local\Temp\ccWbNOsJ.s 			page 80


DEFINED SYMBOLS
                            *ABS*:00000000 main.c
C:\Users\einom\AppData\Local\Temp\ccWbNOsJ.s:21     .text.SystemClock_Config:00000000 $t
C:\Users\einom\AppData\Local\Temp\ccWbNOsJ.s:28     .text.SystemClock_Config:00000000 SystemClock_Config
C:\Users\einom\AppData\Local\Temp\ccWbNOsJ.s:236    .text.SystemClock_Config:000000a0 $d
C:\Users\einom\AppData\Local\Temp\ccWbNOsJ.s:242    .rodata.main.str1.4:00000000 $d
C:\Users\einom\AppData\Local\Temp\ccWbNOsJ.s:283    .text.startup.main:00000000 $t
C:\Users\einom\AppData\Local\Temp\ccWbNOsJ.s:290    .text.startup.main:00000000 main
C:\Users\einom\AppData\Local\Temp\ccWbNOsJ.s:947    .text.startup.main:00000280 $d
C:\Users\einom\AppData\Local\Temp\ccWbNOsJ.s:2326   .rodata.kWidths:00000000 kHeights
C:\Users\einom\AppData\Local\Temp\ccWbNOsJ.s:2208   .bss.g_current_test_mode:00000000 g_current_test_mode
C:\Users\einom\AppData\Local\Temp\ccWbNOsJ.s:2326   .rodata.kWidths:00000000 kWidths
C:\Users\einom\AppData\Local\Temp\ccWbNOsJ.s:2320   .bss.g_current_width:00000000 g_current_width
C:\Users\einom\AppData\Local\Temp\ccWbNOsJ.s:2313   .bss.g_current_height:00000000 g_current_height
C:\Users\einom\AppData\Local\Temp\ccWbNOsJ.s:2306   .bss.g_current_cycles:00000000 g_current_cycles
C:\Users\einom\AppData\Local\Temp\ccWbNOsJ.s:2299   .bss.g_current_checksum:00000000 g_current_checksum
C:\Users\einom\AppData\Local\Temp\ccWbNOsJ.s:2292   .bss.g_current_execution_time:00000000 g_current_execution_time
C:\Users\einom\AppData\Local\Temp\ccWbNOsJ.s:2285   .bss.g_current_throughput:00000000 g_current_throughput
C:\Users\einom\AppData\Local\Temp\ccWbNOsJ.s:2278   .bss.checksum_float:00000000 checksum_float
C:\Users\einom\AppData\Local\Temp\ccWbNOsJ.s:2271   .bss.execution_time_ms_float:00000000 execution_time_ms_float
C:\Users\einom\AppData\Local\Temp\ccWbNOsJ.s:2264   .bss.cpu_cycles_float:00000000 cpu_cycles_float
C:\Users\einom\AppData\Local\Temp\ccWbNOsJ.s:2257   .bss.throughput_pps_float:00000000 throughput_pps_float
C:\Users\einom\AppData\Local\Temp\ccWbNOsJ.s:976    .text.startup.main:000002e4 $t
C:\Users\einom\AppData\Local\Temp\ccWbNOsJ.s:1603   .text.startup.main:00000558 $d
C:\Users\einom\AppData\Local\Temp\ccWbNOsJ.s:2250   .bss.checksum_double:00000000 checksum_double
C:\Users\einom\AppData\Local\Temp\ccWbNOsJ.s:2243   .bss.execution_time_ms_double:00000000 execution_time_ms_double
C:\Users\einom\AppData\Local\Temp\ccWbNOsJ.s:2236   .bss.cpu_cycles_double:00000000 cpu_cycles_double
C:\Users\einom\AppData\Local\Temp\ccWbNOsJ.s:2229   .bss.throughput_pps_double:00000000 throughput_pps_double
C:\Users\einom\AppData\Local\Temp\ccWbNOsJ.s:1632   .text.startup.main:000005bc $t
C:\Users\einom\AppData\Local\Temp\ccWbNOsJ.s:2045   .text.startup.main:00000790 $d
C:\Users\einom\AppData\Local\Temp\ccWbNOsJ.s:2222   .bss.accuracy_diff_percent:00000000 accuracy_diff_percent
C:\Users\einom\AppData\Local\Temp\ccWbNOsJ.s:2215   .bss.speedup_factor:00000000 speedup_factor
C:\Users\einom\AppData\Local\Temp\ccWbNOsJ.s:2194   .bss.g_total_program_cycles:00000000 g_total_program_cycles
C:\Users\einom\AppData\Local\Temp\ccWbNOsJ.s:2180   .bss.g_total_time_sum:00000000 g_total_time_sum
C:\Users\einom\AppData\Local\Temp\ccWbNOsJ.s:2187   .bss.g_total_program_time_ms:00000000 g_total_program_time_ms
C:\Users\einom\AppData\Local\Temp\ccWbNOsJ.s:2071   .text.__io_putchar:00000000 $t
C:\Users\einom\AppData\Local\Temp\ccWbNOsJ.s:2078   .text.__io_putchar:00000000 __io_putchar
C:\Users\einom\AppData\Local\Temp\ccWbNOsJ.s:2130   .text.__io_putchar:0000002c $d
C:\Users\einom\AppData\Local\Temp\ccWbNOsJ.s:2135   .text.Error_Handler:00000000 $t
C:\Users\einom\AppData\Local\Temp\ccWbNOsJ.s:2142   .text.Error_Handler:00000000 Error_Handler
C:\Users\einom\AppData\Local\Temp\ccWbNOsJ.s:2177   .bss.g_total_time_sum:00000000 $d
C:\Users\einom\AppData\Local\Temp\ccWbNOsJ.s:2184   .bss.g_total_program_time_ms:00000000 $d
C:\Users\einom\AppData\Local\Temp\ccWbNOsJ.s:2191   .bss.g_total_program_cycles:00000000 $d
C:\Users\einom\AppData\Local\Temp\ccWbNOsJ.s:2201   .data.g_fpu_enabled:00000000 g_fpu_enabled
C:\Users\einom\AppData\Local\Temp\ccWbNOsJ.s:2198   .data.g_fpu_enabled:00000000 $d
C:\Users\einom\AppData\Local\Temp\ccWbNOsJ.s:2205   .bss.g_current_test_mode:00000000 $d
C:\Users\einom\AppData\Local\Temp\ccWbNOsJ.s:2212   .bss.speedup_factor:00000000 $d
C:\Users\einom\AppData\Local\Temp\ccWbNOsJ.s:2219   .bss.accuracy_diff_percent:00000000 $d
C:\Users\einom\AppData\Local\Temp\ccWbNOsJ.s:2226   .bss.throughput_pps_double:00000000 $d
C:\Users\einom\AppData\Local\Temp\ccWbNOsJ.s:2233   .bss.cpu_cycles_double:00000000 $d
C:\Users\einom\AppData\Local\Temp\ccWbNOsJ.s:2240   .bss.execution_time_ms_double:00000000 $d
C:\Users\einom\AppData\Local\Temp\ccWbNOsJ.s:2247   .bss.checksum_double:00000000 $d
C:\Users\einom\AppData\Local\Temp\ccWbNOsJ.s:2254   .bss.throughput_pps_float:00000000 $d
C:\Users\einom\AppData\Local\Temp\ccWbNOsJ.s:2261   .bss.cpu_cycles_float:00000000 $d
C:\Users\einom\AppData\Local\Temp\ccWbNOsJ.s:2268   .bss.execution_time_ms_float:00000000 $d
C:\Users\einom\AppData\Local\Temp\ccWbNOsJ.s:2275   .bss.checksum_float:00000000 $d
C:\Users\einom\AppData\Local\Temp\ccWbNOsJ.s:2282   .bss.g_current_throughput:00000000 $d
ARM GAS  C:\Users\einom\AppData\Local\Temp\ccWbNOsJ.s 			page 81


C:\Users\einom\AppData\Local\Temp\ccWbNOsJ.s:2289   .bss.g_current_execution_time:00000000 $d
C:\Users\einom\AppData\Local\Temp\ccWbNOsJ.s:2296   .bss.g_current_checksum:00000000 $d
C:\Users\einom\AppData\Local\Temp\ccWbNOsJ.s:2303   .bss.g_current_cycles:00000000 $d
C:\Users\einom\AppData\Local\Temp\ccWbNOsJ.s:2310   .bss.g_current_height:00000000 $d
C:\Users\einom\AppData\Local\Temp\ccWbNOsJ.s:2317   .bss.g_current_width:00000000 $d
C:\Users\einom\AppData\Local\Temp\ccWbNOsJ.s:2323   .rodata.kWidths:00000000 $d

UNDEFINED SYMBOLS
HAL_RCC_OscConfig
HAL_RCC_ClockConfig
__aeabi_ui2d
__aeabi_ddiv
__aeabi_dmul
__aeabi_dadd
__aeabi_dsub
__aeabi_dcmple
__aeabi_dcmpeq
HAL_Init
HAL_GPIO_WritePin
HAL_GPIO_Init
puts
printf
SystemCoreClock
HAL_Delay
