ARM GAS  C:\Users\einom\AppData\Local\Temp\ccNh7ZuO.s 			page 1


   1              		.cpu cortex-m0
   2              		.arch armv6s-m
   3              		.fpu softvfp
   4              		.eabi_attribute 20, 1
   5              		.eabi_attribute 21, 1
   6              		.eabi_attribute 23, 3
   7              		.eabi_attribute 24, 1
   8              		.eabi_attribute 25, 1
   9              		.eabi_attribute 26, 1
  10              		.eabi_attribute 30, 1
  11              		.eabi_attribute 34, 0
  12              		.eabi_attribute 18, 4
  13              		.file	"main.c"
  14              		.text
  15              	.Ltext0:
  16              		.cfi_sections	.debug_frame
  17              		.file 1 "Core/Src/main.c"
  18              		.global	__aeabi_ui2d
  19              		.global	__aeabi_ddiv
  20              		.global	__aeabi_dadd
  21              		.global	__aeabi_dsub
  22              		.global	__aeabi_dmul
  23              		.global	__aeabi_dcmple
  24              		.section	.text.generate_mandelbrot_checksum,"ax",%progbits
  25              		.align	1
  26              		.syntax unified
  27              		.code	16
  28              		.thumb_func
  30              	generate_mandelbrot_checksum:
  31              	.LVL0:
  32              	.LFB43:
   1:Core/Src/main.c **** /* USER CODE BEGIN Header */
   2:Core/Src/main.c **** /**
   3:Core/Src/main.c ****   ******************************************************************************
   4:Core/Src/main.c ****   * @file           : main.c
   5:Core/Src/main.c ****   * @brief          : Main program body
   6:Core/Src/main.c ****   ******************************************************************************
   7:Core/Src/main.c ****   * @attention
   8:Core/Src/main.c ****   *
   9:Core/Src/main.c ****   * Copyright (c) 2025 STMicroelectronics.
  10:Core/Src/main.c ****   * All rights reserved.
  11:Core/Src/main.c ****   *
  12:Core/Src/main.c ****   * This software is licensed under terms that can be found in the LICENSE file
  13:Core/Src/main.c ****   * in the root directory of this software component.
  14:Core/Src/main.c ****   * If no LICENSE file comes with this software, it is provided AS-IS.
  15:Core/Src/main.c ****   *
  16:Core/Src/main.c ****   ******************************************************************************
  17:Core/Src/main.c ****   */
  18:Core/Src/main.c **** /* USER CODE END Header */
  19:Core/Src/main.c **** /* Includes ------------------------------------------------------------------*/
  20:Core/Src/main.c **** #include "main.h"
  21:Core/Src/main.c **** 
  22:Core/Src/main.c **** /* Private includes ----------------------------------------------------------*/
  23:Core/Src/main.c **** /* USER CODE BEGIN Includes */
  24:Core/Src/main.c **** 
  25:Core/Src/main.c **** /* USER CODE END Includes */
  26:Core/Src/main.c **** 
ARM GAS  C:\Users\einom\AppData\Local\Temp\ccNh7ZuO.s 			page 2


  27:Core/Src/main.c **** /* Private typedef -----------------------------------------------------------*/
  28:Core/Src/main.c **** /* USER CODE BEGIN PTD */
  29:Core/Src/main.c **** 
  30:Core/Src/main.c **** /* USER CODE END PTD */
  31:Core/Src/main.c **** 
  32:Core/Src/main.c **** /* Private define ------------------------------------------------------------*/
  33:Core/Src/main.c **** /* USER CODE BEGIN PD */
  34:Core/Src/main.c **** 
  35:Core/Src/main.c **** /* USER CODE END PD */
  36:Core/Src/main.c **** 
  37:Core/Src/main.c **** /* Private macro -------------------------------------------------------------*/
  38:Core/Src/main.c **** /* USER CODE BEGIN PM */
  39:Core/Src/main.c **** 
  40:Core/Src/main.c **** /* USER CODE END PM */
  41:Core/Src/main.c **** 
  42:Core/Src/main.c **** /* Private variables ---------------------------------------------------------*/
  43:Core/Src/main.c **** 
  44:Core/Src/main.c **** /* USER CODE BEGIN PV */
  45:Core/Src/main.c **** /* Task 3: Fixed MAX_ITER = 100, measure cycles and throughput */
  46:Core/Src/main.c **** static const uint32_t kMaxIter = 100u;
  47:Core/Src/main.c **** static const uint32_t kNumResolutions = 5;
  48:Core/Src/main.c **** static const uint16_t kWidths[5]  = {128, 160, 192, 224, 256};
  49:Core/Src/main.c **** static const uint16_t kHeights[5] = {128, 160, 192, 224, 256};
  50:Core/Src/main.c **** 
  51:Core/Src/main.c **** /* Live Expressions: current benchmark metrics */
  52:Core/Src/main.c **** volatile uint32_t g_current_width = 0u;
  53:Core/Src/main.c **** volatile uint32_t g_current_height = 0u;
  54:Core/Src/main.c **** volatile uint32_t g_current_cycles = 0u;
  55:Core/Src/main.c **** volatile uint32_t g_current_checksum = 0u;
  56:Core/Src/main.c **** volatile double g_current_execution_time = 0.0;
  57:Core/Src/main.c **** volatile double g_current_throughput = 0.0;
  58:Core/Src/main.c **** 
  59:Core/Src/main.c **** /* Live Expressions: per-size results */
  60:Core/Src/main.c **** volatile uint32_t checksum[5] = {0u, 0u, 0u, 0u, 0u};
  61:Core/Src/main.c **** volatile double execution_time_ms[5] = {0.0, 0.0, 0.0, 0.0, 0.0};
  62:Core/Src/main.c **** volatile uint32_t cpu_cycles[5] = {0u, 0u, 0u, 0u, 0u};
  63:Core/Src/main.c **** volatile double throughput_pps[5] = {0.0, 0.0, 0.0, 0.0, 0.0};
  64:Core/Src/main.c **** 
  65:Core/Src/main.c **** /* USER CODE END PV */
  66:Core/Src/main.c **** 
  67:Core/Src/main.c **** /* Private function prototypes -----------------------------------------------*/
  68:Core/Src/main.c **** void SystemClock_Config(void);
  69:Core/Src/main.c **** static void MX_GPIO_Init(void);
  70:Core/Src/main.c **** /* USER CODE BEGIN PFP */
  71:Core/Src/main.c **** static uint32_t generate_mandelbrot_checksum(uint16_t width, uint16_t height, uint32_t max_iter);
  72:Core/Src/main.c **** static uint32_t estimate_cpu_cycles_from_ms(uint32_t elapsed_ms);
  73:Core/Src/main.c **** 
  74:Core/Src/main.c **** /* USER CODE END PFP */
  75:Core/Src/main.c **** 
  76:Core/Src/main.c **** /* Private user code ---------------------------------------------------------*/
  77:Core/Src/main.c **** /* USER CODE BEGIN 0 */
  78:Core/Src/main.c **** 
  79:Core/Src/main.c **** /* USER CODE END 0 */
  80:Core/Src/main.c **** 
  81:Core/Src/main.c **** /**
  82:Core/Src/main.c ****   * @brief  The application entry point.
  83:Core/Src/main.c ****   * @retval int
ARM GAS  C:\Users\einom\AppData\Local\Temp\ccNh7ZuO.s 			page 3


  84:Core/Src/main.c ****   */
  85:Core/Src/main.c **** int main(void)
  86:Core/Src/main.c **** {
  87:Core/Src/main.c **** 
  88:Core/Src/main.c ****   /* USER CODE BEGIN 1 */
  89:Core/Src/main.c **** 
  90:Core/Src/main.c ****   /* USER CODE END 1 */
  91:Core/Src/main.c **** 
  92:Core/Src/main.c ****   /* MCU Configuration--------------------------------------------------------*/
  93:Core/Src/main.c **** 
  94:Core/Src/main.c ****   /* Reset of all peripherals, Initializes the Flash interface and the Systick. */
  95:Core/Src/main.c ****   HAL_Init();
  96:Core/Src/main.c **** 
  97:Core/Src/main.c ****   /* USER CODE BEGIN Init */
  98:Core/Src/main.c **** 
  99:Core/Src/main.c ****   /* USER CODE END Init */
 100:Core/Src/main.c **** 
 101:Core/Src/main.c ****   /* Configure the system clock */
 102:Core/Src/main.c ****   SystemClock_Config();
 103:Core/Src/main.c **** 
 104:Core/Src/main.c ****   /* USER CODE BEGIN SysInit */
 105:Core/Src/main.c **** 
 106:Core/Src/main.c ****   /* USER CODE END SysInit */
 107:Core/Src/main.c **** 
 108:Core/Src/main.c ****   /* Initialize all configured peripherals */
 109:Core/Src/main.c ****   MX_GPIO_Init();
 110:Core/Src/main.c ****   /* USER CODE BEGIN 2 */
 111:Core/Src/main.c **** 
 112:Core/Src/main.c ****   /* USER CODE END 2 */
 113:Core/Src/main.c **** 
 114:Core/Src/main.c ****   /* Infinite loop */
 115:Core/Src/main.c ****   /* USER CODE BEGIN WHILE */
 116:Core/Src/main.c ****   while (1)
 117:Core/Src/main.c ****   {
 118:Core/Src/main.c ****     /* USER CODE END WHILE */
 119:Core/Src/main.c **** 
 120:Core/Src/main.c ****     /* USER CODE BEGIN 3 */
 121:Core/Src/main.c ****       /* Visual indicator: LED0 ON */
 122:Core/Src/main.c ****       HAL_GPIO_WritePin(GPIOB, GPIO_PIN_0, GPIO_PIN_SET);
 123:Core/Src/main.c **** 
 124:Core/Src/main.c ****       /* Task 3: Benchmark with fixed MAX_ITER=100, measure cycles and throughput */
 125:Core/Src/main.c ****       for (uint32_t size_index = 0; size_index < kNumResolutions; ++size_index)
 126:Core/Src/main.c ****       {
 127:Core/Src/main.c ****         uint16_t w = kWidths[size_index];
 128:Core/Src/main.c ****         uint16_t h = kHeights[size_index];
 129:Core/Src/main.c ****         g_current_width = (uint32_t)w;
 130:Core/Src/main.c ****         g_current_height = (uint32_t)h;
 131:Core/Src/main.c **** 
 132:Core/Src/main.c ****         uint32_t start_ms = HAL_GetTick();
 133:Core/Src/main.c ****         uint32_t result_checksum = generate_mandelbrot_checksum(w, h, kMaxIter);
 134:Core/Src/main.c ****         uint32_t end_ms = HAL_GetTick();
 135:Core/Src/main.c ****         uint32_t elapsed_ms = end_ms - start_ms;
 136:Core/Src/main.c ****         
 137:Core/Src/main.c ****         /* Estimate CPU cycles from elapsed time (F0 doesn't have DWT) */
 138:Core/Src/main.c ****         uint32_t estimated_cycles = estimate_cpu_cycles_from_ms(elapsed_ms);
 139:Core/Src/main.c ****         double elapsed_seconds = (double)elapsed_ms / 1000.0;
 140:Core/Src/main.c ****         double total_pixels = (double)w * (double)h;
ARM GAS  C:\Users\einom\AppData\Local\Temp\ccNh7ZuO.s 			page 4


 141:Core/Src/main.c ****         double throughput = total_pixels / elapsed_seconds;
 142:Core/Src/main.c **** 
 143:Core/Src/main.c ****         /* Update Live Expressions */
 144:Core/Src/main.c ****         g_current_cycles = estimated_cycles;
 145:Core/Src/main.c ****         g_current_checksum = result_checksum;
 146:Core/Src/main.c ****         g_current_execution_time = (double)elapsed_ms;
 147:Core/Src/main.c ****         g_current_throughput = throughput;
 148:Core/Src/main.c **** 
 149:Core/Src/main.c ****         /* Store results */
 150:Core/Src/main.c ****         checksum[size_index] = result_checksum;
 151:Core/Src/main.c ****         execution_time_ms[size_index] = (double)elapsed_ms;
 152:Core/Src/main.c ****         cpu_cycles[size_index] = estimated_cycles;
 153:Core/Src/main.c ****         throughput_pps[size_index] = throughput;
 154:Core/Src/main.c ****       }
 155:Core/Src/main.c **** 
 156:Core/Src/main.c ****       /* Visual indicator: LED1 ON, keep ON 2s, then turn both OFF */
 157:Core/Src/main.c ****       HAL_GPIO_WritePin(GPIOB, GPIO_PIN_1, GPIO_PIN_SET);
 158:Core/Src/main.c ****       HAL_Delay(2000);
 159:Core/Src/main.c ****       HAL_GPIO_WritePin(GPIOB, GPIO_PIN_0 | GPIO_PIN_1, GPIO_PIN_RESET);
 160:Core/Src/main.c ****   }
 161:Core/Src/main.c ****   /* USER CODE END 3 */
 162:Core/Src/main.c **** }
 163:Core/Src/main.c **** 
 164:Core/Src/main.c **** /**
 165:Core/Src/main.c ****   * @brief System Clock Configuration
 166:Core/Src/main.c ****   * @retval None
 167:Core/Src/main.c ****   */
 168:Core/Src/main.c **** void SystemClock_Config(void)
 169:Core/Src/main.c **** {
 170:Core/Src/main.c ****   RCC_OscInitTypeDef RCC_OscInitStruct = {0};
 171:Core/Src/main.c ****   RCC_ClkInitTypeDef RCC_ClkInitStruct = {0};
 172:Core/Src/main.c **** 
 173:Core/Src/main.c ****   /** Initializes the RCC Oscillators according to the specified parameters
 174:Core/Src/main.c ****   * in the RCC_OscInitTypeDef structure.
 175:Core/Src/main.c ****   */
 176:Core/Src/main.c ****   RCC_OscInitStruct.OscillatorType = RCC_OSCILLATORTYPE_HSI;
 177:Core/Src/main.c ****   RCC_OscInitStruct.HSIState = RCC_HSI_ON;
 178:Core/Src/main.c ****   RCC_OscInitStruct.HSICalibrationValue = RCC_HSICALIBRATION_DEFAULT;
 179:Core/Src/main.c ****   RCC_OscInitStruct.PLL.PLLState = RCC_PLL_ON;
 180:Core/Src/main.c ****   RCC_OscInitStruct.PLL.PLLSource = RCC_PLLSOURCE_HSI;
 181:Core/Src/main.c ****   RCC_OscInitStruct.PLL.PLLMUL = RCC_PLL_MUL12;
 182:Core/Src/main.c ****   RCC_OscInitStruct.PLL.PREDIV = RCC_PREDIV_DIV1;
 183:Core/Src/main.c ****   if (HAL_RCC_OscConfig(&RCC_OscInitStruct) != HAL_OK)
 184:Core/Src/main.c ****   {
 185:Core/Src/main.c ****     Error_Handler();
 186:Core/Src/main.c ****   }
 187:Core/Src/main.c **** 
 188:Core/Src/main.c ****   /** Initializes the CPU, AHB and APB buses clocks
 189:Core/Src/main.c ****   */
 190:Core/Src/main.c ****   RCC_ClkInitStruct.ClockType = RCC_CLOCKTYPE_HCLK|RCC_CLOCKTYPE_SYSCLK
 191:Core/Src/main.c ****                               |RCC_CLOCKTYPE_PCLK1;
 192:Core/Src/main.c ****   RCC_ClkInitStruct.SYSCLKSource = RCC_SYSCLKSOURCE_PLLCLK;
 193:Core/Src/main.c ****   RCC_ClkInitStruct.AHBCLKDivider = RCC_SYSCLK_DIV1;
 194:Core/Src/main.c ****   RCC_ClkInitStruct.APB1CLKDivider = RCC_HCLK_DIV1;
 195:Core/Src/main.c **** 
 196:Core/Src/main.c ****   if (HAL_RCC_ClockConfig(&RCC_ClkInitStruct, FLASH_LATENCY_1) != HAL_OK)
 197:Core/Src/main.c ****   {
ARM GAS  C:\Users\einom\AppData\Local\Temp\ccNh7ZuO.s 			page 5


 198:Core/Src/main.c ****     Error_Handler();
 199:Core/Src/main.c ****   }
 200:Core/Src/main.c **** }
 201:Core/Src/main.c **** 
 202:Core/Src/main.c **** /**
 203:Core/Src/main.c ****   * @brief GPIO Initialization Function
 204:Core/Src/main.c ****   * @param None
 205:Core/Src/main.c ****   * @retval None
 206:Core/Src/main.c ****   */
 207:Core/Src/main.c **** static void MX_GPIO_Init(void)
 208:Core/Src/main.c **** {
 209:Core/Src/main.c ****   GPIO_InitTypeDef GPIO_InitStruct = {0};
 210:Core/Src/main.c ****   /* USER CODE BEGIN MX_GPIO_Init_1 */
 211:Core/Src/main.c **** 
 212:Core/Src/main.c ****   /* USER CODE END MX_GPIO_Init_1 */
 213:Core/Src/main.c **** 
 214:Core/Src/main.c ****   /* GPIO Ports Clock Enable */
 215:Core/Src/main.c ****   __HAL_RCC_GPIOF_CLK_ENABLE();
 216:Core/Src/main.c ****   __HAL_RCC_GPIOB_CLK_ENABLE();
 217:Core/Src/main.c ****   __HAL_RCC_GPIOA_CLK_ENABLE();
 218:Core/Src/main.c **** 
 219:Core/Src/main.c ****   /*Configure GPIO pin Output Level */
 220:Core/Src/main.c ****   HAL_GPIO_WritePin(GPIOB, GPIO_PIN_0|GPIO_PIN_1|GPIO_PIN_2|GPIO_PIN_3
 221:Core/Src/main.c ****                           |GPIO_PIN_4|GPIO_PIN_5|GPIO_PIN_6|GPIO_PIN_7, GPIO_PIN_RESET);
 222:Core/Src/main.c **** 
 223:Core/Src/main.c ****   /*Configure GPIO pins : PB0 PB1 PB2 PB3
 224:Core/Src/main.c ****                            PB4 PB5 PB6 PB7 */
 225:Core/Src/main.c ****   GPIO_InitStruct.Pin = GPIO_PIN_0|GPIO_PIN_1|GPIO_PIN_2|GPIO_PIN_3
 226:Core/Src/main.c ****                           |GPIO_PIN_4|GPIO_PIN_5|GPIO_PIN_6|GPIO_PIN_7;
 227:Core/Src/main.c ****   GPIO_InitStruct.Mode = GPIO_MODE_OUTPUT_PP;
 228:Core/Src/main.c ****   GPIO_InitStruct.Pull = GPIO_NOPULL;
 229:Core/Src/main.c ****   GPIO_InitStruct.Speed = GPIO_SPEED_FREQ_LOW;
 230:Core/Src/main.c ****   HAL_GPIO_Init(GPIOB, &GPIO_InitStruct);
 231:Core/Src/main.c **** 
 232:Core/Src/main.c ****   /* USER CODE BEGIN MX_GPIO_Init_2 */
 233:Core/Src/main.c **** 
 234:Core/Src/main.c ****   /* USER CODE END MX_GPIO_Init_2 */
 235:Core/Src/main.c **** }
 236:Core/Src/main.c **** 
 237:Core/Src/main.c **** /* USER CODE BEGIN 4 */
 238:Core/Src/main.c **** static uint32_t generate_mandelbrot_checksum(uint16_t width, uint16_t height, uint32_t max_iter)
 239:Core/Src/main.c **** {
  33              		.loc 1 239 1 view -0
  34              		.cfi_startproc
  35              		@ args = 0, pretend = 0, frame = 48
  36              		@ frame_needed = 0, uses_anonymous_args = 0
  37              		.loc 1 239 1 is_stmt 0 view .LVU1
  38 0000 F0B5     		push	{r4, r5, r6, r7, lr}
  39              	.LCFI0:
  40              		.cfi_def_cfa_offset 20
  41              		.cfi_offset 4, -20
  42              		.cfi_offset 5, -16
  43              		.cfi_offset 6, -12
  44              		.cfi_offset 7, -8
  45              		.cfi_offset 14, -4
  46 0002 DE46     		mov	lr, fp
  47 0004 5746     		mov	r7, r10
ARM GAS  C:\Users\einom\AppData\Local\Temp\ccNh7ZuO.s 			page 6


  48 0006 4E46     		mov	r6, r9
  49 0008 4546     		mov	r5, r8
  50 000a E0B5     		push	{r5, r6, r7, lr}
  51              	.LCFI1:
  52              		.cfi_def_cfa_offset 36
  53              		.cfi_offset 8, -36
  54              		.cfi_offset 9, -32
  55              		.cfi_offset 10, -28
  56              		.cfi_offset 11, -24
  57 000c 8DB0     		sub	sp, sp, #52
  58              	.LCFI2:
  59              		.cfi_def_cfa_offset 88
  60 000e 0F00     		movs	r7, r1
  61 0010 9146     		mov	r9, r2
 240:Core/Src/main.c ****   uint32_t mandelbrot_sum = 0u;
  62              		.loc 1 240 3 is_stmt 1 view .LVU2
  63              	.LVL1:
 241:Core/Src/main.c ****   for (uint16_t y = 0; y < height; ++y)
  64              		.loc 1 241 3 view .LVU3
  65              	.LBB4:
  66              		.loc 1 241 8 view .LVU4
  67              		.loc 1 241 17 is_stmt 0 view .LVU5
  68 0012 0026     		movs	r6, #0
  69              	.LBE4:
 240:Core/Src/main.c ****   uint32_t mandelbrot_sum = 0u;
  70              		.loc 1 240 12 view .LVU6
  71 0014 0023     		movs	r3, #0
  72 0016 9846     		mov	r8, r3
  73 0018 0A90     		str	r0, [sp, #40]
  74              	.LBB12:
  75              		.loc 1 241 3 view .LVU7
  76 001a 6BE0     		b	.L2
  77              	.LVL2:
  78              	.L6:
  79              	.LBB5:
  80              	.LBB6:
  81              	.LBB7:
  82              	.LBB8:
 242:Core/Src/main.c ****   {
 243:Core/Src/main.c ****     double y0 = ((double)y / (double)height) * 2.0 - 1.0;
 244:Core/Src/main.c ****     for (uint16_t x = 0; x < width; ++x)
 245:Core/Src/main.c ****     {
 246:Core/Src/main.c ****       double x0 = ((double)x / (double)width) * 3.5 - 2.5;
 247:Core/Src/main.c ****       double xi = 0.0;
 248:Core/Src/main.c ****       double yi = 0.0;
 249:Core/Src/main.c ****       uint32_t iteration = 0u;
 250:Core/Src/main.c ****       while (iteration < max_iter && (xi*xi + yi*yi) <= 4.0)
 251:Core/Src/main.c ****       {
 252:Core/Src/main.c ****         double tmp = xi*xi - yi*yi + x0;
  83              		.loc 1 252 9 is_stmt 1 view .LVU8
  84              		.loc 1 252 28 is_stmt 0 view .LVU9
  85 001c 029A     		ldr	r2, [sp, #8]
  86 001e 039B     		ldr	r3, [sp, #12]
  87 0020 0098     		ldr	r0, [sp]
  88 0022 0199     		ldr	r1, [sp, #4]
  89 0024 FFF7FEFF 		bl	__aeabi_dsub
  90              	.LVL3:
ARM GAS  C:\Users\einom\AppData\Local\Temp\ccNh7ZuO.s 			page 7


  91              		.loc 1 252 16 view .LVU10
  92 0028 049A     		ldr	r2, [sp, #16]
  93 002a 059B     		ldr	r3, [sp, #20]
  94 002c FFF7FEFF 		bl	__aeabi_dadd
  95              	.LVL4:
  96 0030 0090     		str	r0, [sp]
  97 0032 0191     		str	r1, [sp, #4]
  98              	.LVL5:
 253:Core/Src/main.c ****         yi = 2.0*xi*yi + y0;
  99              		.loc 1 253 9 is_stmt 1 view .LVU11
 100              		.loc 1 253 17 is_stmt 0 view .LVU12
 101 0034 2200     		movs	r2, r4
 102 0036 2B00     		movs	r3, r5
 103 0038 2000     		movs	r0, r4
 104              	.LVL6:
 105              		.loc 1 253 17 view .LVU13
 106 003a 2900     		movs	r1, r5
 107 003c FFF7FEFF 		bl	__aeabi_dadd
 108              	.LVL7:
 109              		.loc 1 253 20 view .LVU14
 110 0040 3200     		movs	r2, r6
 111 0042 3B00     		movs	r3, r7
 112 0044 FFF7FEFF 		bl	__aeabi_dmul
 113              	.LVL8:
 114              		.loc 1 253 12 view .LVU15
 115 0048 069A     		ldr	r2, [sp, #24]
 116 004a 079B     		ldr	r3, [sp, #28]
 117 004c FFF7FEFF 		bl	__aeabi_dadd
 118              	.LVL9:
 119 0050 0600     		movs	r6, r0
 120              	.LVL10:
 121              		.loc 1 253 12 view .LVU16
 122 0052 0F00     		movs	r7, r1
 123              	.LVL11:
 254:Core/Src/main.c ****         xi = tmp;
 124              		.loc 1 254 9 is_stmt 1 view .LVU17
 255:Core/Src/main.c ****         ++iteration;
 125              		.loc 1 255 9 view .LVU18
 126 0054 0123     		movs	r3, #1
 127 0056 9C46     		mov	ip, r3
 128 0058 E044     		add	r8, r8, ip
 129              	.LVL12:
 254:Core/Src/main.c ****         xi = tmp;
 130              		.loc 1 254 12 is_stmt 0 view .LVU19
 131 005a 009C     		ldr	r4, [sp]
 132 005c 019D     		ldr	r5, [sp, #4]
 133              	.LVL13:
 134              	.L4:
 254:Core/Src/main.c ****         xi = tmp;
 135              		.loc 1 254 12 view .LVU20
 136              	.LBE8:
 250:Core/Src/main.c ****       {
 137              		.loc 1 250 35 is_stmt 1 view .LVU21
 138 005e C845     		cmp	r8, r9
 139 0060 1BD2     		bcs	.L5
 250:Core/Src/main.c ****       {
 140              		.loc 1 250 41 is_stmt 0 discriminator 1 view .LVU22
ARM GAS  C:\Users\einom\AppData\Local\Temp\ccNh7ZuO.s 			page 8


 141 0062 2200     		movs	r2, r4
 142 0064 2B00     		movs	r3, r5
 143 0066 2000     		movs	r0, r4
 144 0068 2900     		movs	r1, r5
 145 006a FFF7FEFF 		bl	__aeabi_dmul
 146              	.LVL14:
 147 006e 0090     		str	r0, [sp]
 148 0070 0191     		str	r1, [sp, #4]
 250:Core/Src/main.c ****       {
 149              		.loc 1 250 49 discriminator 1 view .LVU23
 150 0072 3200     		movs	r2, r6
 151 0074 3B00     		movs	r3, r7
 152 0076 3000     		movs	r0, r6
 153 0078 3900     		movs	r1, r7
 154 007a FFF7FEFF 		bl	__aeabi_dmul
 155              	.LVL15:
 156 007e 0200     		movs	r2, r0
 157 0080 0B00     		movs	r3, r1
 158 0082 0292     		str	r2, [sp, #8]
 159 0084 0393     		str	r3, [sp, #12]
 250:Core/Src/main.c ****       {
 160              		.loc 1 250 45 discriminator 1 view .LVU24
 161 0086 0098     		ldr	r0, [sp]
 162 0088 0199     		ldr	r1, [sp, #4]
 163 008a FFF7FEFF 		bl	__aeabi_dadd
 164              	.LVL16:
 250:Core/Src/main.c ****       {
 165              		.loc 1 250 35 discriminator 1 view .LVU25
 166 008e 0022     		movs	r2, #0
 167 0090 2C4B     		ldr	r3, .L11
 168 0092 FFF7FEFF 		bl	__aeabi_dcmple
 169              	.LVL17:
 170 0096 0028     		cmp	r0, #0
 171 0098 C0D1     		bne	.L6
 172              	.L5:
 256:Core/Src/main.c ****       }
 257:Core/Src/main.c ****       mandelbrot_sum += iteration;
 173              		.loc 1 257 7 is_stmt 1 view .LVU26
 174              		.loc 1 257 22 is_stmt 0 view .LVU27
 175 009a C244     		add	r10, r10, r8
 176              	.LVL18:
 177              		.loc 1 257 22 view .LVU28
 178              	.LBE7:
 244:Core/Src/main.c ****     {
 179              		.loc 1 244 37 is_stmt 1 discriminator 2 view .LVU29
 180 009c 099E     		ldr	r6, [sp, #36]
 181              	.LVL19:
 244:Core/Src/main.c ****     {
 182              		.loc 1 244 37 is_stmt 0 discriminator 2 view .LVU30
 183 009e 0136     		adds	r6, r6, #1
 184 00a0 B3B2     		uxth	r3, r6
 185 00a2 0993     		str	r3, [sp, #36]
 186              	.LVL20:
 187              	.L3:
 244:Core/Src/main.c ****     {
 188              		.loc 1 244 28 is_stmt 1 discriminator 1 view .LVU31
 189 00a4 099B     		ldr	r3, [sp, #36]
ARM GAS  C:\Users\einom\AppData\Local\Temp\ccNh7ZuO.s 			page 9


 190 00a6 0A9A     		ldr	r2, [sp, #40]
 191 00a8 9342     		cmp	r3, r2
 192 00aa 1ED2     		bcs	.L9
 193              	.LBB9:
 246:Core/Src/main.c ****       double xi = 0.0;
 194              		.loc 1 246 7 view .LVU32
 246:Core/Src/main.c ****       double xi = 0.0;
 195              		.loc 1 246 20 is_stmt 0 view .LVU33
 196 00ac 0998     		ldr	r0, [sp, #36]
 197 00ae FFF7FEFF 		bl	__aeabi_ui2d
 198              	.LVL21:
 199 00b2 0400     		movs	r4, r0
 200 00b4 0D00     		movs	r5, r1
 246:Core/Src/main.c ****       double xi = 0.0;
 201              		.loc 1 246 32 view .LVU34
 202 00b6 0A98     		ldr	r0, [sp, #40]
 203 00b8 FFF7FEFF 		bl	__aeabi_ui2d
 204              	.LVL22:
 205 00bc 0200     		movs	r2, r0
 206 00be 0B00     		movs	r3, r1
 246:Core/Src/main.c ****       double xi = 0.0;
 207              		.loc 1 246 30 view .LVU35
 208 00c0 2000     		movs	r0, r4
 209 00c2 2900     		movs	r1, r5
 210 00c4 FFF7FEFF 		bl	__aeabi_ddiv
 211              	.LVL23:
 246:Core/Src/main.c ****       double xi = 0.0;
 212              		.loc 1 246 47 view .LVU36
 213 00c8 0022     		movs	r2, #0
 214 00ca 1F4B     		ldr	r3, .L11+4
 215 00cc FFF7FEFF 		bl	__aeabi_dmul
 216              	.LVL24:
 246:Core/Src/main.c ****       double xi = 0.0;
 217              		.loc 1 246 14 view .LVU37
 218 00d0 0022     		movs	r2, #0
 219 00d2 1E4B     		ldr	r3, .L11+8
 220 00d4 FFF7FEFF 		bl	__aeabi_dsub
 221              	.LVL25:
 222 00d8 0490     		str	r0, [sp, #16]
 223 00da 0591     		str	r1, [sp, #20]
 224              	.LVL26:
 247:Core/Src/main.c ****       double yi = 0.0;
 225              		.loc 1 247 7 is_stmt 1 view .LVU38
 248:Core/Src/main.c ****       uint32_t iteration = 0u;
 226              		.loc 1 248 7 view .LVU39
 249:Core/Src/main.c ****       while (iteration < max_iter && (xi*xi + yi*yi) <= 4.0)
 227              		.loc 1 249 7 view .LVU40
 250:Core/Src/main.c ****       {
 228              		.loc 1 250 7 view .LVU41
 249:Core/Src/main.c ****       while (iteration < max_iter && (xi*xi + yi*yi) <= 4.0)
 229              		.loc 1 249 16 is_stmt 0 view .LVU42
 230 00dc 0023     		movs	r3, #0
 231 00de 9846     		mov	r8, r3
 248:Core/Src/main.c ****       uint32_t iteration = 0u;
 232              		.loc 1 248 14 view .LVU43
 233 00e0 0026     		movs	r6, #0
 234 00e2 0027     		movs	r7, #0
ARM GAS  C:\Users\einom\AppData\Local\Temp\ccNh7ZuO.s 			page 10


 247:Core/Src/main.c ****       double yi = 0.0;
 235              		.loc 1 247 14 view .LVU44
 236 00e4 3400     		movs	r4, r6
 237 00e6 3D00     		movs	r5, r7
 250:Core/Src/main.c ****       {
 238              		.loc 1 250 13 view .LVU45
 239 00e8 B9E7     		b	.L4
 240              	.LVL27:
 241              	.L9:
 250:Core/Src/main.c ****       {
 242              		.loc 1 250 13 view .LVU46
 243              	.LBE9:
 244              	.LBE6:
 245              	.LBE5:
 241:Core/Src/main.c ****   {
 246              		.loc 1 241 36 discriminator 2 view .LVU47
 247 00ea 0B9E     		ldr	r6, [sp, #44]
 248 00ec D046     		mov	r8, r10
 249 00ee 5F46     		mov	r7, fp
 241:Core/Src/main.c ****   {
 250              		.loc 1 241 36 is_stmt 1 discriminator 2 view .LVU48
 251 00f0 0136     		adds	r6, r6, #1
 252 00f2 B6B2     		uxth	r6, r6
 253              	.LVL28:
 254              	.L2:
 241:Core/Src/main.c ****   {
 255              		.loc 1 241 26 discriminator 1 view .LVU49
 256 00f4 BE42     		cmp	r6, r7
 257 00f6 1DD2     		bcs	.L10
 258              	.LBB11:
 243:Core/Src/main.c ****     for (uint16_t x = 0; x < width; ++x)
 259              		.loc 1 243 5 view .LVU50
 243:Core/Src/main.c ****     for (uint16_t x = 0; x < width; ++x)
 260              		.loc 1 243 18 is_stmt 0 view .LVU51
 261 00f8 3000     		movs	r0, r6
 262 00fa FFF7FEFF 		bl	__aeabi_ui2d
 263              	.LVL29:
 264 00fe 0400     		movs	r4, r0
 265 0100 0D00     		movs	r5, r1
 243:Core/Src/main.c ****     for (uint16_t x = 0; x < width; ++x)
 266              		.loc 1 243 30 view .LVU52
 267 0102 3800     		movs	r0, r7
 268 0104 FFF7FEFF 		bl	__aeabi_ui2d
 269              	.LVL30:
 270 0108 0200     		movs	r2, r0
 271 010a 0B00     		movs	r3, r1
 243:Core/Src/main.c ****     for (uint16_t x = 0; x < width; ++x)
 272              		.loc 1 243 28 view .LVU53
 273 010c 2000     		movs	r0, r4
 274 010e 2900     		movs	r1, r5
 275 0110 FFF7FEFF 		bl	__aeabi_ddiv
 276              	.LVL31:
 243:Core/Src/main.c ****     for (uint16_t x = 0; x < width; ++x)
 277              		.loc 1 243 46 view .LVU54
 278 0114 0200     		movs	r2, r0
 279 0116 0B00     		movs	r3, r1
 280 0118 FFF7FEFF 		bl	__aeabi_dadd
ARM GAS  C:\Users\einom\AppData\Local\Temp\ccNh7ZuO.s 			page 11


 281              	.LVL32:
 243:Core/Src/main.c ****     for (uint16_t x = 0; x < width; ++x)
 282              		.loc 1 243 12 view .LVU55
 283 011c 0022     		movs	r2, #0
 284 011e 0C4B     		ldr	r3, .L11+12
 285 0120 FFF7FEFF 		bl	__aeabi_dsub
 286              	.LVL33:
 287 0124 0690     		str	r0, [sp, #24]
 288 0126 0791     		str	r1, [sp, #28]
 289              	.LVL34:
 244:Core/Src/main.c ****     {
 290              		.loc 1 244 5 is_stmt 1 view .LVU56
 291              	.LBB10:
 244:Core/Src/main.c ****     {
 292              		.loc 1 244 10 view .LVU57
 244:Core/Src/main.c ****     {
 293              		.loc 1 244 19 is_stmt 0 view .LVU58
 294 0128 0023     		movs	r3, #0
 295 012a 0B96     		str	r6, [sp, #44]
 296 012c 0993     		str	r3, [sp, #36]
 297 012e C246     		mov	r10, r8
 298 0130 BB46     		mov	fp, r7
 244:Core/Src/main.c ****     {
 299              		.loc 1 244 5 view .LVU59
 300 0132 B7E7     		b	.L3
 301              	.LVL35:
 302              	.L10:
 244:Core/Src/main.c ****     {
 303              		.loc 1 244 5 view .LVU60
 304              	.LBE10:
 305              	.LBE11:
 306              	.LBE12:
 258:Core/Src/main.c ****     }
 259:Core/Src/main.c ****   }
 260:Core/Src/main.c ****   return mandelbrot_sum;
 307              		.loc 1 260 3 is_stmt 1 view .LVU61
 261:Core/Src/main.c **** }
 308              		.loc 1 261 1 is_stmt 0 view .LVU62
 309 0134 4046     		mov	r0, r8
 310 0136 0DB0     		add	sp, sp, #52
 311              		@ sp needed
 312              	.LVL36:
 313              	.LVL37:
 314              	.LVL38:
 315              	.LVL39:
 316              		.loc 1 261 1 view .LVU63
 317 0138 F0BC     		pop	{r4, r5, r6, r7}
 318 013a BB46     		mov	fp, r7
 319 013c B246     		mov	r10, r6
 320 013e A946     		mov	r9, r5
 321 0140 A046     		mov	r8, r4
 322 0142 F0BD     		pop	{r4, r5, r6, r7, pc}
 323              	.L12:
 324              		.align	2
 325              	.L11:
 326 0144 00001040 		.word	1074790400
 327 0148 00000C40 		.word	1074528256
ARM GAS  C:\Users\einom\AppData\Local\Temp\ccNh7ZuO.s 			page 12


 328 014c 00000440 		.word	1074003968
 329 0150 0000F03F 		.word	1072693248
 330              		.cfi_endproc
 331              	.LFE43:
 333              		.global	__aeabi_uidiv
 334              		.section	.text.estimate_cpu_cycles_from_ms,"ax",%progbits
 335              		.align	1
 336              		.syntax unified
 337              		.code	16
 338              		.thumb_func
 340              	estimate_cpu_cycles_from_ms:
 341              	.LVL40:
 342              	.LFB44:
 262:Core/Src/main.c **** 
 263:Core/Src/main.c **** static uint32_t estimate_cpu_cycles_from_ms(uint32_t elapsed_ms)
 264:Core/Src/main.c **** {
 343              		.loc 1 264 1 is_stmt 1 view -0
 344              		.cfi_startproc
 345              		@ args = 0, pretend = 0, frame = 0
 346              		@ frame_needed = 0, uses_anonymous_args = 0
 347              		.loc 1 264 1 is_stmt 0 view .LVU65
 348 0000 10B5     		push	{r4, lr}
 349              	.LCFI3:
 350              		.cfi_def_cfa_offset 8
 351              		.cfi_offset 4, -8
 352              		.cfi_offset 14, -4
 353 0002 0400     		movs	r4, r0
 265:Core/Src/main.c ****   /* Estimate CPU cycles based on SystemCoreClock and elapsed milliseconds */
 266:Core/Src/main.c ****   /* This is an approximation since F0 doesn't have DWT cycle counter */
 267:Core/Src/main.c ****   return elapsed_ms * (SystemCoreClock / 1000u);
 354              		.loc 1 267 3 is_stmt 1 view .LVU66
 355              		.loc 1 267 40 is_stmt 0 view .LVU67
 356 0004 034B     		ldr	r3, .L14
 357 0006 1868     		ldr	r0, [r3]
 358              	.LVL41:
 359              		.loc 1 267 40 view .LVU68
 360 0008 FA21     		movs	r1, #250
 361 000a 8900     		lsls	r1, r1, #2
 362 000c FFF7FEFF 		bl	__aeabi_uidiv
 363              	.LVL42:
 364              		.loc 1 267 21 view .LVU69
 365 0010 6043     		muls	r0, r4
 268:Core/Src/main.c **** }
 366              		.loc 1 268 1 view .LVU70
 367              		@ sp needed
 368              	.LVL43:
 369              		.loc 1 268 1 view .LVU71
 370 0012 10BD     		pop	{r4, pc}
 371              	.L15:
 372              		.align	2
 373              	.L14:
 374 0014 00000000 		.word	SystemCoreClock
 375              		.cfi_endproc
 376              	.LFE44:
 378              		.section	.text.MX_GPIO_Init,"ax",%progbits
 379              		.align	1
 380              		.syntax unified
ARM GAS  C:\Users\einom\AppData\Local\Temp\ccNh7ZuO.s 			page 13


 381              		.code	16
 382              		.thumb_func
 384              	MX_GPIO_Init:
 385              	.LFB42:
 208:Core/Src/main.c ****   GPIO_InitTypeDef GPIO_InitStruct = {0};
 386              		.loc 1 208 1 is_stmt 1 view -0
 387              		.cfi_startproc
 388              		@ args = 0, pretend = 0, frame = 32
 389              		@ frame_needed = 0, uses_anonymous_args = 0
 390 0000 10B5     		push	{r4, lr}
 391              	.LCFI4:
 392              		.cfi_def_cfa_offset 8
 393              		.cfi_offset 4, -8
 394              		.cfi_offset 14, -4
 395 0002 88B0     		sub	sp, sp, #32
 396              	.LCFI5:
 397              		.cfi_def_cfa_offset 40
 209:Core/Src/main.c ****   /* USER CODE BEGIN MX_GPIO_Init_1 */
 398              		.loc 1 209 3 view .LVU73
 209:Core/Src/main.c ****   /* USER CODE BEGIN MX_GPIO_Init_1 */
 399              		.loc 1 209 20 is_stmt 0 view .LVU74
 400 0004 1422     		movs	r2, #20
 401 0006 0021     		movs	r1, #0
 402 0008 03A8     		add	r0, sp, #12
 403 000a FFF7FEFF 		bl	memset
 404              	.LVL44:
 215:Core/Src/main.c ****   __HAL_RCC_GPIOB_CLK_ENABLE();
 405              		.loc 1 215 3 is_stmt 1 view .LVU75
 406              	.LBB13:
 215:Core/Src/main.c ****   __HAL_RCC_GPIOB_CLK_ENABLE();
 407              		.loc 1 215 3 view .LVU76
 215:Core/Src/main.c ****   __HAL_RCC_GPIOB_CLK_ENABLE();
 408              		.loc 1 215 3 view .LVU77
 409 000e 174B     		ldr	r3, .L17
 410 0010 5A69     		ldr	r2, [r3, #20]
 411 0012 8021     		movs	r1, #128
 412 0014 C903     		lsls	r1, r1, #15
 413 0016 0A43     		orrs	r2, r1
 414 0018 5A61     		str	r2, [r3, #20]
 215:Core/Src/main.c ****   __HAL_RCC_GPIOB_CLK_ENABLE();
 415              		.loc 1 215 3 view .LVU78
 416 001a 5A69     		ldr	r2, [r3, #20]
 417 001c 0A40     		ands	r2, r1
 418 001e 0092     		str	r2, [sp]
 215:Core/Src/main.c ****   __HAL_RCC_GPIOB_CLK_ENABLE();
 419              		.loc 1 215 3 view .LVU79
 420 0020 009A     		ldr	r2, [sp]
 421              	.LBE13:
 215:Core/Src/main.c ****   __HAL_RCC_GPIOB_CLK_ENABLE();
 422              		.loc 1 215 3 view .LVU80
 216:Core/Src/main.c ****   __HAL_RCC_GPIOA_CLK_ENABLE();
 423              		.loc 1 216 3 view .LVU81
 424              	.LBB14:
 216:Core/Src/main.c ****   __HAL_RCC_GPIOA_CLK_ENABLE();
 425              		.loc 1 216 3 view .LVU82
 216:Core/Src/main.c ****   __HAL_RCC_GPIOA_CLK_ENABLE();
 426              		.loc 1 216 3 view .LVU83
ARM GAS  C:\Users\einom\AppData\Local\Temp\ccNh7ZuO.s 			page 14


 427 0022 5A69     		ldr	r2, [r3, #20]
 428 0024 8021     		movs	r1, #128
 429 0026 C902     		lsls	r1, r1, #11
 430 0028 0A43     		orrs	r2, r1
 431 002a 5A61     		str	r2, [r3, #20]
 216:Core/Src/main.c ****   __HAL_RCC_GPIOA_CLK_ENABLE();
 432              		.loc 1 216 3 view .LVU84
 433 002c 5A69     		ldr	r2, [r3, #20]
 434 002e 0A40     		ands	r2, r1
 435 0030 0192     		str	r2, [sp, #4]
 216:Core/Src/main.c ****   __HAL_RCC_GPIOA_CLK_ENABLE();
 436              		.loc 1 216 3 view .LVU85
 437 0032 019A     		ldr	r2, [sp, #4]
 438              	.LBE14:
 216:Core/Src/main.c ****   __HAL_RCC_GPIOA_CLK_ENABLE();
 439              		.loc 1 216 3 view .LVU86
 217:Core/Src/main.c **** 
 440              		.loc 1 217 3 view .LVU87
 441              	.LBB15:
 217:Core/Src/main.c **** 
 442              		.loc 1 217 3 view .LVU88
 217:Core/Src/main.c **** 
 443              		.loc 1 217 3 view .LVU89
 444 0034 5A69     		ldr	r2, [r3, #20]
 445 0036 8021     		movs	r1, #128
 446 0038 8902     		lsls	r1, r1, #10
 447 003a 0A43     		orrs	r2, r1
 448 003c 5A61     		str	r2, [r3, #20]
 217:Core/Src/main.c **** 
 449              		.loc 1 217 3 view .LVU90
 450 003e 5B69     		ldr	r3, [r3, #20]
 451 0040 0B40     		ands	r3, r1
 452 0042 0293     		str	r3, [sp, #8]
 217:Core/Src/main.c **** 
 453              		.loc 1 217 3 view .LVU91
 454 0044 029B     		ldr	r3, [sp, #8]
 455              	.LBE15:
 217:Core/Src/main.c **** 
 456              		.loc 1 217 3 view .LVU92
 220:Core/Src/main.c ****                           |GPIO_PIN_4|GPIO_PIN_5|GPIO_PIN_6|GPIO_PIN_7, GPIO_PIN_RESET);
 457              		.loc 1 220 3 view .LVU93
 458 0046 0A4C     		ldr	r4, .L17+4
 459 0048 0022     		movs	r2, #0
 460 004a FF21     		movs	r1, #255
 461 004c 2000     		movs	r0, r4
 462 004e FFF7FEFF 		bl	HAL_GPIO_WritePin
 463              	.LVL45:
 225:Core/Src/main.c ****                           |GPIO_PIN_4|GPIO_PIN_5|GPIO_PIN_6|GPIO_PIN_7;
 464              		.loc 1 225 3 view .LVU94
 225:Core/Src/main.c ****                           |GPIO_PIN_4|GPIO_PIN_5|GPIO_PIN_6|GPIO_PIN_7;
 465              		.loc 1 225 23 is_stmt 0 view .LVU95
 466 0052 FF23     		movs	r3, #255
 467 0054 0393     		str	r3, [sp, #12]
 227:Core/Src/main.c ****   GPIO_InitStruct.Pull = GPIO_NOPULL;
 468              		.loc 1 227 3 is_stmt 1 view .LVU96
 227:Core/Src/main.c ****   GPIO_InitStruct.Pull = GPIO_NOPULL;
 469              		.loc 1 227 24 is_stmt 0 view .LVU97
ARM GAS  C:\Users\einom\AppData\Local\Temp\ccNh7ZuO.s 			page 15


 470 0056 FE3B     		subs	r3, r3, #254
 471 0058 0493     		str	r3, [sp, #16]
 228:Core/Src/main.c ****   GPIO_InitStruct.Speed = GPIO_SPEED_FREQ_LOW;
 472              		.loc 1 228 3 is_stmt 1 view .LVU98
 228:Core/Src/main.c ****   GPIO_InitStruct.Speed = GPIO_SPEED_FREQ_LOW;
 473              		.loc 1 228 24 is_stmt 0 view .LVU99
 474 005a 0023     		movs	r3, #0
 475 005c 0593     		str	r3, [sp, #20]
 229:Core/Src/main.c ****   HAL_GPIO_Init(GPIOB, &GPIO_InitStruct);
 476              		.loc 1 229 3 is_stmt 1 view .LVU100
 229:Core/Src/main.c ****   HAL_GPIO_Init(GPIOB, &GPIO_InitStruct);
 477              		.loc 1 229 25 is_stmt 0 view .LVU101
 478 005e 0693     		str	r3, [sp, #24]
 230:Core/Src/main.c **** 
 479              		.loc 1 230 3 is_stmt 1 view .LVU102
 480 0060 03A9     		add	r1, sp, #12
 481 0062 2000     		movs	r0, r4
 482 0064 FFF7FEFF 		bl	HAL_GPIO_Init
 483              	.LVL46:
 235:Core/Src/main.c **** 
 484              		.loc 1 235 1 is_stmt 0 view .LVU103
 485 0068 08B0     		add	sp, sp, #32
 486              		@ sp needed
 487 006a 10BD     		pop	{r4, pc}
 488              	.L18:
 489              		.align	2
 490              	.L17:
 491 006c 00100240 		.word	1073876992
 492 0070 00040048 		.word	1207960576
 493              		.cfi_endproc
 494              	.LFE42:
 496              		.section	.text.Error_Handler,"ax",%progbits
 497              		.align	1
 498              		.global	Error_Handler
 499              		.syntax unified
 500              		.code	16
 501              		.thumb_func
 503              	Error_Handler:
 504              	.LFB45:
 269:Core/Src/main.c **** 
 270:Core/Src/main.c **** /* USER CODE END 4 */
 271:Core/Src/main.c **** 
 272:Core/Src/main.c **** /**
 273:Core/Src/main.c ****   * @brief  This function is executed in case of error occurrence.
 274:Core/Src/main.c ****   * @retval None
 275:Core/Src/main.c ****   */
 276:Core/Src/main.c **** void Error_Handler(void)
 277:Core/Src/main.c **** {
 505              		.loc 1 277 1 is_stmt 1 view -0
 506              		.cfi_startproc
 507              		@ Volatile: function does not return.
 508              		@ args = 0, pretend = 0, frame = 0
 509              		@ frame_needed = 0, uses_anonymous_args = 0
 510              		@ link register save eliminated.
 278:Core/Src/main.c ****   /* USER CODE BEGIN Error_Handler_Debug */
 279:Core/Src/main.c ****   /* User can add his own implementation to report the HAL error return state */
 280:Core/Src/main.c ****   __disable_irq();
ARM GAS  C:\Users\einom\AppData\Local\Temp\ccNh7ZuO.s 			page 16


 511              		.loc 1 280 3 view .LVU105
 512              	.LBB16:
 513              	.LBI16:
 514              		.file 2 "Drivers/CMSIS/Include/cmsis_gcc.h"
   1:Drivers/CMSIS/Include/cmsis_gcc.h **** /**************************************************************************//**
   2:Drivers/CMSIS/Include/cmsis_gcc.h ****  * @file     cmsis_gcc.h
   3:Drivers/CMSIS/Include/cmsis_gcc.h ****  * @brief    CMSIS compiler GCC header file
   4:Drivers/CMSIS/Include/cmsis_gcc.h ****  * @version  V5.0.4
   5:Drivers/CMSIS/Include/cmsis_gcc.h ****  * @date     09. April 2018
   6:Drivers/CMSIS/Include/cmsis_gcc.h ****  ******************************************************************************/
   7:Drivers/CMSIS/Include/cmsis_gcc.h **** /*
   8:Drivers/CMSIS/Include/cmsis_gcc.h ****  * Copyright (c) 2009-2018 Arm Limited. All rights reserved.
   9:Drivers/CMSIS/Include/cmsis_gcc.h ****  *
  10:Drivers/CMSIS/Include/cmsis_gcc.h ****  * SPDX-License-Identifier: Apache-2.0
  11:Drivers/CMSIS/Include/cmsis_gcc.h ****  *
  12:Drivers/CMSIS/Include/cmsis_gcc.h ****  * Licensed under the Apache License, Version 2.0 (the License); you may
  13:Drivers/CMSIS/Include/cmsis_gcc.h ****  * not use this file except in compliance with the License.
  14:Drivers/CMSIS/Include/cmsis_gcc.h ****  * You may obtain a copy of the License at
  15:Drivers/CMSIS/Include/cmsis_gcc.h ****  *
  16:Drivers/CMSIS/Include/cmsis_gcc.h ****  * www.apache.org/licenses/LICENSE-2.0
  17:Drivers/CMSIS/Include/cmsis_gcc.h ****  *
  18:Drivers/CMSIS/Include/cmsis_gcc.h ****  * Unless required by applicable law or agreed to in writing, software
  19:Drivers/CMSIS/Include/cmsis_gcc.h ****  * distributed under the License is distributed on an AS IS BASIS, WITHOUT
  20:Drivers/CMSIS/Include/cmsis_gcc.h ****  * WARRANTIES OR CONDITIONS OF ANY KIND, either express or implied.
  21:Drivers/CMSIS/Include/cmsis_gcc.h ****  * See the License for the specific language governing permissions and
  22:Drivers/CMSIS/Include/cmsis_gcc.h ****  * limitations under the License.
  23:Drivers/CMSIS/Include/cmsis_gcc.h ****  */
  24:Drivers/CMSIS/Include/cmsis_gcc.h **** 
  25:Drivers/CMSIS/Include/cmsis_gcc.h **** #ifndef __CMSIS_GCC_H
  26:Drivers/CMSIS/Include/cmsis_gcc.h **** #define __CMSIS_GCC_H
  27:Drivers/CMSIS/Include/cmsis_gcc.h **** 
  28:Drivers/CMSIS/Include/cmsis_gcc.h **** /* ignore some GCC warnings */
  29:Drivers/CMSIS/Include/cmsis_gcc.h **** #pragma GCC diagnostic push
  30:Drivers/CMSIS/Include/cmsis_gcc.h **** #pragma GCC diagnostic ignored "-Wsign-conversion"
  31:Drivers/CMSIS/Include/cmsis_gcc.h **** #pragma GCC diagnostic ignored "-Wconversion"
  32:Drivers/CMSIS/Include/cmsis_gcc.h **** #pragma GCC diagnostic ignored "-Wunused-parameter"
  33:Drivers/CMSIS/Include/cmsis_gcc.h **** 
  34:Drivers/CMSIS/Include/cmsis_gcc.h **** /* Fallback for __has_builtin */
  35:Drivers/CMSIS/Include/cmsis_gcc.h **** #ifndef __has_builtin
  36:Drivers/CMSIS/Include/cmsis_gcc.h ****   #define __has_builtin(x) (0)
  37:Drivers/CMSIS/Include/cmsis_gcc.h **** #endif
  38:Drivers/CMSIS/Include/cmsis_gcc.h **** 
  39:Drivers/CMSIS/Include/cmsis_gcc.h **** /* CMSIS compiler specific defines */
  40:Drivers/CMSIS/Include/cmsis_gcc.h **** #ifndef   __ASM
  41:Drivers/CMSIS/Include/cmsis_gcc.h ****   #define __ASM                                  __asm
  42:Drivers/CMSIS/Include/cmsis_gcc.h **** #endif
  43:Drivers/CMSIS/Include/cmsis_gcc.h **** #ifndef   __INLINE
  44:Drivers/CMSIS/Include/cmsis_gcc.h ****   #define __INLINE                               inline
  45:Drivers/CMSIS/Include/cmsis_gcc.h **** #endif
  46:Drivers/CMSIS/Include/cmsis_gcc.h **** #ifndef   __STATIC_INLINE
  47:Drivers/CMSIS/Include/cmsis_gcc.h ****   #define __STATIC_INLINE                        static inline
  48:Drivers/CMSIS/Include/cmsis_gcc.h **** #endif
  49:Drivers/CMSIS/Include/cmsis_gcc.h **** #ifndef   __STATIC_FORCEINLINE                 
  50:Drivers/CMSIS/Include/cmsis_gcc.h ****   #define __STATIC_FORCEINLINE                   __attribute__((always_inline)) static inline
  51:Drivers/CMSIS/Include/cmsis_gcc.h **** #endif                                           
  52:Drivers/CMSIS/Include/cmsis_gcc.h **** #ifndef   __NO_RETURN
  53:Drivers/CMSIS/Include/cmsis_gcc.h ****   #define __NO_RETURN                            __attribute__((__noreturn__))
ARM GAS  C:\Users\einom\AppData\Local\Temp\ccNh7ZuO.s 			page 17


  54:Drivers/CMSIS/Include/cmsis_gcc.h **** #endif
  55:Drivers/CMSIS/Include/cmsis_gcc.h **** #ifndef   __USED
  56:Drivers/CMSIS/Include/cmsis_gcc.h ****   #define __USED                                 __attribute__((used))
  57:Drivers/CMSIS/Include/cmsis_gcc.h **** #endif
  58:Drivers/CMSIS/Include/cmsis_gcc.h **** #ifndef   __WEAK
  59:Drivers/CMSIS/Include/cmsis_gcc.h ****   #define __WEAK                                 __attribute__((weak))
  60:Drivers/CMSIS/Include/cmsis_gcc.h **** #endif
  61:Drivers/CMSIS/Include/cmsis_gcc.h **** #ifndef   __PACKED
  62:Drivers/CMSIS/Include/cmsis_gcc.h ****   #define __PACKED                               __attribute__((packed, aligned(1)))
  63:Drivers/CMSIS/Include/cmsis_gcc.h **** #endif
  64:Drivers/CMSIS/Include/cmsis_gcc.h **** #ifndef   __PACKED_STRUCT
  65:Drivers/CMSIS/Include/cmsis_gcc.h ****   #define __PACKED_STRUCT                        struct __attribute__((packed, aligned(1)))
  66:Drivers/CMSIS/Include/cmsis_gcc.h **** #endif
  67:Drivers/CMSIS/Include/cmsis_gcc.h **** #ifndef   __PACKED_UNION
  68:Drivers/CMSIS/Include/cmsis_gcc.h ****   #define __PACKED_UNION                         union __attribute__((packed, aligned(1)))
  69:Drivers/CMSIS/Include/cmsis_gcc.h **** #endif
  70:Drivers/CMSIS/Include/cmsis_gcc.h **** #ifndef   __UNALIGNED_UINT32        /* deprecated */
  71:Drivers/CMSIS/Include/cmsis_gcc.h ****   #pragma GCC diagnostic push
  72:Drivers/CMSIS/Include/cmsis_gcc.h ****   #pragma GCC diagnostic ignored "-Wpacked"
  73:Drivers/CMSIS/Include/cmsis_gcc.h ****   #pragma GCC diagnostic ignored "-Wattributes"
  74:Drivers/CMSIS/Include/cmsis_gcc.h ****   struct __attribute__((packed)) T_UINT32 { uint32_t v; };
  75:Drivers/CMSIS/Include/cmsis_gcc.h ****   #pragma GCC diagnostic pop
  76:Drivers/CMSIS/Include/cmsis_gcc.h ****   #define __UNALIGNED_UINT32(x)                  (((struct T_UINT32 *)(x))->v)
  77:Drivers/CMSIS/Include/cmsis_gcc.h **** #endif
  78:Drivers/CMSIS/Include/cmsis_gcc.h **** #ifndef   __UNALIGNED_UINT16_WRITE
  79:Drivers/CMSIS/Include/cmsis_gcc.h ****   #pragma GCC diagnostic push
  80:Drivers/CMSIS/Include/cmsis_gcc.h ****   #pragma GCC diagnostic ignored "-Wpacked"
  81:Drivers/CMSIS/Include/cmsis_gcc.h ****   #pragma GCC diagnostic ignored "-Wattributes"
  82:Drivers/CMSIS/Include/cmsis_gcc.h ****   __PACKED_STRUCT T_UINT16_WRITE { uint16_t v; };
  83:Drivers/CMSIS/Include/cmsis_gcc.h ****   #pragma GCC diagnostic pop
  84:Drivers/CMSIS/Include/cmsis_gcc.h ****   #define __UNALIGNED_UINT16_WRITE(addr, val)    (void)((((struct T_UINT16_WRITE *)(void *)(addr))-
  85:Drivers/CMSIS/Include/cmsis_gcc.h **** #endif
  86:Drivers/CMSIS/Include/cmsis_gcc.h **** #ifndef   __UNALIGNED_UINT16_READ
  87:Drivers/CMSIS/Include/cmsis_gcc.h ****   #pragma GCC diagnostic push
  88:Drivers/CMSIS/Include/cmsis_gcc.h ****   #pragma GCC diagnostic ignored "-Wpacked"
  89:Drivers/CMSIS/Include/cmsis_gcc.h ****   #pragma GCC diagnostic ignored "-Wattributes"
  90:Drivers/CMSIS/Include/cmsis_gcc.h ****   __PACKED_STRUCT T_UINT16_READ { uint16_t v; };
  91:Drivers/CMSIS/Include/cmsis_gcc.h ****   #pragma GCC diagnostic pop
  92:Drivers/CMSIS/Include/cmsis_gcc.h ****   #define __UNALIGNED_UINT16_READ(addr)          (((const struct T_UINT16_READ *)(const void *)(add
  93:Drivers/CMSIS/Include/cmsis_gcc.h **** #endif
  94:Drivers/CMSIS/Include/cmsis_gcc.h **** #ifndef   __UNALIGNED_UINT32_WRITE
  95:Drivers/CMSIS/Include/cmsis_gcc.h ****   #pragma GCC diagnostic push
  96:Drivers/CMSIS/Include/cmsis_gcc.h ****   #pragma GCC diagnostic ignored "-Wpacked"
  97:Drivers/CMSIS/Include/cmsis_gcc.h ****   #pragma GCC diagnostic ignored "-Wattributes"
  98:Drivers/CMSIS/Include/cmsis_gcc.h ****   __PACKED_STRUCT T_UINT32_WRITE { uint32_t v; };
  99:Drivers/CMSIS/Include/cmsis_gcc.h ****   #pragma GCC diagnostic pop
 100:Drivers/CMSIS/Include/cmsis_gcc.h ****   #define __UNALIGNED_UINT32_WRITE(addr, val)    (void)((((struct T_UINT32_WRITE *)(void *)(addr))-
 101:Drivers/CMSIS/Include/cmsis_gcc.h **** #endif
 102:Drivers/CMSIS/Include/cmsis_gcc.h **** #ifndef   __UNALIGNED_UINT32_READ
 103:Drivers/CMSIS/Include/cmsis_gcc.h ****   #pragma GCC diagnostic push
 104:Drivers/CMSIS/Include/cmsis_gcc.h ****   #pragma GCC diagnostic ignored "-Wpacked"
 105:Drivers/CMSIS/Include/cmsis_gcc.h ****   #pragma GCC diagnostic ignored "-Wattributes"
 106:Drivers/CMSIS/Include/cmsis_gcc.h ****   __PACKED_STRUCT T_UINT32_READ { uint32_t v; };
 107:Drivers/CMSIS/Include/cmsis_gcc.h ****   #pragma GCC diagnostic pop
 108:Drivers/CMSIS/Include/cmsis_gcc.h ****   #define __UNALIGNED_UINT32_READ(addr)          (((const struct T_UINT32_READ *)(const void *)(add
 109:Drivers/CMSIS/Include/cmsis_gcc.h **** #endif
 110:Drivers/CMSIS/Include/cmsis_gcc.h **** #ifndef   __ALIGNED
ARM GAS  C:\Users\einom\AppData\Local\Temp\ccNh7ZuO.s 			page 18


 111:Drivers/CMSIS/Include/cmsis_gcc.h ****   #define __ALIGNED(x)                           __attribute__((aligned(x)))
 112:Drivers/CMSIS/Include/cmsis_gcc.h **** #endif
 113:Drivers/CMSIS/Include/cmsis_gcc.h **** #ifndef   __RESTRICT
 114:Drivers/CMSIS/Include/cmsis_gcc.h ****   #define __RESTRICT                             __restrict
 115:Drivers/CMSIS/Include/cmsis_gcc.h **** #endif
 116:Drivers/CMSIS/Include/cmsis_gcc.h **** 
 117:Drivers/CMSIS/Include/cmsis_gcc.h **** 
 118:Drivers/CMSIS/Include/cmsis_gcc.h **** /* ###########################  Core Function Access  ########################### */
 119:Drivers/CMSIS/Include/cmsis_gcc.h **** /** \ingroup  CMSIS_Core_FunctionInterface
 120:Drivers/CMSIS/Include/cmsis_gcc.h ****     \defgroup CMSIS_Core_RegAccFunctions CMSIS Core Register Access Functions
 121:Drivers/CMSIS/Include/cmsis_gcc.h ****   @{
 122:Drivers/CMSIS/Include/cmsis_gcc.h ****  */
 123:Drivers/CMSIS/Include/cmsis_gcc.h **** 
 124:Drivers/CMSIS/Include/cmsis_gcc.h **** /**
 125:Drivers/CMSIS/Include/cmsis_gcc.h ****   \brief   Enable IRQ Interrupts
 126:Drivers/CMSIS/Include/cmsis_gcc.h ****   \details Enables IRQ interrupts by clearing the I-bit in the CPSR.
 127:Drivers/CMSIS/Include/cmsis_gcc.h ****            Can only be executed in Privileged modes.
 128:Drivers/CMSIS/Include/cmsis_gcc.h ****  */
 129:Drivers/CMSIS/Include/cmsis_gcc.h **** __STATIC_FORCEINLINE void __enable_irq(void)
 130:Drivers/CMSIS/Include/cmsis_gcc.h **** {
 131:Drivers/CMSIS/Include/cmsis_gcc.h ****   __ASM volatile ("cpsie i" : : : "memory");
 132:Drivers/CMSIS/Include/cmsis_gcc.h **** }
 133:Drivers/CMSIS/Include/cmsis_gcc.h **** 
 134:Drivers/CMSIS/Include/cmsis_gcc.h **** 
 135:Drivers/CMSIS/Include/cmsis_gcc.h **** /**
 136:Drivers/CMSIS/Include/cmsis_gcc.h ****   \brief   Disable IRQ Interrupts
 137:Drivers/CMSIS/Include/cmsis_gcc.h ****   \details Disables IRQ interrupts by setting the I-bit in the CPSR.
 138:Drivers/CMSIS/Include/cmsis_gcc.h ****            Can only be executed in Privileged modes.
 139:Drivers/CMSIS/Include/cmsis_gcc.h ****  */
 140:Drivers/CMSIS/Include/cmsis_gcc.h **** __STATIC_FORCEINLINE void __disable_irq(void)
 515              		.loc 2 140 27 view .LVU106
 516              	.LBB17:
 141:Drivers/CMSIS/Include/cmsis_gcc.h **** {
 142:Drivers/CMSIS/Include/cmsis_gcc.h ****   __ASM volatile ("cpsid i" : : : "memory");
 517              		.loc 2 142 3 view .LVU107
 518              		.syntax divided
 519              	@ 142 "Drivers/CMSIS/Include/cmsis_gcc.h" 1
 520 0000 72B6     		cpsid i
 521              	@ 0 "" 2
 522              		.thumb
 523              		.syntax unified
 524              	.L20:
 525              	.LBE17:
 526              	.LBE16:
 281:Core/Src/main.c ****   while (1)
 527              		.loc 1 281 3 view .LVU108
 282:Core/Src/main.c ****   {
 283:Core/Src/main.c ****   }
 528              		.loc 1 283 3 view .LVU109
 281:Core/Src/main.c ****   while (1)
 529              		.loc 1 281 9 view .LVU110
 530 0002 FEE7     		b	.L20
 531              		.cfi_endproc
 532              	.LFE45:
 534              		.section	.text.SystemClock_Config,"ax",%progbits
 535              		.align	1
 536              		.global	SystemClock_Config
ARM GAS  C:\Users\einom\AppData\Local\Temp\ccNh7ZuO.s 			page 19


 537              		.syntax unified
 538              		.code	16
 539              		.thumb_func
 541              	SystemClock_Config:
 542              	.LFB41:
 169:Core/Src/main.c ****   RCC_OscInitTypeDef RCC_OscInitStruct = {0};
 543              		.loc 1 169 1 view -0
 544              		.cfi_startproc
 545              		@ args = 0, pretend = 0, frame = 64
 546              		@ frame_needed = 0, uses_anonymous_args = 0
 547 0000 00B5     		push	{lr}
 548              	.LCFI6:
 549              		.cfi_def_cfa_offset 4
 550              		.cfi_offset 14, -4
 551 0002 91B0     		sub	sp, sp, #68
 552              	.LCFI7:
 553              		.cfi_def_cfa_offset 72
 170:Core/Src/main.c ****   RCC_ClkInitTypeDef RCC_ClkInitStruct = {0};
 554              		.loc 1 170 3 view .LVU112
 170:Core/Src/main.c ****   RCC_ClkInitTypeDef RCC_ClkInitStruct = {0};
 555              		.loc 1 170 22 is_stmt 0 view .LVU113
 556 0004 3022     		movs	r2, #48
 557 0006 0021     		movs	r1, #0
 558 0008 04A8     		add	r0, sp, #16
 559 000a FFF7FEFF 		bl	memset
 560              	.LVL47:
 171:Core/Src/main.c **** 
 561              		.loc 1 171 3 is_stmt 1 view .LVU114
 171:Core/Src/main.c **** 
 562              		.loc 1 171 22 is_stmt 0 view .LVU115
 563 000e 1022     		movs	r2, #16
 564 0010 0021     		movs	r1, #0
 565 0012 6846     		mov	r0, sp
 566 0014 FFF7FEFF 		bl	memset
 567              	.LVL48:
 176:Core/Src/main.c ****   RCC_OscInitStruct.HSIState = RCC_HSI_ON;
 568              		.loc 1 176 3 is_stmt 1 view .LVU116
 176:Core/Src/main.c ****   RCC_OscInitStruct.HSIState = RCC_HSI_ON;
 569              		.loc 1 176 36 is_stmt 0 view .LVU117
 570 0018 0223     		movs	r3, #2
 571 001a 0493     		str	r3, [sp, #16]
 177:Core/Src/main.c ****   RCC_OscInitStruct.HSICalibrationValue = RCC_HSICALIBRATION_DEFAULT;
 572              		.loc 1 177 3 is_stmt 1 view .LVU118
 177:Core/Src/main.c ****   RCC_OscInitStruct.HSICalibrationValue = RCC_HSICALIBRATION_DEFAULT;
 573              		.loc 1 177 30 is_stmt 0 view .LVU119
 574 001c 0122     		movs	r2, #1
 575 001e 0792     		str	r2, [sp, #28]
 178:Core/Src/main.c ****   RCC_OscInitStruct.PLL.PLLState = RCC_PLL_ON;
 576              		.loc 1 178 3 is_stmt 1 view .LVU120
 178:Core/Src/main.c ****   RCC_OscInitStruct.PLL.PLLState = RCC_PLL_ON;
 577              		.loc 1 178 41 is_stmt 0 view .LVU121
 578 0020 0F32     		adds	r2, r2, #15
 579 0022 0892     		str	r2, [sp, #32]
 179:Core/Src/main.c ****   RCC_OscInitStruct.PLL.PLLSource = RCC_PLLSOURCE_HSI;
 580              		.loc 1 179 3 is_stmt 1 view .LVU122
 179:Core/Src/main.c ****   RCC_OscInitStruct.PLL.PLLSource = RCC_PLLSOURCE_HSI;
 581              		.loc 1 179 34 is_stmt 0 view .LVU123
ARM GAS  C:\Users\einom\AppData\Local\Temp\ccNh7ZuO.s 			page 20


 582 0024 0C93     		str	r3, [sp, #48]
 180:Core/Src/main.c ****   RCC_OscInitStruct.PLL.PLLMUL = RCC_PLL_MUL12;
 583              		.loc 1 180 3 is_stmt 1 view .LVU124
 181:Core/Src/main.c ****   RCC_OscInitStruct.PLL.PREDIV = RCC_PREDIV_DIV1;
 584              		.loc 1 181 3 view .LVU125
 181:Core/Src/main.c ****   RCC_OscInitStruct.PLL.PREDIV = RCC_PREDIV_DIV1;
 585              		.loc 1 181 32 is_stmt 0 view .LVU126
 586 0026 A023     		movs	r3, #160
 587 0028 9B03     		lsls	r3, r3, #14
 588 002a 0E93     		str	r3, [sp, #56]
 182:Core/Src/main.c ****   if (HAL_RCC_OscConfig(&RCC_OscInitStruct) != HAL_OK)
 589              		.loc 1 182 3 is_stmt 1 view .LVU127
 183:Core/Src/main.c ****   {
 590              		.loc 1 183 3 view .LVU128
 183:Core/Src/main.c ****   {
 591              		.loc 1 183 7 is_stmt 0 view .LVU129
 592 002c 04A8     		add	r0, sp, #16
 593 002e FFF7FEFF 		bl	HAL_RCC_OscConfig
 594              	.LVL49:
 183:Core/Src/main.c ****   {
 595              		.loc 1 183 6 discriminator 1 view .LVU130
 596 0032 0028     		cmp	r0, #0
 597 0034 0ED1     		bne	.L24
 190:Core/Src/main.c ****                               |RCC_CLOCKTYPE_PCLK1;
 598              		.loc 1 190 3 is_stmt 1 view .LVU131
 190:Core/Src/main.c ****                               |RCC_CLOCKTYPE_PCLK1;
 599              		.loc 1 190 31 is_stmt 0 view .LVU132
 600 0036 0723     		movs	r3, #7
 601 0038 0093     		str	r3, [sp]
 192:Core/Src/main.c ****   RCC_ClkInitStruct.AHBCLKDivider = RCC_SYSCLK_DIV1;
 602              		.loc 1 192 3 is_stmt 1 view .LVU133
 192:Core/Src/main.c ****   RCC_ClkInitStruct.AHBCLKDivider = RCC_SYSCLK_DIV1;
 603              		.loc 1 192 34 is_stmt 0 view .LVU134
 604 003a 053B     		subs	r3, r3, #5
 605 003c 0193     		str	r3, [sp, #4]
 193:Core/Src/main.c ****   RCC_ClkInitStruct.APB1CLKDivider = RCC_HCLK_DIV1;
 606              		.loc 1 193 3 is_stmt 1 view .LVU135
 193:Core/Src/main.c ****   RCC_ClkInitStruct.APB1CLKDivider = RCC_HCLK_DIV1;
 607              		.loc 1 193 35 is_stmt 0 view .LVU136
 608 003e 0023     		movs	r3, #0
 609 0040 0293     		str	r3, [sp, #8]
 194:Core/Src/main.c **** 
 610              		.loc 1 194 3 is_stmt 1 view .LVU137
 194:Core/Src/main.c **** 
 611              		.loc 1 194 36 is_stmt 0 view .LVU138
 612 0042 0393     		str	r3, [sp, #12]
 196:Core/Src/main.c ****   {
 613              		.loc 1 196 3 is_stmt 1 view .LVU139
 196:Core/Src/main.c ****   {
 614              		.loc 1 196 7 is_stmt 0 view .LVU140
 615 0044 0121     		movs	r1, #1
 616 0046 6846     		mov	r0, sp
 617 0048 FFF7FEFF 		bl	HAL_RCC_ClockConfig
 618              	.LVL50:
 196:Core/Src/main.c ****   {
 619              		.loc 1 196 6 discriminator 1 view .LVU141
 620 004c 0028     		cmp	r0, #0
ARM GAS  C:\Users\einom\AppData\Local\Temp\ccNh7ZuO.s 			page 21


 621 004e 03D1     		bne	.L25
 200:Core/Src/main.c **** 
 622              		.loc 1 200 1 view .LVU142
 623 0050 11B0     		add	sp, sp, #68
 624              		@ sp needed
 625 0052 00BD     		pop	{pc}
 626              	.L24:
 185:Core/Src/main.c ****   }
 627              		.loc 1 185 5 is_stmt 1 view .LVU143
 628 0054 FFF7FEFF 		bl	Error_Handler
 629              	.LVL51:
 630              	.L25:
 198:Core/Src/main.c ****   }
 631              		.loc 1 198 5 view .LVU144
 632 0058 FFF7FEFF 		bl	Error_Handler
 633              	.LVL52:
 634              		.cfi_endproc
 635              	.LFE41:
 637              		.section	.text.main,"ax",%progbits
 638              		.align	1
 639              		.global	main
 640              		.syntax unified
 641              		.code	16
 642              		.thumb_func
 644              	main:
 645              	.LFB40:
  86:Core/Src/main.c **** 
 646              		.loc 1 86 1 view -0
 647              		.cfi_startproc
 648              		@ args = 0, pretend = 0, frame = 16
 649              		@ frame_needed = 0, uses_anonymous_args = 0
 650 0000 F0B5     		push	{r4, r5, r6, r7, lr}
 651              	.LCFI8:
 652              		.cfi_def_cfa_offset 20
 653              		.cfi_offset 4, -20
 654              		.cfi_offset 5, -16
 655              		.cfi_offset 6, -12
 656              		.cfi_offset 7, -8
 657              		.cfi_offset 14, -4
 658 0002 DE46     		mov	lr, fp
 659 0004 5746     		mov	r7, r10
 660 0006 4E46     		mov	r6, r9
 661 0008 C0B5     		push	{r6, r7, lr}
 662              	.LCFI9:
 663              		.cfi_def_cfa_offset 32
 664              		.cfi_offset 9, -32
 665              		.cfi_offset 10, -28
 666              		.cfi_offset 11, -24
 667 000a 84B0     		sub	sp, sp, #16
 668              	.LCFI10:
 669              		.cfi_def_cfa_offset 48
  95:Core/Src/main.c **** 
 670              		.loc 1 95 3 view .LVU146
 671 000c FFF7FEFF 		bl	HAL_Init
 672              	.LVL53:
 102:Core/Src/main.c **** 
 673              		.loc 1 102 3 view .LVU147
ARM GAS  C:\Users\einom\AppData\Local\Temp\ccNh7ZuO.s 			page 22


 674 0010 FFF7FEFF 		bl	SystemClock_Config
 675              	.LVL54:
 109:Core/Src/main.c ****   /* USER CODE BEGIN 2 */
 676              		.loc 1 109 3 view .LVU148
 677 0014 FFF7FEFF 		bl	MX_GPIO_Init
 678              	.LVL55:
 679 0018 65E0     		b	.L29
 680              	.LVL56:
 681              	.L28:
 682              	.LBB18:
 683              	.LBB19:
 127:Core/Src/main.c ****         uint16_t h = kHeights[size_index];
 684              		.loc 1 127 9 view .LVU149
 127:Core/Src/main.c ****         uint16_t h = kHeights[size_index];
 685              		.loc 1 127 18 is_stmt 0 view .LVU150
 686 001a 364B     		ldr	r3, .L30
 687 001c 7A00     		lsls	r2, r7, #1
 688 001e D65A     		ldrh	r6, [r2, r3]
 689              	.LVL57:
 128:Core/Src/main.c ****         g_current_width = (uint32_t)w;
 690              		.loc 1 128 9 is_stmt 1 view .LVU151
 128:Core/Src/main.c ****         g_current_width = (uint32_t)w;
 691              		.loc 1 128 18 is_stmt 0 view .LVU152
 692 0020 354B     		ldr	r3, .L30+4
 693 0022 D35A     		ldrh	r3, [r2, r3]
 694 0024 9A46     		mov	r10, r3
 695              	.LVL58:
 129:Core/Src/main.c ****         g_current_height = (uint32_t)h;
 696              		.loc 1 129 9 is_stmt 1 view .LVU153
 129:Core/Src/main.c ****         g_current_height = (uint32_t)h;
 697              		.loc 1 129 25 is_stmt 0 view .LVU154
 698 0026 354B     		ldr	r3, .L30+8
 699 0028 1E60     		str	r6, [r3]
 130:Core/Src/main.c **** 
 700              		.loc 1 130 9 is_stmt 1 view .LVU155
 130:Core/Src/main.c **** 
 701              		.loc 1 130 26 is_stmt 0 view .LVU156
 702 002a 354B     		ldr	r3, .L30+12
 703 002c 5246     		mov	r2, r10
 704 002e 1A60     		str	r2, [r3]
 132:Core/Src/main.c ****         uint32_t result_checksum = generate_mandelbrot_checksum(w, h, kMaxIter);
 705              		.loc 1 132 9 is_stmt 1 view .LVU157
 132:Core/Src/main.c ****         uint32_t result_checksum = generate_mandelbrot_checksum(w, h, kMaxIter);
 706              		.loc 1 132 29 is_stmt 0 view .LVU158
 707 0030 FFF7FEFF 		bl	HAL_GetTick
 708              	.LVL59:
 709 0034 0400     		movs	r4, r0
 710              	.LVL60:
 133:Core/Src/main.c ****         uint32_t end_ms = HAL_GetTick();
 711              		.loc 1 133 9 is_stmt 1 view .LVU159
 133:Core/Src/main.c ****         uint32_t end_ms = HAL_GetTick();
 712              		.loc 1 133 36 is_stmt 0 view .LVU160
 713 0036 6422     		movs	r2, #100
 714 0038 5146     		mov	r1, r10
 715 003a 3000     		movs	r0, r6
 716              	.LVL61:
 133:Core/Src/main.c ****         uint32_t end_ms = HAL_GetTick();
ARM GAS  C:\Users\einom\AppData\Local\Temp\ccNh7ZuO.s 			page 23


 717              		.loc 1 133 36 view .LVU161
 718 003c FFF7FEFF 		bl	generate_mandelbrot_checksum
 719              	.LVL62:
 720 0040 8146     		mov	r9, r0
 721              	.LVL63:
 134:Core/Src/main.c ****         uint32_t elapsed_ms = end_ms - start_ms;
 722              		.loc 1 134 9 is_stmt 1 view .LVU162
 134:Core/Src/main.c ****         uint32_t elapsed_ms = end_ms - start_ms;
 723              		.loc 1 134 27 is_stmt 0 view .LVU163
 724 0042 FFF7FEFF 		bl	HAL_GetTick
 725              	.LVL64:
 135:Core/Src/main.c ****         
 726              		.loc 1 135 9 is_stmt 1 view .LVU164
 135:Core/Src/main.c ****         
 727              		.loc 1 135 18 is_stmt 0 view .LVU165
 728 0046 041B     		subs	r4, r0, r4
 729              	.LVL65:
 138:Core/Src/main.c ****         double elapsed_seconds = (double)elapsed_ms / 1000.0;
 730              		.loc 1 138 9 is_stmt 1 view .LVU166
 138:Core/Src/main.c ****         double elapsed_seconds = (double)elapsed_ms / 1000.0;
 731              		.loc 1 138 37 is_stmt 0 view .LVU167
 732 0048 2000     		movs	r0, r4
 733              	.LVL66:
 138:Core/Src/main.c ****         double elapsed_seconds = (double)elapsed_ms / 1000.0;
 734              		.loc 1 138 37 view .LVU168
 735 004a FFF7FEFF 		bl	estimate_cpu_cycles_from_ms
 736              	.LVL67:
 737 004e 8346     		mov	fp, r0
 738              	.LVL68:
 139:Core/Src/main.c ****         double total_pixels = (double)w * (double)h;
 739              		.loc 1 139 9 is_stmt 1 view .LVU169
 139:Core/Src/main.c ****         double total_pixels = (double)w * (double)h;
 740              		.loc 1 139 34 is_stmt 0 view .LVU170
 741 0050 2000     		movs	r0, r4
 742              	.LVL69:
 139:Core/Src/main.c ****         double total_pixels = (double)w * (double)h;
 743              		.loc 1 139 34 view .LVU171
 744 0052 FFF7FEFF 		bl	__aeabi_ui2d
 745              	.LVL70:
 746 0056 0400     		movs	r4, r0
 747              	.LVL71:
 139:Core/Src/main.c ****         double total_pixels = (double)w * (double)h;
 748              		.loc 1 139 34 view .LVU172
 749 0058 0D00     		movs	r5, r1
 139:Core/Src/main.c ****         double total_pixels = (double)w * (double)h;
 750              		.loc 1 139 16 view .LVU173
 751 005a 0022     		movs	r2, #0
 752 005c 294B     		ldr	r3, .L30+16
 753 005e FFF7FEFF 		bl	__aeabi_ddiv
 754              	.LVL72:
 755 0062 0290     		str	r0, [sp, #8]
 756 0064 0391     		str	r1, [sp, #12]
 757              	.LVL73:
 140:Core/Src/main.c ****         double throughput = total_pixels / elapsed_seconds;
 758              		.loc 1 140 9 is_stmt 1 view .LVU174
 140:Core/Src/main.c ****         double throughput = total_pixels / elapsed_seconds;
 759              		.loc 1 140 31 is_stmt 0 view .LVU175
ARM GAS  C:\Users\einom\AppData\Local\Temp\ccNh7ZuO.s 			page 24


 760 0066 3000     		movs	r0, r6
 761              	.LVL74:
 140:Core/Src/main.c ****         double throughput = total_pixels / elapsed_seconds;
 762              		.loc 1 140 31 view .LVU176
 763 0068 FFF7FEFF 		bl	__aeabi_ui2d
 764              	.LVL75:
 765 006c 0090     		str	r0, [sp]
 766 006e 0191     		str	r1, [sp, #4]
 140:Core/Src/main.c ****         double throughput = total_pixels / elapsed_seconds;
 767              		.loc 1 140 43 view .LVU177
 768 0070 5046     		mov	r0, r10
 769 0072 FFF7FEFF 		bl	__aeabi_ui2d
 770              	.LVL76:
 771 0076 0200     		movs	r2, r0
 772 0078 0B00     		movs	r3, r1
 140:Core/Src/main.c ****         double throughput = total_pixels / elapsed_seconds;
 773              		.loc 1 140 16 view .LVU178
 774 007a 0098     		ldr	r0, [sp]
 775 007c 0199     		ldr	r1, [sp, #4]
 776 007e FFF7FEFF 		bl	__aeabi_dmul
 777              	.LVL77:
 141:Core/Src/main.c **** 
 778              		.loc 1 141 9 is_stmt 1 view .LVU179
 141:Core/Src/main.c **** 
 779              		.loc 1 141 16 is_stmt 0 view .LVU180
 780 0082 029A     		ldr	r2, [sp, #8]
 781 0084 039B     		ldr	r3, [sp, #12]
 782 0086 FFF7FEFF 		bl	__aeabi_ddiv
 783              	.LVL78:
 144:Core/Src/main.c ****         g_current_checksum = result_checksum;
 784              		.loc 1 144 9 is_stmt 1 view .LVU181
 144:Core/Src/main.c ****         g_current_checksum = result_checksum;
 785              		.loc 1 144 26 is_stmt 0 view .LVU182
 786 008a 1F4B     		ldr	r3, .L30+20
 787 008c 5A46     		mov	r2, fp
 788 008e 1A60     		str	r2, [r3]
 145:Core/Src/main.c ****         g_current_execution_time = (double)elapsed_ms;
 789              		.loc 1 145 9 is_stmt 1 view .LVU183
 145:Core/Src/main.c ****         g_current_execution_time = (double)elapsed_ms;
 790              		.loc 1 145 28 is_stmt 0 view .LVU184
 791 0090 1E4B     		ldr	r3, .L30+24
 792 0092 4A46     		mov	r2, r9
 793 0094 1A60     		str	r2, [r3]
 146:Core/Src/main.c ****         g_current_throughput = throughput;
 794              		.loc 1 146 9 is_stmt 1 view .LVU185
 146:Core/Src/main.c ****         g_current_throughput = throughput;
 795              		.loc 1 146 34 is_stmt 0 view .LVU186
 796 0096 1E4B     		ldr	r3, .L30+28
 797 0098 1C60     		str	r4, [r3]
 798 009a 5D60     		str	r5, [r3, #4]
 147:Core/Src/main.c **** 
 799              		.loc 1 147 9 is_stmt 1 view .LVU187
 147:Core/Src/main.c **** 
 800              		.loc 1 147 30 is_stmt 0 view .LVU188
 801 009c 1D4B     		ldr	r3, .L30+32
 802 009e 1860     		str	r0, [r3]
 803 00a0 5960     		str	r1, [r3, #4]
ARM GAS  C:\Users\einom\AppData\Local\Temp\ccNh7ZuO.s 			page 25


 150:Core/Src/main.c ****         execution_time_ms[size_index] = (double)elapsed_ms;
 804              		.loc 1 150 9 is_stmt 1 view .LVU189
 150:Core/Src/main.c ****         execution_time_ms[size_index] = (double)elapsed_ms;
 805              		.loc 1 150 30 is_stmt 0 view .LVU190
 806 00a2 1D4B     		ldr	r3, .L30+36
 807 00a4 BA00     		lsls	r2, r7, #2
 808 00a6 4E46     		mov	r6, r9
 809              	.LVL79:
 150:Core/Src/main.c ****         execution_time_ms[size_index] = (double)elapsed_ms;
 810              		.loc 1 150 30 view .LVU191
 811 00a8 D650     		str	r6, [r2, r3]
 151:Core/Src/main.c ****         cpu_cycles[size_index] = estimated_cycles;
 812              		.loc 1 151 9 is_stmt 1 view .LVU192
 151:Core/Src/main.c ****         cpu_cycles[size_index] = estimated_cycles;
 813              		.loc 1 151 39 is_stmt 0 view .LVU193
 814 00aa 1C4B     		ldr	r3, .L30+40
 815 00ac FE00     		lsls	r6, r7, #3
 816 00ae 9B19     		adds	r3, r3, r6
 817 00b0 1C60     		str	r4, [r3]
 818 00b2 5D60     		str	r5, [r3, #4]
 152:Core/Src/main.c ****         throughput_pps[size_index] = throughput;
 819              		.loc 1 152 9 is_stmt 1 view .LVU194
 152:Core/Src/main.c ****         throughput_pps[size_index] = throughput;
 820              		.loc 1 152 32 is_stmt 0 view .LVU195
 821 00b4 1A4B     		ldr	r3, .L30+44
 822 00b6 5C46     		mov	r4, fp
 823 00b8 D450     		str	r4, [r2, r3]
 153:Core/Src/main.c ****       }
 824              		.loc 1 153 9 is_stmt 1 view .LVU196
 153:Core/Src/main.c ****       }
 825              		.loc 1 153 36 is_stmt 0 view .LVU197
 826 00ba 1A4B     		ldr	r3, .L30+48
 827 00bc 9B19     		adds	r3, r3, r6
 828 00be 1860     		str	r0, [r3]
 829 00c0 5960     		str	r1, [r3, #4]
 830              	.LBE19:
 125:Core/Src/main.c ****       {
 831              		.loc 1 125 67 is_stmt 1 discriminator 3 view .LVU198
 832 00c2 0137     		adds	r7, r7, #1
 833              	.LVL80:
 834              	.L27:
 125:Core/Src/main.c ****       {
 835              		.loc 1 125 48 discriminator 1 view .LVU199
 836 00c4 042F     		cmp	r7, #4
 837 00c6 A8D9     		bls	.L28
 838              	.LBE18:
 157:Core/Src/main.c ****       HAL_Delay(2000);
 839              		.loc 1 157 7 view .LVU200
 840 00c8 174C     		ldr	r4, .L30+52
 841 00ca 0122     		movs	r2, #1
 842 00cc 0221     		movs	r1, #2
 843 00ce 2000     		movs	r0, r4
 844 00d0 FFF7FEFF 		bl	HAL_GPIO_WritePin
 845              	.LVL81:
 158:Core/Src/main.c ****       HAL_GPIO_WritePin(GPIOB, GPIO_PIN_0 | GPIO_PIN_1, GPIO_PIN_RESET);
 846              		.loc 1 158 7 view .LVU201
 847 00d4 FA20     		movs	r0, #250
ARM GAS  C:\Users\einom\AppData\Local\Temp\ccNh7ZuO.s 			page 26


 848 00d6 C000     		lsls	r0, r0, #3
 849 00d8 FFF7FEFF 		bl	HAL_Delay
 850              	.LVL82:
 159:Core/Src/main.c ****   }
 851              		.loc 1 159 7 view .LVU202
 852 00dc 0022     		movs	r2, #0
 853 00de 0321     		movs	r1, #3
 854 00e0 2000     		movs	r0, r4
 855 00e2 FFF7FEFF 		bl	HAL_GPIO_WritePin
 856              	.LVL83:
 116:Core/Src/main.c ****   {
 857              		.loc 1 116 9 view .LVU203
 858              	.L29:
 116:Core/Src/main.c ****   {
 859              		.loc 1 116 3 view .LVU204
 122:Core/Src/main.c **** 
 860              		.loc 1 122 7 view .LVU205
 861 00e6 0122     		movs	r2, #1
 862 00e8 0121     		movs	r1, #1
 863 00ea 0F48     		ldr	r0, .L30+52
 864 00ec FFF7FEFF 		bl	HAL_GPIO_WritePin
 865              	.LVL84:
 125:Core/Src/main.c ****       {
 866              		.loc 1 125 7 view .LVU206
 867              	.LBB20:
 125:Core/Src/main.c ****       {
 868              		.loc 1 125 12 view .LVU207
 125:Core/Src/main.c ****       {
 869              		.loc 1 125 21 is_stmt 0 view .LVU208
 870 00f0 0027     		movs	r7, #0
 125:Core/Src/main.c ****       {
 871              		.loc 1 125 7 view .LVU209
 872 00f2 E7E7     		b	.L27
 873              	.L31:
 874              		.align	2
 875              	.L30:
 876 00f4 00000000 		.word	kWidths
 877 00f8 00000000 		.word	kHeights
 878 00fc 00000000 		.word	g_current_width
 879 0100 00000000 		.word	g_current_height
 880 0104 00408F40 		.word	1083129856
 881 0108 00000000 		.word	g_current_cycles
 882 010c 00000000 		.word	g_current_checksum
 883 0110 00000000 		.word	g_current_execution_time
 884 0114 00000000 		.word	g_current_throughput
 885 0118 00000000 		.word	checksum
 886 011c 00000000 		.word	execution_time_ms
 887 0120 00000000 		.word	cpu_cycles
 888 0124 00000000 		.word	throughput_pps
 889 0128 00040048 		.word	1207960576
 890              	.LBE20:
 891              		.cfi_endproc
 892              	.LFE40:
 894              		.global	throughput_pps
 895              		.section	.bss.throughput_pps,"aw",%nobits
 896              		.align	3
 899              	throughput_pps:
ARM GAS  C:\Users\einom\AppData\Local\Temp\ccNh7ZuO.s 			page 27


 900 0000 00000000 		.space	40
 900      00000000 
 900      00000000 
 900      00000000 
 900      00000000 
 901              		.global	cpu_cycles
 902              		.section	.bss.cpu_cycles,"aw",%nobits
 903              		.align	2
 906              	cpu_cycles:
 907 0000 00000000 		.space	20
 907      00000000 
 907      00000000 
 907      00000000 
 907      00000000 
 908              		.global	execution_time_ms
 909              		.section	.bss.execution_time_ms,"aw",%nobits
 910              		.align	3
 913              	execution_time_ms:
 914 0000 00000000 		.space	40
 914      00000000 
 914      00000000 
 914      00000000 
 914      00000000 
 915              		.global	checksum
 916              		.section	.bss.checksum,"aw",%nobits
 917              		.align	2
 920              	checksum:
 921 0000 00000000 		.space	20
 921      00000000 
 921      00000000 
 921      00000000 
 921      00000000 
 922              		.global	g_current_throughput
 923              		.section	.bss.g_current_throughput,"aw",%nobits
 924              		.align	3
 927              	g_current_throughput:
 928 0000 00000000 		.space	8
 928      00000000 
 929              		.global	g_current_execution_time
 930              		.section	.bss.g_current_execution_time,"aw",%nobits
 931              		.align	3
 934              	g_current_execution_time:
 935 0000 00000000 		.space	8
 935      00000000 
 936              		.global	g_current_checksum
 937              		.section	.bss.g_current_checksum,"aw",%nobits
 938              		.align	2
 941              	g_current_checksum:
 942 0000 00000000 		.space	4
 943              		.global	g_current_cycles
 944              		.section	.bss.g_current_cycles,"aw",%nobits
 945              		.align	2
 948              	g_current_cycles:
 949 0000 00000000 		.space	4
 950              		.global	g_current_height
 951              		.section	.bss.g_current_height,"aw",%nobits
 952              		.align	2
ARM GAS  C:\Users\einom\AppData\Local\Temp\ccNh7ZuO.s 			page 28


 955              	g_current_height:
 956 0000 00000000 		.space	4
 957              		.global	g_current_width
 958              		.section	.bss.g_current_width,"aw",%nobits
 959              		.align	2
 962              	g_current_width:
 963 0000 00000000 		.space	4
 964              		.section	.rodata.kHeights,"a"
 965              		.align	2
 968              	kHeights:
 969 0000 8000     		.short	128
 970 0002 A000     		.short	160
 971 0004 C000     		.short	192
 972 0006 E000     		.short	224
 973 0008 0001     		.short	256
 974              		.section	.rodata.kWidths,"a"
 975              		.align	2
 978              	kWidths:
 979 0000 8000     		.short	128
 980 0002 A000     		.short	160
 981 0004 C000     		.short	192
 982 0006 E000     		.short	224
 983 0008 0001     		.short	256
 984              		.text
 985              	.Letext0:
 986              		.file 3 "C:\\ST\\STM32CubeIDE_1.19.0\\STM32CubeIDE\\plugins\\com.st.stm32cube.ide.mcu.externaltool
 987              		.file 4 "C:\\ST\\STM32CubeIDE_1.19.0\\STM32CubeIDE\\plugins\\com.st.stm32cube.ide.mcu.externaltool
 988              		.file 5 "Drivers/CMSIS/Device/ST/STM32F0xx/Include/stm32f051x8.h"
 989              		.file 6 "Drivers/STM32F0xx_HAL_Driver/Inc/stm32f0xx_hal_def.h"
 990              		.file 7 "Drivers/STM32F0xx_HAL_Driver/Inc/stm32f0xx_hal_rcc.h"
 991              		.file 8 "Drivers/STM32F0xx_HAL_Driver/Inc/stm32f0xx_hal_gpio.h"
 992              		.file 9 "Drivers/CMSIS/Device/ST/STM32F0xx/Include/system_stm32f0xx.h"
 993              		.file 10 "Drivers/STM32F0xx_HAL_Driver/Inc/stm32f0xx_hal.h"
 994              		.file 11 "<built-in>"
ARM GAS  C:\Users\einom\AppData\Local\Temp\ccNh7ZuO.s 			page 29


DEFINED SYMBOLS
                            *ABS*:00000000 main.c
C:\Users\einom\AppData\Local\Temp\ccNh7ZuO.s:25     .text.generate_mandelbrot_checksum:00000000 $t
C:\Users\einom\AppData\Local\Temp\ccNh7ZuO.s:30     .text.generate_mandelbrot_checksum:00000000 generate_mandelbrot_checksum
C:\Users\einom\AppData\Local\Temp\ccNh7ZuO.s:326    .text.generate_mandelbrot_checksum:00000144 $d
C:\Users\einom\AppData\Local\Temp\ccNh7ZuO.s:335    .text.estimate_cpu_cycles_from_ms:00000000 $t
C:\Users\einom\AppData\Local\Temp\ccNh7ZuO.s:340    .text.estimate_cpu_cycles_from_ms:00000000 estimate_cpu_cycles_from_ms
C:\Users\einom\AppData\Local\Temp\ccNh7ZuO.s:374    .text.estimate_cpu_cycles_from_ms:00000014 $d
C:\Users\einom\AppData\Local\Temp\ccNh7ZuO.s:379    .text.MX_GPIO_Init:00000000 $t
C:\Users\einom\AppData\Local\Temp\ccNh7ZuO.s:384    .text.MX_GPIO_Init:00000000 MX_GPIO_Init
C:\Users\einom\AppData\Local\Temp\ccNh7ZuO.s:491    .text.MX_GPIO_Init:0000006c $d
C:\Users\einom\AppData\Local\Temp\ccNh7ZuO.s:497    .text.Error_Handler:00000000 $t
C:\Users\einom\AppData\Local\Temp\ccNh7ZuO.s:503    .text.Error_Handler:00000000 Error_Handler
C:\Users\einom\AppData\Local\Temp\ccNh7ZuO.s:535    .text.SystemClock_Config:00000000 $t
C:\Users\einom\AppData\Local\Temp\ccNh7ZuO.s:541    .text.SystemClock_Config:00000000 SystemClock_Config
C:\Users\einom\AppData\Local\Temp\ccNh7ZuO.s:638    .text.main:00000000 $t
C:\Users\einom\AppData\Local\Temp\ccNh7ZuO.s:644    .text.main:00000000 main
C:\Users\einom\AppData\Local\Temp\ccNh7ZuO.s:876    .text.main:000000f4 $d
C:\Users\einom\AppData\Local\Temp\ccNh7ZuO.s:978    .rodata.kWidths:00000000 kWidths
C:\Users\einom\AppData\Local\Temp\ccNh7ZuO.s:968    .rodata.kHeights:00000000 kHeights
C:\Users\einom\AppData\Local\Temp\ccNh7ZuO.s:962    .bss.g_current_width:00000000 g_current_width
C:\Users\einom\AppData\Local\Temp\ccNh7ZuO.s:955    .bss.g_current_height:00000000 g_current_height
C:\Users\einom\AppData\Local\Temp\ccNh7ZuO.s:948    .bss.g_current_cycles:00000000 g_current_cycles
C:\Users\einom\AppData\Local\Temp\ccNh7ZuO.s:941    .bss.g_current_checksum:00000000 g_current_checksum
C:\Users\einom\AppData\Local\Temp\ccNh7ZuO.s:934    .bss.g_current_execution_time:00000000 g_current_execution_time
C:\Users\einom\AppData\Local\Temp\ccNh7ZuO.s:927    .bss.g_current_throughput:00000000 g_current_throughput
C:\Users\einom\AppData\Local\Temp\ccNh7ZuO.s:920    .bss.checksum:00000000 checksum
C:\Users\einom\AppData\Local\Temp\ccNh7ZuO.s:913    .bss.execution_time_ms:00000000 execution_time_ms
C:\Users\einom\AppData\Local\Temp\ccNh7ZuO.s:906    .bss.cpu_cycles:00000000 cpu_cycles
C:\Users\einom\AppData\Local\Temp\ccNh7ZuO.s:899    .bss.throughput_pps:00000000 throughput_pps
C:\Users\einom\AppData\Local\Temp\ccNh7ZuO.s:896    .bss.throughput_pps:00000000 $d
C:\Users\einom\AppData\Local\Temp\ccNh7ZuO.s:903    .bss.cpu_cycles:00000000 $d
C:\Users\einom\AppData\Local\Temp\ccNh7ZuO.s:910    .bss.execution_time_ms:00000000 $d
C:\Users\einom\AppData\Local\Temp\ccNh7ZuO.s:917    .bss.checksum:00000000 $d
C:\Users\einom\AppData\Local\Temp\ccNh7ZuO.s:924    .bss.g_current_throughput:00000000 $d
C:\Users\einom\AppData\Local\Temp\ccNh7ZuO.s:931    .bss.g_current_execution_time:00000000 $d
C:\Users\einom\AppData\Local\Temp\ccNh7ZuO.s:938    .bss.g_current_checksum:00000000 $d
C:\Users\einom\AppData\Local\Temp\ccNh7ZuO.s:945    .bss.g_current_cycles:00000000 $d
C:\Users\einom\AppData\Local\Temp\ccNh7ZuO.s:952    .bss.g_current_height:00000000 $d
C:\Users\einom\AppData\Local\Temp\ccNh7ZuO.s:959    .bss.g_current_width:00000000 $d
C:\Users\einom\AppData\Local\Temp\ccNh7ZuO.s:965    .rodata.kHeights:00000000 $d
C:\Users\einom\AppData\Local\Temp\ccNh7ZuO.s:975    .rodata.kWidths:00000000 $d

UNDEFINED SYMBOLS
__aeabi_ui2d
__aeabi_ddiv
__aeabi_dadd
__aeabi_dsub
__aeabi_dmul
__aeabi_dcmple
__aeabi_uidiv
SystemCoreClock
memset
HAL_GPIO_WritePin
HAL_GPIO_Init
HAL_RCC_OscConfig
HAL_RCC_ClockConfig
ARM GAS  C:\Users\einom\AppData\Local\Temp\ccNh7ZuO.s 			page 30


HAL_Init
HAL_GetTick
HAL_Delay
