ARM GAS  C:\Users\einom\AppData\Local\Temp\cchSnBA5.s 			page 1


   1              		.cpu cortex-m0
   2              		.arch armv6s-m
   3              		.fpu softvfp
   4              		.eabi_attribute 20, 1
   5              		.eabi_attribute 21, 1
   6              		.eabi_attribute 23, 3
   7              		.eabi_attribute 24, 1
   8              		.eabi_attribute 25, 1
   9              		.eabi_attribute 26, 1
  10              		.eabi_attribute 30, 2
  11              		.eabi_attribute 34, 0
  12              		.eabi_attribute 18, 4
  13              		.file	"main.c"
  14              		.text
  15              	.Ltext0:
  16              		.cfi_sections	.debug_frame
  17              		.file 1 "Core/Src/main.c"
  18              		.section	.text.SystemClock_Config,"ax",%progbits
  19              		.align	1
  20              		.p2align 2,,3
  21              		.global	SystemClock_Config
  22              		.syntax unified
  23              		.code	16
  24              		.thumb_func
  26              	SystemClock_Config:
  27              	.LFB41:
   1:Core/Src/main.c **** /* USER CODE BEGIN Header */
   2:Core/Src/main.c **** /**
   3:Core/Src/main.c ****   ******************************************************************************
   4:Core/Src/main.c ****   * @file           : main.c
   5:Core/Src/main.c ****   * @brief          : Main program body
   6:Core/Src/main.c ****   ******************************************************************************
   7:Core/Src/main.c ****   * @attention
   8:Core/Src/main.c ****   *
   9:Core/Src/main.c ****   * Copyright (c) 2025 STMicroelectronics.
  10:Core/Src/main.c ****   * All rights reserved.
  11:Core/Src/main.c ****   *
  12:Core/Src/main.c ****   * This software is licensed under terms that can be found in the LICENSE file
  13:Core/Src/main.c ****   * in the root directory of this software component.
  14:Core/Src/main.c ****   * If no LICENSE file comes with this software, it is provided AS-IS.
  15:Core/Src/main.c ****   *
  16:Core/Src/main.c ****   ******************************************************************************
  17:Core/Src/main.c ****   */
  18:Core/Src/main.c **** /* USER CODE END Header */
  19:Core/Src/main.c **** /* Includes ------------------------------------------------------------------*/
  20:Core/Src/main.c **** #include "main.h"
  21:Core/Src/main.c **** 
  22:Core/Src/main.c **** /* Private includes ----------------------------------------------------------*/
  23:Core/Src/main.c **** /* USER CODE BEGIN Includes */
  24:Core/Src/main.c **** 
  25:Core/Src/main.c **** /* USER CODE END Includes */
  26:Core/Src/main.c **** 
  27:Core/Src/main.c **** /* Task 6: Global variables for Live Expressions - Must be declared here for debugger access */
  28:Core/Src/main.c **** uint32_t g_total_program_cycles = 0u;
  29:Core/Src/main.c **** double g_total_program_time_ms = 0.0;
  30:Core/Src/main.c **** double g_total_time_sum = 0.0;
  31:Core/Src/main.c **** uint32_t g_test_counter = 0u;
ARM GAS  C:\Users\einom\AppData\Local\Temp\cchSnBA5.s 			page 2


  32:Core/Src/main.c **** uint32_t g_simple_test = 0u;  /* Simple test variable */
  33:Core/Src/main.c **** 
  34:Core/Src/main.c **** /* Private typedef -----------------------------------------------------------*/
  35:Core/Src/main.c **** /* USER CODE BEGIN PTD */
  36:Core/Src/main.c **** 
  37:Core/Src/main.c **** /* USER CODE END PTD */
  38:Core/Src/main.c **** 
  39:Core/Src/main.c **** /* Private define ------------------------------------------------------------*/
  40:Core/Src/main.c **** /* USER CODE BEGIN PD */
  41:Core/Src/main.c **** 
  42:Core/Src/main.c **** /* USER CODE END PD */
  43:Core/Src/main.c **** 
  44:Core/Src/main.c **** /* Private macro -------------------------------------------------------------*/
  45:Core/Src/main.c **** /* USER CODE BEGIN PM */
  46:Core/Src/main.c **** 
  47:Core/Src/main.c **** /* USER CODE END PM */
  48:Core/Src/main.c **** 
  49:Core/Src/main.c **** /* Private variables ---------------------------------------------------------*/
  50:Core/Src/main.c **** 
  51:Core/Src/main.c **** /* USER CODE BEGIN PV */
  52:Core/Src/main.c **** /* Task 6: Compiler Optimization Analysis - Practical 1B sizes */
  53:Core/Src/main.c **** static const uint32_t kMaxIter = 100u;
  54:Core/Src/main.c **** static const uint32_t kNumResolutions = 5;
  55:Core/Src/main.c **** static const uint16_t kWidths[5]  = {128, 160, 192, 224, 256};  /* Practical 1B sizes */
  56:Core/Src/main.c **** static const uint16_t kHeights[5] = {128, 160, 192, 224, 256};
  57:Core/Src/main.c **** 
  58:Core/Src/main.c **** /* Memory management for large images */
  59:Core/Src/main.c **** #define MAX_TILE_SIZE 128  /* Smaller tile size for F0 due to limited SRAM */
  60:Core/Src/main.c **** #define TILE_OVERLAP 0     /* No overlap needed for Mandelbrot calculation */
  61:Core/Src/main.c **** 
  62:Core/Src/main.c **** /* Live Expressions: current benchmark metrics */
  63:Core/Src/main.c **** volatile uint32_t g_current_width = 0u;
  64:Core/Src/main.c **** volatile uint32_t g_current_height = 0u;
  65:Core/Src/main.c **** volatile uint32_t g_current_cycles = 0u;
  66:Core/Src/main.c **** volatile uint32_t g_current_checksum = 0u;
  67:Core/Src/main.c **** volatile double g_current_execution_time = 0.0;
  68:Core/Src/main.c **** volatile double g_current_throughput = 0.0;
  69:Core/Src/main.c **** 
  70:Core/Src/main.c **** /* Live Expressions: per-size results */
  71:Core/Src/main.c **** volatile uint32_t checksum[5] = {0u, 0u, 0u, 0u, 0u};
  72:Core/Src/main.c **** volatile double execution_time_ms[5] = {0.0, 0.0, 0.0, 0.0, 0.0};
  73:Core/Src/main.c **** volatile uint32_t cpu_cycles[5] = {0u, 0u, 0u, 0u, 0u};
  74:Core/Src/main.c **** volatile double throughput_pps[5] = {0.0, 0.0, 0.0, 0.0, 0.0};
  75:Core/Src/main.c **** 
  76:Core/Src/main.c **** /* Task 4: Tiling information */
  77:Core/Src/main.c **** volatile uint32_t g_num_tiles_x = 0u;
  78:Core/Src/main.c **** volatile uint32_t g_num_tiles_y = 0u;
  79:Core/Src/main.c **** volatile uint32_t g_total_tiles = 0u;
  80:Core/Src/main.c **** volatile uint32_t g_current_tile = 0u;
  81:Core/Src/main.c **** 
  82:Core/Src/main.c **** /* USER CODE END PV */
  83:Core/Src/main.c **** 
  84:Core/Src/main.c **** /* Private function prototypes -----------------------------------------------*/
  85:Core/Src/main.c **** void SystemClock_Config(void);
  86:Core/Src/main.c **** static void MX_GPIO_Init(void);
  87:Core/Src/main.c **** /* USER CODE BEGIN PFP */
  88:Core/Src/main.c **** static uint32_t generate_mandelbrot_checksum(uint16_t width, uint16_t height, uint32_t max_iter);
ARM GAS  C:\Users\einom\AppData\Local\Temp\cchSnBA5.s 			page 3


  89:Core/Src/main.c **** static uint32_t generate_mandelbrot_checksum_tiled(uint16_t width, uint16_t height, uint32_t max_it
  90:Core/Src/main.c **** static uint32_t estimate_cpu_cycles_from_ms(uint32_t elapsed_ms);
  91:Core/Src/main.c **** static void log_tiling_info(uint16_t width, uint16_t height, uint32_t tiles_x, uint32_t tiles_y);
  92:Core/Src/main.c **** 
  93:Core/Src/main.c **** /* USER CODE END PFP */
  94:Core/Src/main.c **** 
  95:Core/Src/main.c **** /* Private user code ---------------------------------------------------------*/
  96:Core/Src/main.c **** /* USER CODE BEGIN 0 */
  97:Core/Src/main.c **** 
  98:Core/Src/main.c **** /* USER CODE END 0 */
  99:Core/Src/main.c **** 
 100:Core/Src/main.c **** /**
 101:Core/Src/main.c ****   * @brief  The application entry point.
 102:Core/Src/main.c ****   * @retval int
 103:Core/Src/main.c ****   */
 104:Core/Src/main.c **** int main(void)
 105:Core/Src/main.c **** {
 106:Core/Src/main.c **** 
 107:Core/Src/main.c ****   /* USER CODE BEGIN 1 */
 108:Core/Src/main.c **** 
 109:Core/Src/main.c ****   /* USER CODE END 1 */
 110:Core/Src/main.c **** 
 111:Core/Src/main.c ****   /* MCU Configuration--------------------------------------------------------*/
 112:Core/Src/main.c **** 
 113:Core/Src/main.c ****   /* Reset of all peripherals, Initializes the Flash interface and the Systick. */
 114:Core/Src/main.c ****   HAL_Init();
 115:Core/Src/main.c **** 
 116:Core/Src/main.c ****   /* USER CODE BEGIN Init */
 117:Core/Src/main.c **** 
 118:Core/Src/main.c ****   /* USER CODE END Init */
 119:Core/Src/main.c **** 
 120:Core/Src/main.c ****   /* Configure the system clock */
 121:Core/Src/main.c ****   SystemClock_Config();
 122:Core/Src/main.c **** 
 123:Core/Src/main.c ****   /* USER CODE BEGIN SysInit */
 124:Core/Src/main.c **** 
 125:Core/Src/main.c ****   /* USER CODE END SysInit */
 126:Core/Src/main.c **** 
 127:Core/Src/main.c ****   /* Initialize all configured peripherals */
 128:Core/Src/main.c ****   MX_GPIO_Init();
 129:Core/Src/main.c ****   /* USER CODE BEGIN 2 */
 130:Core/Src/main.c ****   
 131:Core/Src/main.c ****   /* Initialize Task 6 timing variables */
 132:Core/Src/main.c ****   g_total_program_cycles = 0u;
 133:Core/Src/main.c ****   g_total_program_time_ms = 0.0;
 134:Core/Src/main.c ****   g_total_time_sum = 0.0;
 135:Core/Src/main.c ****   g_test_counter = 0u;
 136:Core/Src/main.c **** 
 137:Core/Src/main.c ****   /* USER CODE END 2 */
 138:Core/Src/main.c **** 
 139:Core/Src/main.c ****   /* Infinite loop */
 140:Core/Src/main.c ****   /* USER CODE BEGIN WHILE */
 141:Core/Src/main.c ****   while (1)
 142:Core/Src/main.c ****   {
 143:Core/Src/main.c ****     /* USER CODE END WHILE */
 144:Core/Src/main.c **** 
 145:Core/Src/main.c ****     /* USER CODE BEGIN 3 */
ARM GAS  C:\Users\einom\AppData\Local\Temp\cchSnBA5.s 			page 4


 146:Core/Src/main.c ****       /* Increment test counters to verify Live Expressions work */
 147:Core/Src/main.c ****       g_test_counter++;
 148:Core/Src/main.c ****       g_simple_test++;
 149:Core/Src/main.c ****       
 150:Core/Src/main.c ****       /* Start total program timing */
 151:Core/Src/main.c ****       uint32_t program_start_ms = HAL_GetTick();
 152:Core/Src/main.c ****       
 153:Core/Src/main.c ****       /* Visual indicator: LED0 ON */
 154:Core/Src/main.c ****       HAL_GPIO_WritePin(GPIOB, GPIO_PIN_0, GPIO_PIN_SET);
 155:Core/Src/main.c **** 
 156:Core/Src/main.c ****       /* Task 4: Scalability test up to Full HD with tiling for large images */
 157:Core/Src/main.c ****       for (uint32_t size_index = 0; size_index < kNumResolutions; ++size_index)
 158:Core/Src/main.c ****       {
 159:Core/Src/main.c ****         uint16_t w = kWidths[size_index];
 160:Core/Src/main.c ****         uint16_t h = kHeights[size_index];
 161:Core/Src/main.c ****         g_current_width = (uint32_t)w;
 162:Core/Src/main.c ****         g_current_height = (uint32_t)h;
 163:Core/Src/main.c **** 
 164:Core/Src/main.c ****         uint32_t start_ms = HAL_GetTick();
 165:Core/Src/main.c ****         
 166:Core/Src/main.c ****         /* Use tiled approach for large images that exceed memory constraints */
 167:Core/Src/main.c ****         uint32_t result_checksum;
 168:Core/Src/main.c ****         if (w > MAX_TILE_SIZE || h > MAX_TILE_SIZE) {
 169:Core/Src/main.c ****           result_checksum = generate_mandelbrot_checksum_tiled(w, h, kMaxIter);
 170:Core/Src/main.c ****         } else {
 171:Core/Src/main.c ****           result_checksum = generate_mandelbrot_checksum(w, h, kMaxIter);
 172:Core/Src/main.c ****         }
 173:Core/Src/main.c ****         
 174:Core/Src/main.c ****         uint32_t end_ms = HAL_GetTick();
 175:Core/Src/main.c ****         uint32_t elapsed_ms = end_ms - start_ms;
 176:Core/Src/main.c ****         
 177:Core/Src/main.c ****         /* Estimate CPU cycles from elapsed time (F0 doesn't have DWT) */
 178:Core/Src/main.c ****         uint32_t estimated_cycles = estimate_cpu_cycles_from_ms(elapsed_ms);
 179:Core/Src/main.c ****         double elapsed_seconds = (double)elapsed_ms / 1000.0;
 180:Core/Src/main.c ****         double total_pixels = (double)w * (double)h;
 181:Core/Src/main.c ****         double throughput = total_pixels / elapsed_seconds;
 182:Core/Src/main.c **** 
 183:Core/Src/main.c ****         /* Update Live Expressions */
 184:Core/Src/main.c ****         g_current_cycles = estimated_cycles;
 185:Core/Src/main.c ****         g_current_checksum = result_checksum;
 186:Core/Src/main.c ****         g_current_execution_time = (double)elapsed_ms;
 187:Core/Src/main.c ****         g_current_throughput = throughput;
 188:Core/Src/main.c **** 
 189:Core/Src/main.c ****         /* Store results */
 190:Core/Src/main.c ****         checksum[size_index] = result_checksum;
 191:Core/Src/main.c ****         execution_time_ms[size_index] = (double)elapsed_ms;
 192:Core/Src/main.c ****         cpu_cycles[size_index] = estimated_cycles;
 193:Core/Src/main.c ****         throughput_pps[size_index] = throughput;
 194:Core/Src/main.c ****       }
 195:Core/Src/main.c **** 
 196:Core/Src/main.c ****       /* End total program timing */
 197:Core/Src/main.c ****       uint32_t program_end_ms = HAL_GetTick();
 198:Core/Src/main.c ****       uint32_t total_elapsed_ms = program_end_ms - program_start_ms;
 199:Core/Src/main.c ****       g_total_program_time_ms = (double)total_elapsed_ms;
 200:Core/Src/main.c ****       
 201:Core/Src/main.c ****       /* Calculate total time sum from individual tests */
 202:Core/Src/main.c ****       g_total_time_sum = 0.0;
ARM GAS  C:\Users\einom\AppData\Local\Temp\cchSnBA5.s 			page 5


 203:Core/Src/main.c ****       for (uint32_t i = 0; i < kNumResolutions; ++i) {
 204:Core/Src/main.c ****         g_total_time_sum += execution_time_ms[i];
 205:Core/Src/main.c ****       }
 206:Core/Src/main.c ****       
 207:Core/Src/main.c ****       /* Debug: Store raw values for debugging */
 208:Core/Src/main.c ****       g_total_program_cycles = total_elapsed_ms;  /* Store raw ms value for debugging */
 209:Core/Src/main.c **** 
 210:Core/Src/main.c ****       /* Visual indicator: LED1 ON, keep ON 2s, then turn both OFF */
 211:Core/Src/main.c ****       HAL_GPIO_WritePin(GPIOB, GPIO_PIN_1, GPIO_PIN_SET);
 212:Core/Src/main.c ****       HAL_Delay(2000);
 213:Core/Src/main.c ****       HAL_GPIO_WritePin(GPIOB, GPIO_PIN_0 | GPIO_PIN_1, GPIO_PIN_RESET);
 214:Core/Src/main.c ****   }
 215:Core/Src/main.c ****   /* USER CODE END 3 */
 216:Core/Src/main.c **** }
 217:Core/Src/main.c **** 
 218:Core/Src/main.c **** /**
 219:Core/Src/main.c ****   * @brief System Clock Configuration
 220:Core/Src/main.c ****   * @retval None
 221:Core/Src/main.c ****   */
 222:Core/Src/main.c **** void SystemClock_Config(void)
 223:Core/Src/main.c **** {
  28              		.loc 1 223 1 view -0
  29              		.cfi_startproc
  30              		@ args = 0, pretend = 0, frame = 64
  31              		@ frame_needed = 0, uses_anonymous_args = 0
 224:Core/Src/main.c ****   RCC_OscInitTypeDef RCC_OscInitStruct = {0};
  32              		.loc 1 224 3 view .LVU1
 223:Core/Src/main.c ****   RCC_OscInitTypeDef RCC_OscInitStruct = {0};
  33              		.loc 1 223 1 is_stmt 0 view .LVU2
  34 0000 00B5     		push	{lr}
  35              	.LCFI0:
  36              		.cfi_def_cfa_offset 4
  37              		.cfi_offset 14, -4
  38 0002 91B0     		sub	sp, sp, #68
  39              	.LCFI1:
  40              		.cfi_def_cfa_offset 72
  41              		.loc 1 224 22 view .LVU3
  42 0004 2C22     		movs	r2, #44
  43 0006 0021     		movs	r1, #0
  44 0008 05A8     		add	r0, sp, #20
  45 000a FFF7FEFF 		bl	memset
  46              	.LVL0:
 225:Core/Src/main.c ****   RCC_ClkInitTypeDef RCC_ClkInitStruct = {0};
  47              		.loc 1 225 3 is_stmt 1 view .LVU4
  48              		.loc 1 225 22 is_stmt 0 view .LVU5
  49 000e 1022     		movs	r2, #16
  50 0010 0021     		movs	r1, #0
  51 0012 6846     		mov	r0, sp
  52 0014 FFF7FEFF 		bl	memset
  53              	.LVL1:
 226:Core/Src/main.c **** 
 227:Core/Src/main.c ****   /** Initializes the RCC Oscillators according to the specified parameters
 228:Core/Src/main.c ****   * in the RCC_OscInitTypeDef structure.
 229:Core/Src/main.c ****   */
 230:Core/Src/main.c ****   RCC_OscInitStruct.OscillatorType = RCC_OSCILLATORTYPE_HSI;
  54              		.loc 1 230 3 is_stmt 1 view .LVU6
  55              		.loc 1 230 36 is_stmt 0 view .LVU7
ARM GAS  C:\Users\einom\AppData\Local\Temp\cchSnBA5.s 			page 6


  56 0018 0223     		movs	r3, #2
 231:Core/Src/main.c ****   RCC_OscInitStruct.HSIState = RCC_HSI_ON;
  57              		.loc 1 231 30 view .LVU8
  58 001a 0122     		movs	r2, #1
 230:Core/Src/main.c ****   RCC_OscInitStruct.HSIState = RCC_HSI_ON;
  59              		.loc 1 230 36 view .LVU9
  60 001c 0493     		str	r3, [sp, #16]
  61              		.loc 1 231 3 is_stmt 1 view .LVU10
 232:Core/Src/main.c ****   RCC_OscInitStruct.HSICalibrationValue = RCC_HSICALIBRATION_DEFAULT;
 233:Core/Src/main.c ****   RCC_OscInitStruct.PLL.PLLState = RCC_PLL_ON;
  62              		.loc 1 233 34 is_stmt 0 view .LVU11
  63 001e 0C93     		str	r3, [sp, #48]
 234:Core/Src/main.c ****   RCC_OscInitStruct.PLL.PLLSource = RCC_PLLSOURCE_HSI;
 235:Core/Src/main.c ****   RCC_OscInitStruct.PLL.PLLMUL = RCC_PLL_MUL12;
  64              		.loc 1 235 32 view .LVU12
  65 0020 A023     		movs	r3, #160
 231:Core/Src/main.c ****   RCC_OscInitStruct.HSICalibrationValue = RCC_HSICALIBRATION_DEFAULT;
  66              		.loc 1 231 30 view .LVU13
  67 0022 0792     		str	r2, [sp, #28]
 232:Core/Src/main.c ****   RCC_OscInitStruct.HSICalibrationValue = RCC_HSICALIBRATION_DEFAULT;
  68              		.loc 1 232 3 is_stmt 1 view .LVU14
  69              		.loc 1 235 32 is_stmt 0 view .LVU15
  70 0024 9B03     		lsls	r3, r3, #14
 232:Core/Src/main.c ****   RCC_OscInitStruct.HSICalibrationValue = RCC_HSICALIBRATION_DEFAULT;
  71              		.loc 1 232 41 view .LVU16
  72 0026 0F32     		adds	r2, r2, #15
 236:Core/Src/main.c ****   RCC_OscInitStruct.PLL.PREDIV = RCC_PREDIV_DIV1;
 237:Core/Src/main.c ****   if (HAL_RCC_OscConfig(&RCC_OscInitStruct) != HAL_OK)
  73              		.loc 1 237 7 view .LVU17
  74 0028 04A8     		add	r0, sp, #16
 232:Core/Src/main.c ****   RCC_OscInitStruct.PLL.PLLState = RCC_PLL_ON;
  75              		.loc 1 232 41 view .LVU18
  76 002a 0892     		str	r2, [sp, #32]
 233:Core/Src/main.c ****   RCC_OscInitStruct.PLL.PLLSource = RCC_PLLSOURCE_HSI;
  77              		.loc 1 233 3 is_stmt 1 view .LVU19
 234:Core/Src/main.c ****   RCC_OscInitStruct.PLL.PLLMUL = RCC_PLL_MUL12;
  78              		.loc 1 234 3 view .LVU20
 235:Core/Src/main.c ****   RCC_OscInitStruct.PLL.PREDIV = RCC_PREDIV_DIV1;
  79              		.loc 1 235 3 view .LVU21
 235:Core/Src/main.c ****   RCC_OscInitStruct.PLL.PREDIV = RCC_PREDIV_DIV1;
  80              		.loc 1 235 32 is_stmt 0 view .LVU22
  81 002c 0E93     		str	r3, [sp, #56]
 236:Core/Src/main.c ****   if (HAL_RCC_OscConfig(&RCC_OscInitStruct) != HAL_OK)
  82              		.loc 1 236 3 is_stmt 1 view .LVU23
  83              		.loc 1 237 3 view .LVU24
  84              		.loc 1 237 7 is_stmt 0 view .LVU25
  85 002e FFF7FEFF 		bl	HAL_RCC_OscConfig
  86              	.LVL2:
  87              		.loc 1 237 6 discriminator 1 view .LVU26
  88 0032 0028     		cmp	r0, #0
  89 0034 01D0     		beq	.L2
 238:Core/Src/main.c ****   {
 239:Core/Src/main.c ****     Error_Handler();
  90              		.loc 1 239 5 is_stmt 1 view .LVU27
  91              	.LBB28:
  92              	.LBI28:
 240:Core/Src/main.c ****   }
ARM GAS  C:\Users\einom\AppData\Local\Temp\cchSnBA5.s 			page 7


 241:Core/Src/main.c **** 
 242:Core/Src/main.c ****   /** Initializes the CPU, AHB and APB buses clocks
 243:Core/Src/main.c ****   */
 244:Core/Src/main.c ****   RCC_ClkInitStruct.ClockType = RCC_CLOCKTYPE_HCLK|RCC_CLOCKTYPE_SYSCLK
 245:Core/Src/main.c ****                               |RCC_CLOCKTYPE_PCLK1;
 246:Core/Src/main.c ****   RCC_ClkInitStruct.SYSCLKSource = RCC_SYSCLKSOURCE_PLLCLK;
 247:Core/Src/main.c ****   RCC_ClkInitStruct.AHBCLKDivider = RCC_SYSCLK_DIV1;
 248:Core/Src/main.c ****   RCC_ClkInitStruct.APB1CLKDivider = RCC_HCLK_DIV1;
 249:Core/Src/main.c **** 
 250:Core/Src/main.c ****   if (HAL_RCC_ClockConfig(&RCC_ClkInitStruct, FLASH_LATENCY_1) != HAL_OK)
 251:Core/Src/main.c ****   {
 252:Core/Src/main.c ****     Error_Handler();
 253:Core/Src/main.c ****   }
 254:Core/Src/main.c **** }
 255:Core/Src/main.c **** 
 256:Core/Src/main.c **** /**
 257:Core/Src/main.c ****   * @brief GPIO Initialization Function
 258:Core/Src/main.c ****   * @param None
 259:Core/Src/main.c ****   * @retval None
 260:Core/Src/main.c ****   */
 261:Core/Src/main.c **** static void MX_GPIO_Init(void)
 262:Core/Src/main.c **** {
 263:Core/Src/main.c ****   GPIO_InitTypeDef GPIO_InitStruct = {0};
 264:Core/Src/main.c ****   /* USER CODE BEGIN MX_GPIO_Init_1 */
 265:Core/Src/main.c **** 
 266:Core/Src/main.c ****   /* USER CODE END MX_GPIO_Init_1 */
 267:Core/Src/main.c **** 
 268:Core/Src/main.c ****   /* GPIO Ports Clock Enable */
 269:Core/Src/main.c ****   __HAL_RCC_GPIOF_CLK_ENABLE();
 270:Core/Src/main.c ****   __HAL_RCC_GPIOB_CLK_ENABLE();
 271:Core/Src/main.c ****   __HAL_RCC_GPIOA_CLK_ENABLE();
 272:Core/Src/main.c **** 
 273:Core/Src/main.c ****   /*Configure GPIO pin Output Level */
 274:Core/Src/main.c ****   HAL_GPIO_WritePin(GPIOB, GPIO_PIN_0|GPIO_PIN_1|GPIO_PIN_2|GPIO_PIN_3
 275:Core/Src/main.c ****                           |GPIO_PIN_4|GPIO_PIN_5|GPIO_PIN_6|GPIO_PIN_7, GPIO_PIN_RESET);
 276:Core/Src/main.c **** 
 277:Core/Src/main.c ****   /*Configure GPIO pins : PB0 PB1 PB2 PB3
 278:Core/Src/main.c ****                            PB4 PB5 PB6 PB7 */
 279:Core/Src/main.c ****   GPIO_InitStruct.Pin = GPIO_PIN_0|GPIO_PIN_1|GPIO_PIN_2|GPIO_PIN_3
 280:Core/Src/main.c ****                           |GPIO_PIN_4|GPIO_PIN_5|GPIO_PIN_6|GPIO_PIN_7;
 281:Core/Src/main.c ****   GPIO_InitStruct.Mode = GPIO_MODE_OUTPUT_PP;
 282:Core/Src/main.c ****   GPIO_InitStruct.Pull = GPIO_NOPULL;
 283:Core/Src/main.c ****   GPIO_InitStruct.Speed = GPIO_SPEED_FREQ_LOW;
 284:Core/Src/main.c ****   HAL_GPIO_Init(GPIOB, &GPIO_InitStruct);
 285:Core/Src/main.c **** 
 286:Core/Src/main.c ****   /* USER CODE BEGIN MX_GPIO_Init_2 */
 287:Core/Src/main.c **** 
 288:Core/Src/main.c ****   /* USER CODE END MX_GPIO_Init_2 */
 289:Core/Src/main.c **** }
 290:Core/Src/main.c **** 
 291:Core/Src/main.c **** /* USER CODE BEGIN 4 */
 292:Core/Src/main.c **** static uint32_t generate_mandelbrot_checksum(uint16_t width, uint16_t height, uint32_t max_iter)
 293:Core/Src/main.c **** {
 294:Core/Src/main.c ****   uint32_t mandelbrot_sum = 0u;
 295:Core/Src/main.c ****   for (uint16_t y = 0; y < height; ++y)
 296:Core/Src/main.c ****   {
 297:Core/Src/main.c ****     double y0 = ((double)y / (double)height) * 2.0 - 1.0;
ARM GAS  C:\Users\einom\AppData\Local\Temp\cchSnBA5.s 			page 8


 298:Core/Src/main.c ****     for (uint16_t x = 0; x < width; ++x)
 299:Core/Src/main.c ****     {
 300:Core/Src/main.c ****       double x0 = ((double)x / (double)width) * 3.5 - 2.5;
 301:Core/Src/main.c ****       double xi = 0.0;
 302:Core/Src/main.c ****       double yi = 0.0;
 303:Core/Src/main.c ****       uint32_t iteration = 0u;
 304:Core/Src/main.c ****       while (iteration < max_iter && (xi*xi + yi*yi) <= 4.0)
 305:Core/Src/main.c ****       {
 306:Core/Src/main.c ****         double tmp = xi*xi - yi*yi + x0;
 307:Core/Src/main.c ****         yi = 2.0*xi*yi + y0;
 308:Core/Src/main.c ****         xi = tmp;
 309:Core/Src/main.c ****         ++iteration;
 310:Core/Src/main.c ****       }
 311:Core/Src/main.c ****       mandelbrot_sum += iteration;
 312:Core/Src/main.c ****     }
 313:Core/Src/main.c ****   }
 314:Core/Src/main.c ****   return mandelbrot_sum;
 315:Core/Src/main.c **** }
 316:Core/Src/main.c **** 
 317:Core/Src/main.c **** static uint32_t generate_mandelbrot_checksum_tiled(uint16_t width, uint16_t height, uint32_t max_it
 318:Core/Src/main.c **** {
 319:Core/Src/main.c ****   uint32_t total_checksum = 0u;
 320:Core/Src/main.c ****   
 321:Core/Src/main.c ****   /* Calculate number of tiles needed */
 322:Core/Src/main.c ****   uint32_t tiles_x = (width + MAX_TILE_SIZE - 1) / MAX_TILE_SIZE;
 323:Core/Src/main.c ****   uint32_t tiles_y = (height + MAX_TILE_SIZE - 1) / MAX_TILE_SIZE;
 324:Core/Src/main.c ****   uint32_t total_tiles = tiles_x * tiles_y;
 325:Core/Src/main.c ****   
 326:Core/Src/main.c ****   /* Update Live Expressions with tiling info */
 327:Core/Src/main.c ****   g_num_tiles_x = tiles_x;
 328:Core/Src/main.c ****   g_num_tiles_y = tiles_y;
 329:Core/Src/main.c ****   g_total_tiles = total_tiles;
 330:Core/Src/main.c ****   
 331:Core/Src/main.c ****   log_tiling_info(width, height, tiles_x, tiles_y);
 332:Core/Src/main.c ****   
 333:Core/Src/main.c ****   /* Process each tile */
 334:Core/Src/main.c ****   for (uint32_t tile_y = 0; tile_y < tiles_y; ++tile_y)
 335:Core/Src/main.c ****   {
 336:Core/Src/main.c ****     for (uint32_t tile_x = 0; tile_x < tiles_x; ++tile_x)
 337:Core/Src/main.c ****     {
 338:Core/Src/main.c ****       g_current_tile = tile_y * tiles_x + tile_x + 1;
 339:Core/Src/main.c ****       
 340:Core/Src/main.c ****       /* Calculate tile boundaries */
 341:Core/Src/main.c ****       uint16_t start_x = tile_x * MAX_TILE_SIZE;
 342:Core/Src/main.c ****       uint16_t start_y = tile_y * MAX_TILE_SIZE;
 343:Core/Src/main.c ****       uint16_t end_x = (start_x + MAX_TILE_SIZE > width) ? width : start_x + MAX_TILE_SIZE;
 344:Core/Src/main.c ****       uint16_t end_y = (start_y + MAX_TILE_SIZE > height) ? height : start_y + MAX_TILE_SIZE;
 345:Core/Src/main.c ****       uint16_t tile_width = end_x - start_x;
 346:Core/Src/main.c ****       uint16_t tile_height = end_y - start_y;
 347:Core/Src/main.c ****       
 348:Core/Src/main.c ****       /* Process this tile */
 349:Core/Src/main.c ****       for (uint16_t y = 0; y < tile_height; ++y)
 350:Core/Src/main.c ****       {
 351:Core/Src/main.c ****         uint16_t global_y = start_y + y;
 352:Core/Src/main.c ****         double y0 = ((double)global_y / (double)height) * 2.0 - 1.0;
 353:Core/Src/main.c ****         for (uint16_t x = 0; x < tile_width; ++x)
 354:Core/Src/main.c ****         {
ARM GAS  C:\Users\einom\AppData\Local\Temp\cchSnBA5.s 			page 9


 355:Core/Src/main.c ****           uint16_t global_x = start_x + x;
 356:Core/Src/main.c ****           double x0 = ((double)global_x / (double)width) * 3.5 - 2.5;
 357:Core/Src/main.c ****           double xi = 0.0;
 358:Core/Src/main.c ****           double yi = 0.0;
 359:Core/Src/main.c ****           uint32_t iteration = 0u;
 360:Core/Src/main.c ****           while (iteration < max_iter && (xi*xi + yi*yi) <= 4.0)
 361:Core/Src/main.c ****           {
 362:Core/Src/main.c ****             double tmp = xi*xi - yi*yi + x0;
 363:Core/Src/main.c ****             yi = 2.0*xi*yi + y0;
 364:Core/Src/main.c ****             xi = tmp;
 365:Core/Src/main.c ****             ++iteration;
 366:Core/Src/main.c ****           }
 367:Core/Src/main.c ****           total_checksum += iteration;
 368:Core/Src/main.c ****         }
 369:Core/Src/main.c ****       }
 370:Core/Src/main.c ****     }
 371:Core/Src/main.c ****   }
 372:Core/Src/main.c ****   
 373:Core/Src/main.c ****   return total_checksum;
 374:Core/Src/main.c **** }
 375:Core/Src/main.c **** 
 376:Core/Src/main.c **** static void log_tiling_info(uint16_t width, uint16_t height, uint32_t tiles_x, uint32_t tiles_y)
 377:Core/Src/main.c **** {
 378:Core/Src/main.c ****   /* Note: F0 doesn't have printf capability, so this is a placeholder */
 379:Core/Src/main.c ****   /* In a real implementation, you might use SWO or UART for logging */
 380:Core/Src/main.c ****   (void)width; (void)height; (void)tiles_x; (void)tiles_y; /* Suppress unused warnings */
 381:Core/Src/main.c **** }
 382:Core/Src/main.c **** 
 383:Core/Src/main.c **** static uint32_t estimate_cpu_cycles_from_ms(uint32_t elapsed_ms)
 384:Core/Src/main.c **** {
 385:Core/Src/main.c ****   /* Estimate CPU cycles based on SystemCoreClock and elapsed milliseconds */
 386:Core/Src/main.c ****   /* This is an approximation since F0 doesn't have DWT cycle counter */
 387:Core/Src/main.c ****   return elapsed_ms * (SystemCoreClock / 1000u);
 388:Core/Src/main.c **** }
 389:Core/Src/main.c **** 
 390:Core/Src/main.c **** /* USER CODE END 4 */
 391:Core/Src/main.c **** 
 392:Core/Src/main.c **** /**
 393:Core/Src/main.c ****   * @brief  This function is executed in case of error occurrence.
 394:Core/Src/main.c ****   * @retval None
 395:Core/Src/main.c ****   */
 396:Core/Src/main.c **** void Error_Handler(void)
  93              		.loc 1 396 6 view .LVU28
 397:Core/Src/main.c **** {
 398:Core/Src/main.c ****   /* USER CODE BEGIN Error_Handler_Debug */
 399:Core/Src/main.c ****   /* User can add his own implementation to report the HAL error return state */
 400:Core/Src/main.c ****   __disable_irq();
  94              		.loc 1 400 3 view .LVU29
  95              	.LBB29:
  96              	.LBI29:
  97              		.file 2 "Drivers/CMSIS/Include/cmsis_gcc.h"
   1:Drivers/CMSIS/Include/cmsis_gcc.h **** /**************************************************************************//**
   2:Drivers/CMSIS/Include/cmsis_gcc.h ****  * @file     cmsis_gcc.h
   3:Drivers/CMSIS/Include/cmsis_gcc.h ****  * @brief    CMSIS compiler GCC header file
   4:Drivers/CMSIS/Include/cmsis_gcc.h ****  * @version  V5.0.4
   5:Drivers/CMSIS/Include/cmsis_gcc.h ****  * @date     09. April 2018
   6:Drivers/CMSIS/Include/cmsis_gcc.h ****  ******************************************************************************/
ARM GAS  C:\Users\einom\AppData\Local\Temp\cchSnBA5.s 			page 10


   7:Drivers/CMSIS/Include/cmsis_gcc.h **** /*
   8:Drivers/CMSIS/Include/cmsis_gcc.h ****  * Copyright (c) 2009-2018 Arm Limited. All rights reserved.
   9:Drivers/CMSIS/Include/cmsis_gcc.h ****  *
  10:Drivers/CMSIS/Include/cmsis_gcc.h ****  * SPDX-License-Identifier: Apache-2.0
  11:Drivers/CMSIS/Include/cmsis_gcc.h ****  *
  12:Drivers/CMSIS/Include/cmsis_gcc.h ****  * Licensed under the Apache License, Version 2.0 (the License); you may
  13:Drivers/CMSIS/Include/cmsis_gcc.h ****  * not use this file except in compliance with the License.
  14:Drivers/CMSIS/Include/cmsis_gcc.h ****  * You may obtain a copy of the License at
  15:Drivers/CMSIS/Include/cmsis_gcc.h ****  *
  16:Drivers/CMSIS/Include/cmsis_gcc.h ****  * www.apache.org/licenses/LICENSE-2.0
  17:Drivers/CMSIS/Include/cmsis_gcc.h ****  *
  18:Drivers/CMSIS/Include/cmsis_gcc.h ****  * Unless required by applicable law or agreed to in writing, software
  19:Drivers/CMSIS/Include/cmsis_gcc.h ****  * distributed under the License is distributed on an AS IS BASIS, WITHOUT
  20:Drivers/CMSIS/Include/cmsis_gcc.h ****  * WARRANTIES OR CONDITIONS OF ANY KIND, either express or implied.
  21:Drivers/CMSIS/Include/cmsis_gcc.h ****  * See the License for the specific language governing permissions and
  22:Drivers/CMSIS/Include/cmsis_gcc.h ****  * limitations under the License.
  23:Drivers/CMSIS/Include/cmsis_gcc.h ****  */
  24:Drivers/CMSIS/Include/cmsis_gcc.h **** 
  25:Drivers/CMSIS/Include/cmsis_gcc.h **** #ifndef __CMSIS_GCC_H
  26:Drivers/CMSIS/Include/cmsis_gcc.h **** #define __CMSIS_GCC_H
  27:Drivers/CMSIS/Include/cmsis_gcc.h **** 
  28:Drivers/CMSIS/Include/cmsis_gcc.h **** /* ignore some GCC warnings */
  29:Drivers/CMSIS/Include/cmsis_gcc.h **** #pragma GCC diagnostic push
  30:Drivers/CMSIS/Include/cmsis_gcc.h **** #pragma GCC diagnostic ignored "-Wsign-conversion"
  31:Drivers/CMSIS/Include/cmsis_gcc.h **** #pragma GCC diagnostic ignored "-Wconversion"
  32:Drivers/CMSIS/Include/cmsis_gcc.h **** #pragma GCC diagnostic ignored "-Wunused-parameter"
  33:Drivers/CMSIS/Include/cmsis_gcc.h **** 
  34:Drivers/CMSIS/Include/cmsis_gcc.h **** /* Fallback for __has_builtin */
  35:Drivers/CMSIS/Include/cmsis_gcc.h **** #ifndef __has_builtin
  36:Drivers/CMSIS/Include/cmsis_gcc.h ****   #define __has_builtin(x) (0)
  37:Drivers/CMSIS/Include/cmsis_gcc.h **** #endif
  38:Drivers/CMSIS/Include/cmsis_gcc.h **** 
  39:Drivers/CMSIS/Include/cmsis_gcc.h **** /* CMSIS compiler specific defines */
  40:Drivers/CMSIS/Include/cmsis_gcc.h **** #ifndef   __ASM
  41:Drivers/CMSIS/Include/cmsis_gcc.h ****   #define __ASM                                  __asm
  42:Drivers/CMSIS/Include/cmsis_gcc.h **** #endif
  43:Drivers/CMSIS/Include/cmsis_gcc.h **** #ifndef   __INLINE
  44:Drivers/CMSIS/Include/cmsis_gcc.h ****   #define __INLINE                               inline
  45:Drivers/CMSIS/Include/cmsis_gcc.h **** #endif
  46:Drivers/CMSIS/Include/cmsis_gcc.h **** #ifndef   __STATIC_INLINE
  47:Drivers/CMSIS/Include/cmsis_gcc.h ****   #define __STATIC_INLINE                        static inline
  48:Drivers/CMSIS/Include/cmsis_gcc.h **** #endif
  49:Drivers/CMSIS/Include/cmsis_gcc.h **** #ifndef   __STATIC_FORCEINLINE                 
  50:Drivers/CMSIS/Include/cmsis_gcc.h ****   #define __STATIC_FORCEINLINE                   __attribute__((always_inline)) static inline
  51:Drivers/CMSIS/Include/cmsis_gcc.h **** #endif                                           
  52:Drivers/CMSIS/Include/cmsis_gcc.h **** #ifndef   __NO_RETURN
  53:Drivers/CMSIS/Include/cmsis_gcc.h ****   #define __NO_RETURN                            __attribute__((__noreturn__))
  54:Drivers/CMSIS/Include/cmsis_gcc.h **** #endif
  55:Drivers/CMSIS/Include/cmsis_gcc.h **** #ifndef   __USED
  56:Drivers/CMSIS/Include/cmsis_gcc.h ****   #define __USED                                 __attribute__((used))
  57:Drivers/CMSIS/Include/cmsis_gcc.h **** #endif
  58:Drivers/CMSIS/Include/cmsis_gcc.h **** #ifndef   __WEAK
  59:Drivers/CMSIS/Include/cmsis_gcc.h ****   #define __WEAK                                 __attribute__((weak))
  60:Drivers/CMSIS/Include/cmsis_gcc.h **** #endif
  61:Drivers/CMSIS/Include/cmsis_gcc.h **** #ifndef   __PACKED
  62:Drivers/CMSIS/Include/cmsis_gcc.h ****   #define __PACKED                               __attribute__((packed, aligned(1)))
  63:Drivers/CMSIS/Include/cmsis_gcc.h **** #endif
ARM GAS  C:\Users\einom\AppData\Local\Temp\cchSnBA5.s 			page 11


  64:Drivers/CMSIS/Include/cmsis_gcc.h **** #ifndef   __PACKED_STRUCT
  65:Drivers/CMSIS/Include/cmsis_gcc.h ****   #define __PACKED_STRUCT                        struct __attribute__((packed, aligned(1)))
  66:Drivers/CMSIS/Include/cmsis_gcc.h **** #endif
  67:Drivers/CMSIS/Include/cmsis_gcc.h **** #ifndef   __PACKED_UNION
  68:Drivers/CMSIS/Include/cmsis_gcc.h ****   #define __PACKED_UNION                         union __attribute__((packed, aligned(1)))
  69:Drivers/CMSIS/Include/cmsis_gcc.h **** #endif
  70:Drivers/CMSIS/Include/cmsis_gcc.h **** #ifndef   __UNALIGNED_UINT32        /* deprecated */
  71:Drivers/CMSIS/Include/cmsis_gcc.h ****   #pragma GCC diagnostic push
  72:Drivers/CMSIS/Include/cmsis_gcc.h ****   #pragma GCC diagnostic ignored "-Wpacked"
  73:Drivers/CMSIS/Include/cmsis_gcc.h ****   #pragma GCC diagnostic ignored "-Wattributes"
  74:Drivers/CMSIS/Include/cmsis_gcc.h ****   struct __attribute__((packed)) T_UINT32 { uint32_t v; };
  75:Drivers/CMSIS/Include/cmsis_gcc.h ****   #pragma GCC diagnostic pop
  76:Drivers/CMSIS/Include/cmsis_gcc.h ****   #define __UNALIGNED_UINT32(x)                  (((struct T_UINT32 *)(x))->v)
  77:Drivers/CMSIS/Include/cmsis_gcc.h **** #endif
  78:Drivers/CMSIS/Include/cmsis_gcc.h **** #ifndef   __UNALIGNED_UINT16_WRITE
  79:Drivers/CMSIS/Include/cmsis_gcc.h ****   #pragma GCC diagnostic push
  80:Drivers/CMSIS/Include/cmsis_gcc.h ****   #pragma GCC diagnostic ignored "-Wpacked"
  81:Drivers/CMSIS/Include/cmsis_gcc.h ****   #pragma GCC diagnostic ignored "-Wattributes"
  82:Drivers/CMSIS/Include/cmsis_gcc.h ****   __PACKED_STRUCT T_UINT16_WRITE { uint16_t v; };
  83:Drivers/CMSIS/Include/cmsis_gcc.h ****   #pragma GCC diagnostic pop
  84:Drivers/CMSIS/Include/cmsis_gcc.h ****   #define __UNALIGNED_UINT16_WRITE(addr, val)    (void)((((struct T_UINT16_WRITE *)(void *)(addr))-
  85:Drivers/CMSIS/Include/cmsis_gcc.h **** #endif
  86:Drivers/CMSIS/Include/cmsis_gcc.h **** #ifndef   __UNALIGNED_UINT16_READ
  87:Drivers/CMSIS/Include/cmsis_gcc.h ****   #pragma GCC diagnostic push
  88:Drivers/CMSIS/Include/cmsis_gcc.h ****   #pragma GCC diagnostic ignored "-Wpacked"
  89:Drivers/CMSIS/Include/cmsis_gcc.h ****   #pragma GCC diagnostic ignored "-Wattributes"
  90:Drivers/CMSIS/Include/cmsis_gcc.h ****   __PACKED_STRUCT T_UINT16_READ { uint16_t v; };
  91:Drivers/CMSIS/Include/cmsis_gcc.h ****   #pragma GCC diagnostic pop
  92:Drivers/CMSIS/Include/cmsis_gcc.h ****   #define __UNALIGNED_UINT16_READ(addr)          (((const struct T_UINT16_READ *)(const void *)(add
  93:Drivers/CMSIS/Include/cmsis_gcc.h **** #endif
  94:Drivers/CMSIS/Include/cmsis_gcc.h **** #ifndef   __UNALIGNED_UINT32_WRITE
  95:Drivers/CMSIS/Include/cmsis_gcc.h ****   #pragma GCC diagnostic push
  96:Drivers/CMSIS/Include/cmsis_gcc.h ****   #pragma GCC diagnostic ignored "-Wpacked"
  97:Drivers/CMSIS/Include/cmsis_gcc.h ****   #pragma GCC diagnostic ignored "-Wattributes"
  98:Drivers/CMSIS/Include/cmsis_gcc.h ****   __PACKED_STRUCT T_UINT32_WRITE { uint32_t v; };
  99:Drivers/CMSIS/Include/cmsis_gcc.h ****   #pragma GCC diagnostic pop
 100:Drivers/CMSIS/Include/cmsis_gcc.h ****   #define __UNALIGNED_UINT32_WRITE(addr, val)    (void)((((struct T_UINT32_WRITE *)(void *)(addr))-
 101:Drivers/CMSIS/Include/cmsis_gcc.h **** #endif
 102:Drivers/CMSIS/Include/cmsis_gcc.h **** #ifndef   __UNALIGNED_UINT32_READ
 103:Drivers/CMSIS/Include/cmsis_gcc.h ****   #pragma GCC diagnostic push
 104:Drivers/CMSIS/Include/cmsis_gcc.h ****   #pragma GCC diagnostic ignored "-Wpacked"
 105:Drivers/CMSIS/Include/cmsis_gcc.h ****   #pragma GCC diagnostic ignored "-Wattributes"
 106:Drivers/CMSIS/Include/cmsis_gcc.h ****   __PACKED_STRUCT T_UINT32_READ { uint32_t v; };
 107:Drivers/CMSIS/Include/cmsis_gcc.h ****   #pragma GCC diagnostic pop
 108:Drivers/CMSIS/Include/cmsis_gcc.h ****   #define __UNALIGNED_UINT32_READ(addr)          (((const struct T_UINT32_READ *)(const void *)(add
 109:Drivers/CMSIS/Include/cmsis_gcc.h **** #endif
 110:Drivers/CMSIS/Include/cmsis_gcc.h **** #ifndef   __ALIGNED
 111:Drivers/CMSIS/Include/cmsis_gcc.h ****   #define __ALIGNED(x)                           __attribute__((aligned(x)))
 112:Drivers/CMSIS/Include/cmsis_gcc.h **** #endif
 113:Drivers/CMSIS/Include/cmsis_gcc.h **** #ifndef   __RESTRICT
 114:Drivers/CMSIS/Include/cmsis_gcc.h ****   #define __RESTRICT                             __restrict
 115:Drivers/CMSIS/Include/cmsis_gcc.h **** #endif
 116:Drivers/CMSIS/Include/cmsis_gcc.h **** 
 117:Drivers/CMSIS/Include/cmsis_gcc.h **** 
 118:Drivers/CMSIS/Include/cmsis_gcc.h **** /* ###########################  Core Function Access  ########################### */
 119:Drivers/CMSIS/Include/cmsis_gcc.h **** /** \ingroup  CMSIS_Core_FunctionInterface
 120:Drivers/CMSIS/Include/cmsis_gcc.h ****     \defgroup CMSIS_Core_RegAccFunctions CMSIS Core Register Access Functions
ARM GAS  C:\Users\einom\AppData\Local\Temp\cchSnBA5.s 			page 12


 121:Drivers/CMSIS/Include/cmsis_gcc.h ****   @{
 122:Drivers/CMSIS/Include/cmsis_gcc.h ****  */
 123:Drivers/CMSIS/Include/cmsis_gcc.h **** 
 124:Drivers/CMSIS/Include/cmsis_gcc.h **** /**
 125:Drivers/CMSIS/Include/cmsis_gcc.h ****   \brief   Enable IRQ Interrupts
 126:Drivers/CMSIS/Include/cmsis_gcc.h ****   \details Enables IRQ interrupts by clearing the I-bit in the CPSR.
 127:Drivers/CMSIS/Include/cmsis_gcc.h ****            Can only be executed in Privileged modes.
 128:Drivers/CMSIS/Include/cmsis_gcc.h ****  */
 129:Drivers/CMSIS/Include/cmsis_gcc.h **** __STATIC_FORCEINLINE void __enable_irq(void)
 130:Drivers/CMSIS/Include/cmsis_gcc.h **** {
 131:Drivers/CMSIS/Include/cmsis_gcc.h ****   __ASM volatile ("cpsie i" : : : "memory");
 132:Drivers/CMSIS/Include/cmsis_gcc.h **** }
 133:Drivers/CMSIS/Include/cmsis_gcc.h **** 
 134:Drivers/CMSIS/Include/cmsis_gcc.h **** 
 135:Drivers/CMSIS/Include/cmsis_gcc.h **** /**
 136:Drivers/CMSIS/Include/cmsis_gcc.h ****   \brief   Disable IRQ Interrupts
 137:Drivers/CMSIS/Include/cmsis_gcc.h ****   \details Disables IRQ interrupts by setting the I-bit in the CPSR.
 138:Drivers/CMSIS/Include/cmsis_gcc.h ****            Can only be executed in Privileged modes.
 139:Drivers/CMSIS/Include/cmsis_gcc.h ****  */
 140:Drivers/CMSIS/Include/cmsis_gcc.h **** __STATIC_FORCEINLINE void __disable_irq(void)
  98              		.loc 2 140 27 view .LVU30
  99              	.LBB30:
 141:Drivers/CMSIS/Include/cmsis_gcc.h **** {
 142:Drivers/CMSIS/Include/cmsis_gcc.h ****   __ASM volatile ("cpsid i" : : : "memory");
 100              		.loc 2 142 3 view .LVU31
 101              		.syntax divided
 102              	@ 142 "Drivers/CMSIS/Include/cmsis_gcc.h" 1
 103 0036 72B6     		cpsid i
 104              	@ 0 "" 2
 105              		.thumb
 106              		.syntax unified
 107              	.L3:
 108              	.LBE30:
 109              	.LBE29:
 401:Core/Src/main.c ****   while (1)
 110              		.loc 1 401 3 view .LVU32
 402:Core/Src/main.c ****   {
 403:Core/Src/main.c ****   }
 111              		.loc 1 403 3 view .LVU33
 401:Core/Src/main.c ****   while (1)
 112              		.loc 1 401 9 view .LVU34
 401:Core/Src/main.c ****   while (1)
 113              		.loc 1 401 3 view .LVU35
 114              		.loc 1 403 3 view .LVU36
 401:Core/Src/main.c ****   while (1)
 115              		.loc 1 401 9 view .LVU37
 116 0038 FEE7     		b	.L3
 117              	.L2:
 118              	.LBE28:
 244:Core/Src/main.c ****                               |RCC_CLOCKTYPE_PCLK1;
 119              		.loc 1 244 3 view .LVU38
 246:Core/Src/main.c ****   RCC_ClkInitStruct.AHBCLKDivider = RCC_SYSCLK_DIV1;
 120              		.loc 1 246 3 view .LVU39
 247:Core/Src/main.c ****   RCC_ClkInitStruct.APB1CLKDivider = RCC_HCLK_DIV1;
 121              		.loc 1 247 3 view .LVU40
 248:Core/Src/main.c **** 
 122              		.loc 1 248 3 view .LVU41
ARM GAS  C:\Users\einom\AppData\Local\Temp\cchSnBA5.s 			page 13


 244:Core/Src/main.c ****                               |RCC_CLOCKTYPE_PCLK1;
 123              		.loc 1 244 31 is_stmt 0 view .LVU42
 124 003a 0722     		movs	r2, #7
 125 003c 0223     		movs	r3, #2
 126 003e 0092     		str	r2, [sp]
 127 0040 0193     		str	r3, [sp, #4]
 128 0042 0022     		movs	r2, #0
 129 0044 0023     		movs	r3, #0
 250:Core/Src/main.c ****   {
 130              		.loc 1 250 7 view .LVU43
 131 0046 0121     		movs	r1, #1
 132 0048 6846     		mov	r0, sp
 244:Core/Src/main.c ****                               |RCC_CLOCKTYPE_PCLK1;
 133              		.loc 1 244 31 view .LVU44
 134 004a 0292     		str	r2, [sp, #8]
 135 004c 0393     		str	r3, [sp, #12]
 250:Core/Src/main.c ****   {
 136              		.loc 1 250 3 is_stmt 1 view .LVU45
 250:Core/Src/main.c ****   {
 137              		.loc 1 250 7 is_stmt 0 view .LVU46
 138 004e FFF7FEFF 		bl	HAL_RCC_ClockConfig
 139              	.LVL3:
 250:Core/Src/main.c ****   {
 140              		.loc 1 250 6 discriminator 1 view .LVU47
 141 0052 0028     		cmp	r0, #0
 142 0054 01D0     		beq	.L1
 252:Core/Src/main.c ****   }
 143              		.loc 1 252 5 is_stmt 1 view .LVU48
 144              	.LBB31:
 145              	.LBI31:
 396:Core/Src/main.c **** {
 146              		.loc 1 396 6 view .LVU49
 400:Core/Src/main.c ****   while (1)
 147              		.loc 1 400 3 view .LVU50
 148              	.LBB32:
 149              	.LBI32:
 140:Drivers/CMSIS/Include/cmsis_gcc.h **** {
 150              		.loc 2 140 27 view .LVU51
 151              	.LBB33:
 152              		.loc 2 142 3 view .LVU52
 153              		.syntax divided
 154              	@ 142 "Drivers/CMSIS/Include/cmsis_gcc.h" 1
 155 0056 72B6     		cpsid i
 156              	@ 0 "" 2
 157              		.thumb
 158              		.syntax unified
 159              	.L5:
 160              	.LBE33:
 161              	.LBE32:
 401:Core/Src/main.c ****   {
 162              		.loc 1 401 3 view .LVU53
 163              		.loc 1 403 3 view .LVU54
 401:Core/Src/main.c ****   {
 164              		.loc 1 401 9 view .LVU55
 401:Core/Src/main.c ****   {
 165              		.loc 1 401 3 view .LVU56
 166              		.loc 1 403 3 view .LVU57
ARM GAS  C:\Users\einom\AppData\Local\Temp\cchSnBA5.s 			page 14


 401:Core/Src/main.c ****   {
 167              		.loc 1 401 9 view .LVU58
 168 0058 FEE7     		b	.L5
 169              	.L1:
 170              	.LBE31:
 254:Core/Src/main.c **** 
 171              		.loc 1 254 1 is_stmt 0 view .LVU59
 172 005a 11B0     		add	sp, sp, #68
 173              		@ sp needed
 174 005c 00BD     		pop	{pc}
 175              		.cfi_endproc
 176              	.LFE41:
 178              		.global	__aeabi_ui2d
 179              		.global	__aeabi_ddiv
 180              		.global	__aeabi_dadd
 181              		.global	__aeabi_dsub
 182              		.global	__aeabi_dmul
 183              		.global	__aeabi_dcmple
 184              		.global	__aeabi_uidiv
 185 005e C046     		.section	.text.startup.main,"ax",%progbits
 186              		.align	1
 187              		.p2align 2,,3
 188              		.global	main
 189              		.syntax unified
 190              		.code	16
 191              		.thumb_func
 193              	main:
 194              	.LFB40:
 105:Core/Src/main.c **** 
 195              		.loc 1 105 1 is_stmt 1 view -0
 196              		.cfi_startproc
 197              		@ args = 0, pretend = 0, frame = 256
 198              		@ frame_needed = 0, uses_anonymous_args = 0
 114:Core/Src/main.c **** 
 199              		.loc 1 114 3 view .LVU61
 105:Core/Src/main.c **** 
 200              		.loc 1 105 1 is_stmt 0 view .LVU62
 201 0000 F0B5     		push	{r4, r5, r6, r7, lr}
 202              	.LCFI2:
 203              		.cfi_def_cfa_offset 20
 204              		.cfi_offset 4, -20
 205              		.cfi_offset 5, -16
 206              		.cfi_offset 6, -12
 207              		.cfi_offset 7, -8
 208              		.cfi_offset 14, -4
 209 0002 DE46     		mov	lr, fp
 210 0004 4E46     		mov	r6, r9
 211 0006 5746     		mov	r7, r10
 212 0008 4546     		mov	r5, r8
 213 000a E0B5     		push	{r5, r6, r7, lr}
 214              	.LCFI3:
 215              		.cfi_def_cfa_offset 36
 216              		.cfi_offset 8, -36
 217              		.cfi_offset 9, -32
 218              		.cfi_offset 10, -28
 219              		.cfi_offset 11, -24
 220 000c C1B0     		sub	sp, sp, #260
ARM GAS  C:\Users\einom\AppData\Local\Temp\cchSnBA5.s 			page 15


 221              	.LCFI4:
 222              		.cfi_def_cfa_offset 296
 114:Core/Src/main.c **** 
 223              		.loc 1 114 3 view .LVU63
 224 000e FFF7FEFF 		bl	HAL_Init
 225              	.LVL4:
 121:Core/Src/main.c **** 
 226              		.loc 1 121 3 is_stmt 1 view .LVU64
 227 0012 FFF7FEFF 		bl	SystemClock_Config
 228              	.LVL5:
 128:Core/Src/main.c ****   /* USER CODE BEGIN 2 */
 229              		.loc 1 128 3 view .LVU65
 230              	.LBB75:
 231              	.LBI75:
 261:Core/Src/main.c **** {
 232              		.loc 1 261 13 view .LVU66
 233              	.LBB76:
 263:Core/Src/main.c ****   /* USER CODE BEGIN MX_GPIO_Init_1 */
 234              		.loc 1 263 3 view .LVU67
 263:Core/Src/main.c ****   /* USER CODE BEGIN MX_GPIO_Init_1 */
 235              		.loc 1 263 20 is_stmt 0 view .LVU68
 236 0016 1422     		movs	r2, #20
 237 0018 0021     		movs	r1, #0
 238 001a 3AA8     		add	r0, sp, #232
 239 001c FFF7FEFF 		bl	memset
 240              	.LVL6:
 269:Core/Src/main.c ****   __HAL_RCC_GPIOB_CLK_ENABLE();
 241              		.loc 1 269 3 is_stmt 1 view .LVU69
 242              	.LBB77:
 269:Core/Src/main.c ****   __HAL_RCC_GPIOB_CLK_ENABLE();
 243              		.loc 1 269 3 view .LVU70
 269:Core/Src/main.c ****   __HAL_RCC_GPIOB_CLK_ENABLE();
 244              		.loc 1 269 3 view .LVU71
 245 0020 8021     		movs	r1, #128
 246 0022 D84B     		ldr	r3, .L67
 247 0024 C903     		lsls	r1, r1, #15
 248 0026 5A69     		ldr	r2, [r3, #20]
 249              	.LBE77:
 274:Core/Src/main.c ****                           |GPIO_PIN_4|GPIO_PIN_5|GPIO_PIN_6|GPIO_PIN_7, GPIO_PIN_RESET);
 250              		.loc 1 274 3 is_stmt 0 view .LVU72
 251 0028 D748     		ldr	r0, .L67+4
 252              	.LBB78:
 269:Core/Src/main.c ****   __HAL_RCC_GPIOB_CLK_ENABLE();
 253              		.loc 1 269 3 view .LVU73
 254 002a 0A43     		orrs	r2, r1
 255 002c 5A61     		str	r2, [r3, #20]
 269:Core/Src/main.c ****   __HAL_RCC_GPIOB_CLK_ENABLE();
 256              		.loc 1 269 3 is_stmt 1 view .LVU74
 257 002e 5A69     		ldr	r2, [r3, #20]
 258 0030 0A40     		ands	r2, r1
 259              	.LBE78:
 260              	.LBB79:
 270:Core/Src/main.c ****   __HAL_RCC_GPIOA_CLK_ENABLE();
 261              		.loc 1 270 3 is_stmt 0 view .LVU75
 262 0032 8021     		movs	r1, #128
 263              	.LBE79:
 264              	.LBB80:
ARM GAS  C:\Users\einom\AppData\Local\Temp\cchSnBA5.s 			page 16


 269:Core/Src/main.c ****   __HAL_RCC_GPIOB_CLK_ENABLE();
 265              		.loc 1 269 3 view .LVU76
 266 0034 3792     		str	r2, [sp, #220]
 269:Core/Src/main.c ****   __HAL_RCC_GPIOB_CLK_ENABLE();
 267              		.loc 1 269 3 is_stmt 1 view .LVU77
 268 0036 379A     		ldr	r2, [sp, #220]
 269              	.LBE80:
 269:Core/Src/main.c ****   __HAL_RCC_GPIOB_CLK_ENABLE();
 270              		.loc 1 269 3 view .LVU78
 270:Core/Src/main.c ****   __HAL_RCC_GPIOA_CLK_ENABLE();
 271              		.loc 1 270 3 view .LVU79
 272              	.LBB81:
 270:Core/Src/main.c ****   __HAL_RCC_GPIOA_CLK_ENABLE();
 273              		.loc 1 270 3 view .LVU80
 270:Core/Src/main.c ****   __HAL_RCC_GPIOA_CLK_ENABLE();
 274              		.loc 1 270 3 view .LVU81
 275 0038 5A69     		ldr	r2, [r3, #20]
 276 003a C902     		lsls	r1, r1, #11
 277 003c 0A43     		orrs	r2, r1
 278 003e 5A61     		str	r2, [r3, #20]
 270:Core/Src/main.c ****   __HAL_RCC_GPIOA_CLK_ENABLE();
 279              		.loc 1 270 3 view .LVU82
 280 0040 5A69     		ldr	r2, [r3, #20]
 281 0042 0A40     		ands	r2, r1
 282              	.LBE81:
 283              	.LBB82:
 271:Core/Src/main.c **** 
 284              		.loc 1 271 3 is_stmt 0 view .LVU83
 285 0044 8021     		movs	r1, #128
 286              	.LBE82:
 287              	.LBB83:
 270:Core/Src/main.c ****   __HAL_RCC_GPIOA_CLK_ENABLE();
 288              		.loc 1 270 3 view .LVU84
 289 0046 3892     		str	r2, [sp, #224]
 270:Core/Src/main.c ****   __HAL_RCC_GPIOA_CLK_ENABLE();
 290              		.loc 1 270 3 is_stmt 1 view .LVU85
 291 0048 389A     		ldr	r2, [sp, #224]
 292              	.LBE83:
 270:Core/Src/main.c ****   __HAL_RCC_GPIOA_CLK_ENABLE();
 293              		.loc 1 270 3 view .LVU86
 271:Core/Src/main.c **** 
 294              		.loc 1 271 3 view .LVU87
 295              	.LBB84:
 271:Core/Src/main.c **** 
 296              		.loc 1 271 3 view .LVU88
 271:Core/Src/main.c **** 
 297              		.loc 1 271 3 view .LVU89
 298 004a 5A69     		ldr	r2, [r3, #20]
 299 004c 8902     		lsls	r1, r1, #10
 300 004e 0A43     		orrs	r2, r1
 301 0050 5A61     		str	r2, [r3, #20]
 271:Core/Src/main.c **** 
 302              		.loc 1 271 3 view .LVU90
 303 0052 5B69     		ldr	r3, [r3, #20]
 304              	.LBE84:
 274:Core/Src/main.c ****                           |GPIO_PIN_4|GPIO_PIN_5|GPIO_PIN_6|GPIO_PIN_7, GPIO_PIN_RESET);
 305              		.loc 1 274 3 is_stmt 0 view .LVU91
ARM GAS  C:\Users\einom\AppData\Local\Temp\cchSnBA5.s 			page 17


 306 0054 0022     		movs	r2, #0
 307              	.LBB85:
 271:Core/Src/main.c **** 
 308              		.loc 1 271 3 view .LVU92
 309 0056 0B40     		ands	r3, r1
 310 0058 3993     		str	r3, [sp, #228]
 271:Core/Src/main.c **** 
 311              		.loc 1 271 3 is_stmt 1 view .LVU93
 312              	.LBE85:
 274:Core/Src/main.c ****                           |GPIO_PIN_4|GPIO_PIN_5|GPIO_PIN_6|GPIO_PIN_7, GPIO_PIN_RESET);
 313              		.loc 1 274 3 is_stmt 0 view .LVU94
 314 005a FF21     		movs	r1, #255
 315              	.LBB86:
 271:Core/Src/main.c **** 
 316              		.loc 1 271 3 view .LVU95
 317 005c 399B     		ldr	r3, [sp, #228]
 318              	.LBE86:
 271:Core/Src/main.c **** 
 319              		.loc 1 271 3 is_stmt 1 view .LVU96
 274:Core/Src/main.c ****                           |GPIO_PIN_4|GPIO_PIN_5|GPIO_PIN_6|GPIO_PIN_7, GPIO_PIN_RESET);
 320              		.loc 1 274 3 view .LVU97
 321 005e FFF7FEFF 		bl	HAL_GPIO_WritePin
 322              	.LVL7:
 279:Core/Src/main.c ****                           |GPIO_PIN_4|GPIO_PIN_5|GPIO_PIN_6|GPIO_PIN_7;
 323              		.loc 1 279 3 view .LVU98
 281:Core/Src/main.c ****   GPIO_InitStruct.Pull = GPIO_NOPULL;
 324              		.loc 1 281 3 view .LVU99
 282:Core/Src/main.c ****   GPIO_InitStruct.Speed = GPIO_SPEED_FREQ_LOW;
 325              		.loc 1 282 3 view .LVU100
 283:Core/Src/main.c ****   HAL_GPIO_Init(GPIOB, &GPIO_InitStruct);
 326              		.loc 1 283 3 view .LVU101
 279:Core/Src/main.c ****                           |GPIO_PIN_4|GPIO_PIN_5|GPIO_PIN_6|GPIO_PIN_7;
 327              		.loc 1 279 23 is_stmt 0 view .LVU102
 328 0062 FF22     		movs	r2, #255
 329 0064 0123     		movs	r3, #1
 330 0066 3A92     		str	r2, [sp, #232]
 331 0068 3B93     		str	r3, [sp, #236]
 332 006a 0022     		movs	r2, #0
 333 006c 0023     		movs	r3, #0
 284:Core/Src/main.c **** 
 334              		.loc 1 284 3 view .LVU103
 335 006e 3AA9     		add	r1, sp, #232
 336 0070 C548     		ldr	r0, .L67+4
 279:Core/Src/main.c ****                           |GPIO_PIN_4|GPIO_PIN_5|GPIO_PIN_6|GPIO_PIN_7;
 337              		.loc 1 279 23 view .LVU104
 338 0072 3C92     		str	r2, [sp, #240]
 339 0074 3D93     		str	r3, [sp, #244]
 284:Core/Src/main.c **** 
 340              		.loc 1 284 3 is_stmt 1 view .LVU105
 341 0076 FFF7FEFF 		bl	HAL_GPIO_Init
 342              	.LVL8:
 343              	.LBE76:
 344              	.LBE75:
 132:Core/Src/main.c ****   g_total_program_time_ms = 0.0;
 345              		.loc 1 132 3 view .LVU106
 132:Core/Src/main.c ****   g_total_program_time_ms = 0.0;
 346              		.loc 1 132 26 is_stmt 0 view .LVU107
ARM GAS  C:\Users\einom\AppData\Local\Temp\cchSnBA5.s 			page 18


 347 007a C44B     		ldr	r3, .L67+8
 348 007c 9946     		mov	r9, r3
 349 007e 0023     		movs	r3, #0
 350 0080 4A46     		mov	r2, r9
 351 0082 1360     		str	r3, [r2]
 133:Core/Src/main.c ****   g_total_time_sum = 0.0;
 352              		.loc 1 133 3 is_stmt 1 view .LVU108
 133:Core/Src/main.c ****   g_total_time_sum = 0.0;
 353              		.loc 1 133 27 is_stmt 0 view .LVU109
 354 0084 C24B     		ldr	r3, .L67+12
 355 0086 0022     		movs	r2, #0
 356 0088 9A46     		mov	r10, r3
 357 008a 0023     		movs	r3, #0
 358 008c 5146     		mov	r1, r10
 359 008e 0A60     		str	r2, [r1]
 360 0090 4B60     		str	r3, [r1, #4]
 134:Core/Src/main.c ****   g_test_counter = 0u;
 361              		.loc 1 134 3 is_stmt 1 view .LVU110
 134:Core/Src/main.c ****   g_test_counter = 0u;
 362              		.loc 1 134 20 is_stmt 0 view .LVU111
 363 0092 C049     		ldr	r1, .L67+16
 364 0094 4E46     		mov	r6, r9
 365 0096 0A60     		str	r2, [r1]
 366 0098 4B60     		str	r3, [r1, #4]
 135:Core/Src/main.c **** 
 367              		.loc 1 135 3 is_stmt 1 view .LVU112
 368 009a BF4A     		ldr	r2, .L67+20
 134:Core/Src/main.c ****   g_test_counter = 0u;
 369              		.loc 1 134 20 is_stmt 0 view .LVU113
 370 009c 2691     		str	r1, [sp, #152]
 371 009e 1B92     		str	r2, [sp, #108]
 372 00a0 BE4A     		ldr	r2, .L67+24
 373 00a2 0023     		movs	r3, #0
 374 00a4 2792     		str	r2, [sp, #156]
 375 00a6 BE4A     		ldr	r2, .L67+28
 376 00a8 2892     		str	r2, [sp, #160]
 377 00aa BE4A     		ldr	r2, .L67+32
 378 00ac 2992     		str	r2, [sp, #164]
 379 00ae BE4A     		ldr	r2, .L67+36
 380 00b0 2A92     		str	r2, [sp, #168]
 381 00b2 BE4A     		ldr	r2, .L67+40
 382 00b4 2B92     		str	r2, [sp, #172]
 383 00b6 BE4A     		ldr	r2, .L67+44
 384 00b8 1C92     		str	r2, [sp, #112]
 385 00ba BE4A     		ldr	r2, .L67+48
 386 00bc 1992     		str	r2, [sp, #100]
 387 00be BE4A     		ldr	r2, .L67+52
 388 00c0 1A92     		str	r2, [sp, #104]
 389 00c2 BE4A     		ldr	r2, .L67+56
 390 00c4 1F92     		str	r2, [sp, #124]
 391 00c6 BE4A     		ldr	r2, .L67+60
 392 00c8 2092     		str	r2, [sp, #128]
 393 00ca BE4A     		ldr	r2, .L67+64
 394 00cc 2192     		str	r2, [sp, #132]
 395 00ce BE4A     		ldr	r2, .L67+68
 396 00d0 2292     		str	r2, [sp, #136]
 397 00d2 BE4A     		ldr	r2, .L67+72
ARM GAS  C:\Users\einom\AppData\Local\Temp\cchSnBA5.s 			page 19


 398 00d4 2392     		str	r2, [sp, #140]
 399 00d6 BE4A     		ldr	r2, .L67+76
 400 00d8 2492     		str	r2, [sp, #144]
 401 00da BE4A     		ldr	r2, .L67+80
 402 00dc 2592     		str	r2, [sp, #148]
 403 00de BE4A     		ldr	r2, .L67+84
 404 00e0 9346     		mov	fp, r2
 405 00e2 D846     		mov	r8, fp
 406 00e4 BD4A     		ldr	r2, .L67+88
 407 00e6 2C92     		str	r2, [sp, #176]
 408 00e8 BD4A     		ldr	r2, .L67+92
 409 00ea 2D92     		str	r2, [sp, #180]
 410              	.L37:
 141:Core/Src/main.c ****   {
 411              		.loc 1 141 3 is_stmt 1 view .LVU114
 412              	.LBB87:
 147:Core/Src/main.c ****       g_simple_test++;
 413              		.loc 1 147 7 view .LVU115
 147:Core/Src/main.c ****       g_simple_test++;
 414              		.loc 1 147 21 is_stmt 0 view .LVU116
 415 00ec 1B9A     		ldr	r2, [sp, #108]
 416 00ee 0133     		adds	r3, r3, #1
 417 00f0 1360     		str	r3, [r2]
 148:Core/Src/main.c ****       
 418              		.loc 1 148 7 is_stmt 1 view .LVU117
 148:Core/Src/main.c ****       
 419              		.loc 1 148 20 is_stmt 0 view .LVU118
 420 00f2 279A     		ldr	r2, [sp, #156]
 421              	.LBB88:
 157:Core/Src/main.c ****       {
 422              		.loc 1 157 21 view .LVU119
 423 00f4 4546     		mov	r5, r8
 424              	.LBE88:
 148:Core/Src/main.c ****       
 425              		.loc 1 148 20 view .LVU120
 426 00f6 1368     		ldr	r3, [r2]
 427 00f8 0133     		adds	r3, r3, #1
 428 00fa 1360     		str	r3, [r2]
 151:Core/Src/main.c ****       
 429              		.loc 1 151 7 is_stmt 1 view .LVU121
 151:Core/Src/main.c ****       
 430              		.loc 1 151 35 is_stmt 0 view .LVU122
 431 00fc FFF7FEFF 		bl	HAL_GetTick
 432              	.LVL9:
 154:Core/Src/main.c **** 
 433              		.loc 1 154 7 view .LVU123
 434 0100 0122     		movs	r2, #1
 151:Core/Src/main.c ****       
 435              		.loc 1 151 35 view .LVU124
 436 0102 0700     		movs	r7, r0
 437              	.LVL10:
 154:Core/Src/main.c **** 
 438              		.loc 1 154 7 is_stmt 1 view .LVU125
 439 0104 0121     		movs	r1, #1
 440 0106 A048     		ldr	r0, .L67+4
 441              	.LVL11:
 154:Core/Src/main.c **** 
ARM GAS  C:\Users\einom\AppData\Local\Temp\cchSnBA5.s 			page 20


 442              		.loc 1 154 7 is_stmt 0 view .LVU126
 443 0108 FFF7FEFF 		bl	HAL_GPIO_WritePin
 444              	.LVL12:
 157:Core/Src/main.c ****       {
 445              		.loc 1 157 7 is_stmt 1 view .LVU127
 446              	.LBB184:
 157:Core/Src/main.c ****       {
 447              		.loc 1 157 12 view .LVU128
 157:Core/Src/main.c ****       {
 448              		.loc 1 157 48 discriminator 1 view .LVU129
 449 010c 289B     		ldr	r3, [sp, #160]
 157:Core/Src/main.c ****       {
 450              		.loc 1 157 21 is_stmt 0 view .LVU130
 451 010e 2E97     		str	r7, [sp, #184]
 452 0110 1893     		str	r3, [sp, #96]
 453 0112 299B     		ldr	r3, [sp, #164]
 454 0114 2F96     		str	r6, [sp, #188]
 455 0116 1793     		str	r3, [sp, #92]
 456              	.LBE184:
 154:Core/Src/main.c **** 
 457              		.loc 1 154 7 view .LVU131
 458 0118 8023     		movs	r3, #128
 459 011a 9B46     		mov	fp, r3
 460 011c 0093     		str	r3, [sp]
 461              	.LBB185:
 157:Core/Src/main.c ****       {
 462              		.loc 1 157 21 view .LVU132
 463 011e 0023     		movs	r3, #0
 464 0120 D846     		mov	r8, fp
 465 0122 1293     		str	r3, [sp, #72]
 466              	.LVL13:
 467              	.L36:
 468              	.LBB89:
 159:Core/Src/main.c ****         uint16_t h = kHeights[size_index];
 469              		.loc 1 159 9 is_stmt 1 view .LVU133
 160:Core/Src/main.c ****         g_current_width = (uint32_t)w;
 470              		.loc 1 160 9 view .LVU134
 161:Core/Src/main.c ****         g_current_height = (uint32_t)h;
 471              		.loc 1 161 9 view .LVU135
 162:Core/Src/main.c **** 
 472              		.loc 1 162 26 is_stmt 0 view .LVU136
 473 0124 4246     		mov	r2, r8
 161:Core/Src/main.c ****         g_current_height = (uint32_t)h;
 474              		.loc 1 161 25 view .LVU137
 475 0126 2A9B     		ldr	r3, [sp, #168]
 476 0128 009C     		ldr	r4, [sp]
 477 012a 1C60     		str	r4, [r3]
 162:Core/Src/main.c **** 
 478              		.loc 1 162 9 is_stmt 1 view .LVU138
 162:Core/Src/main.c **** 
 479              		.loc 1 162 26 is_stmt 0 view .LVU139
 480 012c 2B9B     		ldr	r3, [sp, #172]
 481 012e 1A60     		str	r2, [r3]
 164:Core/Src/main.c ****         
 482              		.loc 1 164 9 is_stmt 1 view .LVU140
 164:Core/Src/main.c ****         
 483              		.loc 1 164 29 is_stmt 0 view .LVU141
ARM GAS  C:\Users\einom\AppData\Local\Temp\cchSnBA5.s 			page 21


 484 0130 FFF7FEFF 		bl	HAL_GetTick
 485              	.LVL14:
 486 0134 1E90     		str	r0, [sp, #120]
 487              	.LVL15:
 167:Core/Src/main.c ****         if (w > MAX_TILE_SIZE || h > MAX_TILE_SIZE) {
 488              		.loc 1 167 9 is_stmt 1 view .LVU142
 168:Core/Src/main.c ****           result_checksum = generate_mandelbrot_checksum_tiled(w, h, kMaxIter);
 489              		.loc 1 168 9 view .LVU143
 168:Core/Src/main.c ****           result_checksum = generate_mandelbrot_checksum_tiled(w, h, kMaxIter);
 490              		.loc 1 168 12 is_stmt 0 view .LVU144
 491 0136 802C     		cmp	r4, #128
 492 0138 00D9     		bls	.LCB374
 493 013a ADE0     		b	.L8	@long jump
 494              	.LCB374:
 168:Core/Src/main.c ****           result_checksum = generate_mandelbrot_checksum_tiled(w, h, kMaxIter);
 495              		.loc 1 168 31 discriminator 1 view .LVU145
 496 013c 4346     		mov	r3, r8
 497 013e 802B     		cmp	r3, #128
 498 0140 00D9     		bls	.LCB377
 499 0142 A1E1     		b	.L9	@long jump
 500              	.LCB377:
 501              	.LVL16:
 502              	.LBB90:
 503              	.LBB91:
 504              	.LBB92:
 295:Core/Src/main.c ****   {
 505              		.loc 1 295 26 is_stmt 1 discriminator 1 view .LVU146
 506 0144 002B     		cmp	r3, #0
 507 0146 00D1     		bne	.LCB385
 508 0148 B7E0     		b	.L11	@long jump
 509              	.LCB385:
 510              	.LBB93:
 297:Core/Src/main.c ****     for (uint16_t x = 0; x < width; ++x)
 511              		.loc 1 297 30 is_stmt 0 view .LVU147
 512 014a 4046     		mov	r0, r8
 513              	.LVL17:
 297:Core/Src/main.c ****     for (uint16_t x = 0; x < width; ++x)
 514              		.loc 1 297 30 view .LVU148
 515 014c FFF7FEFF 		bl	__aeabi_ui2d
 516              	.LVL18:
 517 0150 0200     		movs	r2, r0
 518 0152 0B00     		movs	r3, r1
 297:Core/Src/main.c ****     for (uint16_t x = 0; x < width; ++x)
 519              		.loc 1 297 28 view .LVU149
 520 0154 0020     		movs	r0, #0
 521 0156 0021     		movs	r1, #0
 297:Core/Src/main.c ****     for (uint16_t x = 0; x < width; ++x)
 522              		.loc 1 297 30 view .LVU150
 523 0158 0C92     		str	r2, [sp, #48]
 524 015a 0D93     		str	r3, [sp, #52]
 297:Core/Src/main.c ****     for (uint16_t x = 0; x < width; ++x)
 525              		.loc 1 297 5 is_stmt 1 view .LVU151
 297:Core/Src/main.c ****     for (uint16_t x = 0; x < width; ++x)
 526              		.loc 1 297 28 is_stmt 0 view .LVU152
 527 015c FFF7FEFF 		bl	__aeabi_ddiv
 528              	.LVL19:
 297:Core/Src/main.c ****     for (uint16_t x = 0; x < width; ++x)
ARM GAS  C:\Users\einom\AppData\Local\Temp\cchSnBA5.s 			page 22


 529              		.loc 1 297 46 view .LVU153
 530 0160 0200     		movs	r2, r0
 531 0162 0B00     		movs	r3, r1
 532 0164 FFF7FEFF 		bl	__aeabi_dadd
 533              	.LVL20:
 297:Core/Src/main.c ****     for (uint16_t x = 0; x < width; ++x)
 534              		.loc 1 297 12 view .LVU154
 535 0168 9E4B     		ldr	r3, .L67+96
 536 016a 0022     		movs	r2, #0
 537 016c FFF7FEFF 		bl	__aeabi_dsub
 538              	.LVL21:
 539              	.LBB94:
 298:Core/Src/main.c ****     {
 540              		.loc 1 298 28 discriminator 1 view .LVU155
 541 0170 009B     		ldr	r3, [sp]
 542              	.LBE94:
 297:Core/Src/main.c ****     for (uint16_t x = 0; x < width; ++x)
 543              		.loc 1 297 12 view .LVU156
 544 0172 0690     		str	r0, [sp, #24]
 545 0174 0791     		str	r1, [sp, #28]
 546              	.LVL22:
 298:Core/Src/main.c ****     {
 547              		.loc 1 298 5 is_stmt 1 view .LVU157
 548              	.LBB101:
 298:Core/Src/main.c ****     {
 549              		.loc 1 298 10 view .LVU158
 298:Core/Src/main.c ****     {
 550              		.loc 1 298 28 discriminator 1 view .LVU159
 551 0176 002B     		cmp	r3, #0
 552 0178 00D1     		bne	.LCB425
 553 017a 9EE0     		b	.L11	@long jump
 554              	.LCB425:
 555 017c 0023     		movs	r3, #0
 556 017e 0024     		movs	r4, #0
 557 0180 9B46     		mov	fp, r3
 558 0182 2700     		movs	r7, r4
 559 0184 2E00     		movs	r6, r5
 560              	.LVL23:
 561              	.L34:
 562              	.LBB95:
 300:Core/Src/main.c ****       double xi = 0.0;
 563              		.loc 1 300 32 is_stmt 0 view .LVU160
 564 0186 0098     		ldr	r0, [sp]
 565              	.LVL24:
 300:Core/Src/main.c ****       double xi = 0.0;
 566              		.loc 1 300 32 view .LVU161
 567 0188 FFF7FEFF 		bl	__aeabi_ui2d
 568              	.LVL25:
 569              	.LBE95:
 298:Core/Src/main.c ****     {
 570              		.loc 1 298 19 view .LVU162
 571 018c 0023     		movs	r3, #0
 572 018e B946     		mov	r9, r7
 573 0190 5F46     		mov	r7, fp
 574              	.LBB97:
 300:Core/Src/main.c ****       double xi = 0.0;
 575              		.loc 1 300 32 view .LVU163
ARM GAS  C:\Users\einom\AppData\Local\Temp\cchSnBA5.s 			page 23


 576 0192 0E90     		str	r0, [sp, #56]
 577 0194 0F91     		str	r1, [sp, #60]
 578              	.LBE97:
 298:Core/Src/main.c ****     {
 579              		.loc 1 298 19 view .LVU164
 580 0196 0293     		str	r3, [sp, #8]
 581              	.LVL26:
 582              	.L33:
 583              	.LBB98:
 300:Core/Src/main.c ****       double xi = 0.0;
 584              		.loc 1 300 7 is_stmt 1 view .LVU165
 300:Core/Src/main.c ****       double xi = 0.0;
 585              		.loc 1 300 20 is_stmt 0 view .LVU166
 586 0198 0298     		ldr	r0, [sp, #8]
 587 019a FFF7FEFF 		bl	__aeabi_ui2d
 588              	.LVL27:
 300:Core/Src/main.c ****       double xi = 0.0;
 589              		.loc 1 300 30 view .LVU167
 590 019e 0E9A     		ldr	r2, [sp, #56]
 591 01a0 0F9B     		ldr	r3, [sp, #60]
 592 01a2 FFF7FEFF 		bl	__aeabi_ddiv
 593              	.LVL28:
 300:Core/Src/main.c ****       double xi = 0.0;
 594              		.loc 1 300 47 view .LVU168
 595 01a6 0022     		movs	r2, #0
 596 01a8 8F4B     		ldr	r3, .L67+100
 597 01aa FFF7FEFF 		bl	__aeabi_dmul
 598              	.LVL29:
 300:Core/Src/main.c ****       double xi = 0.0;
 599              		.loc 1 300 14 view .LVU169
 600 01ae 8F4B     		ldr	r3, .L67+104
 601 01b0 0022     		movs	r2, #0
 602 01b2 FFF7FEFF 		bl	__aeabi_dsub
 603              	.LVL30:
 302:Core/Src/main.c ****       uint32_t iteration = 0u;
 604              		.loc 1 302 14 view .LVU170
 605 01b6 0024     		movs	r4, #0
 606 01b8 0025     		movs	r5, #0
 303:Core/Src/main.c ****       while (iteration < max_iter && (xi*xi + yi*yi) <= 4.0)
 607              		.loc 1 303 16 view .LVU171
 608 01ba 0023     		movs	r3, #0
 300:Core/Src/main.c ****       double xi = 0.0;
 609              		.loc 1 300 14 view .LVU172
 610 01bc 0A90     		str	r0, [sp, #40]
 611 01be 0B91     		str	r1, [sp, #44]
 612              	.LVL31:
 301:Core/Src/main.c ****       double yi = 0.0;
 613              		.loc 1 301 7 is_stmt 1 view .LVU173
 302:Core/Src/main.c ****       uint32_t iteration = 0u;
 614              		.loc 1 302 7 view .LVU174
 303:Core/Src/main.c ****       while (iteration < max_iter && (xi*xi + yi*yi) <= 4.0)
 615              		.loc 1 303 7 view .LVU175
 304:Core/Src/main.c ****       {
 616              		.loc 1 304 7 view .LVU176
 304:Core/Src/main.c ****       {
 617              		.loc 1 304 35 view .LVU177
 618 01c0 CB46     		mov	fp, r9
ARM GAS  C:\Users\einom\AppData\Local\Temp\cchSnBA5.s 			page 24


 619 01c2 2000     		movs	r0, r4
 620              	.LVL32:
 304:Core/Src/main.c ****       {
 621              		.loc 1 304 35 is_stmt 0 view .LVU178
 622 01c4 B946     		mov	r9, r7
 623 01c6 2900     		movs	r1, r5
 624 01c8 1F00     		movs	r7, r3
 625              	.LVL33:
 301:Core/Src/main.c ****       double yi = 0.0;
 626              		.loc 1 301 14 view .LVU179
 627 01ca 0494     		str	r4, [sp, #16]
 628 01cc 0595     		str	r5, [sp, #20]
 629 01ce 24E0     		b	.L30
 630              	.LVL34:
 631              	.L32:
 632              	.LBB96:
 306:Core/Src/main.c ****         yi = 2.0*xi*yi + y0;
 633              		.loc 1 306 9 is_stmt 1 view .LVU180
 306:Core/Src/main.c ****         yi = 2.0*xi*yi + y0;
 634              		.loc 1 306 28 is_stmt 0 view .LVU181
 635 01d0 109A     		ldr	r2, [sp, #64]
 636 01d2 119B     		ldr	r3, [sp, #68]
 637 01d4 0898     		ldr	r0, [sp, #32]
 638 01d6 0999     		ldr	r1, [sp, #36]
 639 01d8 FFF7FEFF 		bl	__aeabi_dsub
 640              	.LVL35:
 306:Core/Src/main.c ****         yi = 2.0*xi*yi + y0;
 641              		.loc 1 306 16 view .LVU182
 642 01dc 0A9A     		ldr	r2, [sp, #40]
 643 01de 0B9B     		ldr	r3, [sp, #44]
 644 01e0 FFF7FEFF 		bl	__aeabi_dadd
 645              	.LVL36:
 307:Core/Src/main.c ****         xi = tmp;
 646              		.loc 1 307 9 is_stmt 1 view .LVU183
 306:Core/Src/main.c ****         yi = 2.0*xi*yi + y0;
 647              		.loc 1 306 16 is_stmt 0 view .LVU184
 648 01e4 0890     		str	r0, [sp, #32]
 649 01e6 0991     		str	r1, [sp, #36]
 650              	.LVL37:
 307:Core/Src/main.c ****         xi = tmp;
 651              		.loc 1 307 17 view .LVU185
 652 01e8 0498     		ldr	r0, [sp, #16]
 653 01ea 0599     		ldr	r1, [sp, #20]
 654 01ec 0200     		movs	r2, r0
 655 01ee 0B00     		movs	r3, r1
 656 01f0 FFF7FEFF 		bl	__aeabi_dadd
 657              	.LVL38:
 307:Core/Src/main.c ****         xi = tmp;
 658              		.loc 1 307 20 view .LVU186
 659 01f4 2200     		movs	r2, r4
 660 01f6 2B00     		movs	r3, r5
 661 01f8 FFF7FEFF 		bl	__aeabi_dmul
 662              	.LVL39:
 307:Core/Src/main.c ****         xi = tmp;
 663              		.loc 1 307 12 view .LVU187
 664 01fc 069A     		ldr	r2, [sp, #24]
 665 01fe 079B     		ldr	r3, [sp, #28]
ARM GAS  C:\Users\einom\AppData\Local\Temp\cchSnBA5.s 			page 25


 666 0200 FFF7FEFF 		bl	__aeabi_dadd
 667              	.LVL40:
 309:Core/Src/main.c ****       }
 668              		.loc 1 309 9 view .LVU188
 669 0204 0137     		adds	r7, r7, #1
 670              	.LVL41:
 307:Core/Src/main.c ****         xi = tmp;
 671              		.loc 1 307 12 view .LVU189
 672 0206 0400     		movs	r4, r0
 673              	.LVL42:
 307:Core/Src/main.c ****         xi = tmp;
 674              		.loc 1 307 12 view .LVU190
 675 0208 0D00     		movs	r5, r1
 676              	.LVL43:
 308:Core/Src/main.c ****         ++iteration;
 677              		.loc 1 308 9 is_stmt 1 view .LVU191
 309:Core/Src/main.c ****       }
 678              		.loc 1 309 9 view .LVU192
 309:Core/Src/main.c ****       }
 679              		.loc 1 309 9 is_stmt 0 view .LVU193
 680              	.LBE96:
 304:Core/Src/main.c ****       {
 681              		.loc 1 304 35 is_stmt 1 view .LVU194
 682 020a 642F     		cmp	r7, #100
 683 020c 1FD0     		beq	.L31
 684 020e 089A     		ldr	r2, [sp, #32]
 685 0210 099B     		ldr	r3, [sp, #36]
 686 0212 1000     		movs	r0, r2
 687 0214 1900     		movs	r1, r3
 688 0216 0492     		str	r2, [sp, #16]
 689 0218 0593     		str	r3, [sp, #20]
 690              	.LVL44:
 691              	.L30:
 304:Core/Src/main.c ****       {
 692              		.loc 1 304 41 is_stmt 0 discriminator 1 view .LVU195
 693 021a 0200     		movs	r2, r0
 694 021c 0B00     		movs	r3, r1
 695 021e FFF7FEFF 		bl	__aeabi_dmul
 696              	.LVL45:
 304:Core/Src/main.c ****       {
 697              		.loc 1 304 49 discriminator 1 view .LVU196
 698 0222 2200     		movs	r2, r4
 304:Core/Src/main.c ****       {
 699              		.loc 1 304 41 discriminator 1 view .LVU197
 700 0224 0890     		str	r0, [sp, #32]
 701 0226 0991     		str	r1, [sp, #36]
 304:Core/Src/main.c ****       {
 702              		.loc 1 304 49 discriminator 1 view .LVU198
 703 0228 2B00     		movs	r3, r5
 704 022a 2000     		movs	r0, r4
 705 022c 2900     		movs	r1, r5
 706 022e FFF7FEFF 		bl	__aeabi_dmul
 707              	.LVL46:
 708 0232 0200     		movs	r2, r0
 709 0234 0B00     		movs	r3, r1
 304:Core/Src/main.c ****       {
 710              		.loc 1 304 45 discriminator 1 view .LVU199
ARM GAS  C:\Users\einom\AppData\Local\Temp\cchSnBA5.s 			page 26


 711 0236 0898     		ldr	r0, [sp, #32]
 712 0238 0999     		ldr	r1, [sp, #36]
 304:Core/Src/main.c ****       {
 713              		.loc 1 304 49 discriminator 1 view .LVU200
 714 023a 1092     		str	r2, [sp, #64]
 715 023c 1193     		str	r3, [sp, #68]
 304:Core/Src/main.c ****       {
 716              		.loc 1 304 45 discriminator 1 view .LVU201
 717 023e FFF7FEFF 		bl	__aeabi_dadd
 718              	.LVL47:
 304:Core/Src/main.c ****       {
 719              		.loc 1 304 35 discriminator 1 view .LVU202
 720 0242 0022     		movs	r2, #0
 721 0244 6A4B     		ldr	r3, .L67+108
 722 0246 FFF7FEFF 		bl	__aeabi_dcmple
 723              	.LVL48:
 724 024a 0028     		cmp	r0, #0
 725 024c C0D1     		bne	.L32
 726              	.LVL49:
 727              	.L31:
 311:Core/Src/main.c ****     }
 728              		.loc 1 311 22 view .LVU203
 729 024e 3B00     		movs	r3, r7
 730 0250 4F46     		mov	r7, r9
 731              	.LVL50:
 311:Core/Src/main.c ****     }
 732              		.loc 1 311 22 view .LVU204
 733 0252 D946     		mov	r9, fp
 734              	.LVL51:
 311:Core/Src/main.c ****     }
 735              		.loc 1 311 22 view .LVU205
 736 0254 9B46     		mov	fp, r3
 311:Core/Src/main.c ****     }
 737              		.loc 1 311 7 is_stmt 1 view .LVU206
 738              	.LBE98:
 298:Core/Src/main.c ****     {
 739              		.loc 1 298 37 is_stmt 0 discriminator 2 view .LVU207
 740 0256 029B     		ldr	r3, [sp, #8]
 741              	.LVL52:
 298:Core/Src/main.c ****     {
 742              		.loc 1 298 28 discriminator 1 view .LVU208
 743 0258 009A     		ldr	r2, [sp]
 298:Core/Src/main.c ****     {
 744              		.loc 1 298 37 discriminator 2 view .LVU209
 745 025a 0133     		adds	r3, r3, #1
 746 025c 9BB2     		uxth	r3, r3
 747              	.LBB99:
 311:Core/Src/main.c ****     }
 748              		.loc 1 311 22 view .LVU210
 749 025e 5F44     		add	r7, r7, fp
 750              	.LVL53:
 311:Core/Src/main.c ****     }
 751              		.loc 1 311 22 view .LVU211
 752              	.LBE99:
 298:Core/Src/main.c ****     {
 753              		.loc 1 298 37 is_stmt 1 discriminator 2 view .LVU212
 754 0260 0293     		str	r3, [sp, #8]
ARM GAS  C:\Users\einom\AppData\Local\Temp\cchSnBA5.s 			page 27


 755              	.LVL54:
 298:Core/Src/main.c ****     {
 756              		.loc 1 298 28 discriminator 1 view .LVU213
 757 0262 9342     		cmp	r3, r2
 758 0264 98D1     		bne	.L33
 759              	.LBE101:
 760              	.LBE93:
 295:Core/Src/main.c ****   {
 761              		.loc 1 295 36 is_stmt 0 discriminator 2 view .LVU214
 762 0266 BB46     		mov	fp, r7
 763              	.LVL55:
 295:Core/Src/main.c ****   {
 764              		.loc 1 295 36 discriminator 2 view .LVU215
 765 0268 4F46     		mov	r7, r9
 766              	.LVL56:
 295:Core/Src/main.c ****   {
 767              		.loc 1 295 36 is_stmt 1 discriminator 2 view .LVU216
 768 026a 0137     		adds	r7, r7, #1
 769 026c BFB2     		uxth	r7, r7
 770              	.LVL57:
 295:Core/Src/main.c ****   {
 771              		.loc 1 295 26 discriminator 1 view .LVU217
 772 026e 4745     		cmp	r7, r8
 773 0270 00D1     		bne	.LCB618
 774 0272 84E0     		b	.L64	@long jump
 775              	.LCB618:
 776              	.LBB104:
 297:Core/Src/main.c ****     for (uint16_t x = 0; x < width; ++x)
 777              		.loc 1 297 5 view .LVU218
 297:Core/Src/main.c ****     for (uint16_t x = 0; x < width; ++x)
 778              		.loc 1 297 18 is_stmt 0 view .LVU219
 779 0274 3800     		movs	r0, r7
 780 0276 FFF7FEFF 		bl	__aeabi_ui2d
 781              	.LVL58:
 297:Core/Src/main.c ****     for (uint16_t x = 0; x < width; ++x)
 782              		.loc 1 297 28 view .LVU220
 783 027a 0C9A     		ldr	r2, [sp, #48]
 784 027c 0D9B     		ldr	r3, [sp, #52]
 785 027e FFF7FEFF 		bl	__aeabi_ddiv
 786              	.LVL59:
 297:Core/Src/main.c ****     for (uint16_t x = 0; x < width; ++x)
 787              		.loc 1 297 46 view .LVU221
 788 0282 0200     		movs	r2, r0
 789 0284 0B00     		movs	r3, r1
 790 0286 FFF7FEFF 		bl	__aeabi_dadd
 791              	.LVL60:
 297:Core/Src/main.c ****     for (uint16_t x = 0; x < width; ++x)
 792              		.loc 1 297 12 view .LVU222
 793 028a 0022     		movs	r2, #0
 794 028c 554B     		ldr	r3, .L67+96
 795 028e FFF7FEFF 		bl	__aeabi_dsub
 796              	.LVL61:
 797 0292 0690     		str	r0, [sp, #24]
 798 0294 0791     		str	r1, [sp, #28]
 799              	.LVL62:
 298:Core/Src/main.c ****     {
 800              		.loc 1 298 5 is_stmt 1 view .LVU223
ARM GAS  C:\Users\einom\AppData\Local\Temp\cchSnBA5.s 			page 28


 801              	.LBB102:
 298:Core/Src/main.c ****     {
 802              		.loc 1 298 10 view .LVU224
 298:Core/Src/main.c ****     {
 803              		.loc 1 298 28 discriminator 1 view .LVU225
 804 0296 76E7     		b	.L34
 805              	.LVL63:
 806              	.L8:
 298:Core/Src/main.c ****     {
 807              		.loc 1 298 28 is_stmt 0 discriminator 1 view .LVU226
 808              	.LBE102:
 809              	.LBE104:
 810              	.LBE92:
 811              	.LBE91:
 812              	.LBE90:
 169:Core/Src/main.c ****         } else {
 813              		.loc 1 169 11 is_stmt 1 view .LVU227
 814              	.LBB117:
 815              	.LBI117:
 317:Core/Src/main.c **** {
 816              		.loc 1 317 17 view .LVU228
 817              	.LBB118:
 319:Core/Src/main.c ****   
 818              		.loc 1 319 3 view .LVU229
 322:Core/Src/main.c ****   uint32_t tiles_y = (height + MAX_TILE_SIZE - 1) / MAX_TILE_SIZE;
 819              		.loc 1 322 3 view .LVU230
 323:Core/Src/main.c ****   uint32_t total_tiles = tiles_x * tiles_y;
 820              		.loc 1 323 46 is_stmt 0 view .LVU231
 821 0298 4446     		mov	r4, r8
 822 029a 7F34     		adds	r4, r4, #127
 323:Core/Src/main.c ****   uint32_t total_tiles = tiles_x * tiles_y;
 823              		.loc 1 323 51 view .LVU232
 824 029c E411     		asrs	r4, r4, #7
 324:Core/Src/main.c ****   
 825              		.loc 1 324 12 view .LVU233
 826 029e 2300     		movs	r3, r4
 322:Core/Src/main.c ****   uint32_t tiles_y = (height + MAX_TILE_SIZE - 1) / MAX_TILE_SIZE;
 827              		.loc 1 322 45 view .LVU234
 828 02a0 009E     		ldr	r6, [sp]
 327:Core/Src/main.c ****   g_num_tiles_y = tiles_y;
 829              		.loc 1 327 17 view .LVU235
 830 02a2 1C9A     		ldr	r2, [sp, #112]
 322:Core/Src/main.c ****   uint32_t tiles_y = (height + MAX_TILE_SIZE - 1) / MAX_TILE_SIZE;
 831              		.loc 1 322 45 view .LVU236
 832 02a4 7F36     		adds	r6, r6, #127
 322:Core/Src/main.c ****   uint32_t tiles_y = (height + MAX_TILE_SIZE - 1) / MAX_TILE_SIZE;
 833              		.loc 1 322 50 view .LVU237
 834 02a6 F011     		asrs	r0, r6, #7
 835              	.LVL64:
 323:Core/Src/main.c ****   uint32_t total_tiles = tiles_x * tiles_y;
 836              		.loc 1 323 3 is_stmt 1 view .LVU238
 324:Core/Src/main.c ****   
 837              		.loc 1 324 3 view .LVU239
 327:Core/Src/main.c ****   g_num_tiles_y = tiles_y;
 838              		.loc 1 327 17 is_stmt 0 view .LVU240
 839 02a8 1060     		str	r0, [r2]
 324:Core/Src/main.c ****   
ARM GAS  C:\Users\einom\AppData\Local\Temp\cchSnBA5.s 			page 29


 840              		.loc 1 324 12 view .LVU241
 841 02aa 4343     		muls	r3, r0
 842              	.LVL65:
 327:Core/Src/main.c ****   g_num_tiles_y = tiles_y;
 843              		.loc 1 327 3 is_stmt 1 view .LVU242
 328:Core/Src/main.c ****   g_total_tiles = total_tiles;
 844              		.loc 1 328 3 view .LVU243
 328:Core/Src/main.c ****   g_total_tiles = total_tiles;
 845              		.loc 1 328 17 is_stmt 0 view .LVU244
 846 02ac 199A     		ldr	r2, [sp, #100]
 847 02ae 1460     		str	r4, [r2]
 329:Core/Src/main.c ****   
 848              		.loc 1 329 3 is_stmt 1 view .LVU245
 329:Core/Src/main.c ****   
 849              		.loc 1 329 17 is_stmt 0 view .LVU246
 850 02b0 1A9A     		ldr	r2, [sp, #104]
 851 02b2 1360     		str	r3, [r2]
 331:Core/Src/main.c ****   
 852              		.loc 1 331 3 is_stmt 1 view .LVU247
 334:Core/Src/main.c ****   {
 853              		.loc 1 334 3 view .LVU248
 854              	.LBB119:
 334:Core/Src/main.c ****   {
 855              		.loc 1 334 8 view .LVU249
 856              	.LVL66:
 334:Core/Src/main.c ****   {
 857              		.loc 1 334 36 discriminator 1 view .LVU250
 858 02b4 002C     		cmp	r4, #0
 859 02b6 00D0     		beq	.LCB705
 860 02b8 F4E0     		b	.L38	@long jump
 861              	.LCB705:
 862              	.LVL67:
 863              	.L11:
 334:Core/Src/main.c ****   {
 864              		.loc 1 334 36 is_stmt 0 discriminator 1 view .LVU251
 865              	.LBE119:
 866              	.LBE118:
 867              	.LBE117:
 169:Core/Src/main.c ****         } else {
 868              		.loc 1 169 29 view .LVU252
 869 02ba 0023     		movs	r3, #0
 870 02bc 9B46     		mov	fp, r3
 871              	.L28:
 872              	.LVL68:
 174:Core/Src/main.c ****         uint32_t elapsed_ms = end_ms - start_ms;
 873              		.loc 1 174 9 is_stmt 1 view .LVU253
 174:Core/Src/main.c ****         uint32_t elapsed_ms = end_ms - start_ms;
 874              		.loc 1 174 27 is_stmt 0 view .LVU254
 875 02be FFF7FEFF 		bl	HAL_GetTick
 876              	.LVL69:
 175:Core/Src/main.c ****         
 877              		.loc 1 175 9 is_stmt 1 view .LVU255
 878              	.LBB167:
 879              	.LBB168:
 387:Core/Src/main.c **** }
 880              		.loc 1 387 40 is_stmt 0 view .LVU256
 881 02c2 FA21     		movs	r1, #250
ARM GAS  C:\Users\einom\AppData\Local\Temp\cchSnBA5.s 			page 30


 882              	.LBE168:
 883              	.LBE167:
 175:Core/Src/main.c ****         
 884              		.loc 1 175 18 view .LVU257
 885 02c4 1E9B     		ldr	r3, [sp, #120]
 886              	.LBB171:
 887              	.LBB169:
 387:Core/Src/main.c **** }
 888              		.loc 1 387 40 view .LVU258
 889 02c6 8900     		lsls	r1, r1, #2
 890              	.LBE169:
 891              	.LBE171:
 175:Core/Src/main.c ****         
 892              		.loc 1 175 18 view .LVU259
 893 02c8 C41A     		subs	r4, r0, r3
 894              	.LVL70:
 178:Core/Src/main.c ****         double elapsed_seconds = (double)elapsed_ms / 1000.0;
 895              		.loc 1 178 9 is_stmt 1 view .LVU260
 896              	.LBB172:
 897              	.LBI167:
 383:Core/Src/main.c **** {
 898              		.loc 1 383 17 view .LVU261
 899              	.LBB170:
 387:Core/Src/main.c **** }
 900              		.loc 1 387 3 view .LVU262
 387:Core/Src/main.c **** }
 901              		.loc 1 387 40 is_stmt 0 view .LVU263
 902 02ca 209B     		ldr	r3, [sp, #128]
 903 02cc 1868     		ldr	r0, [r3]
 904              	.LVL71:
 387:Core/Src/main.c **** }
 905              		.loc 1 387 40 view .LVU264
 906 02ce FFF7FEFF 		bl	__aeabi_uidiv
 907              	.LVL72:
 387:Core/Src/main.c **** }
 908              		.loc 1 387 21 view .LVU265
 909 02d2 6043     		muls	r0, r4
 910 02d4 8146     		mov	r9, r0
 911              	.LVL73:
 387:Core/Src/main.c **** }
 912              		.loc 1 387 21 view .LVU266
 913              	.LBE170:
 914              	.LBE172:
 179:Core/Src/main.c ****         double total_pixels = (double)w * (double)h;
 915              		.loc 1 179 9 is_stmt 1 view .LVU267
 179:Core/Src/main.c ****         double total_pixels = (double)w * (double)h;
 916              		.loc 1 179 34 is_stmt 0 view .LVU268
 917 02d6 2000     		movs	r0, r4
 918              	.LVL74:
 179:Core/Src/main.c ****         double total_pixels = (double)w * (double)h;
 919              		.loc 1 179 34 view .LVU269
 920 02d8 FFF7FEFF 		bl	__aeabi_ui2d
 921              	.LVL75:
 922 02dc 0600     		movs	r6, r0
 180:Core/Src/main.c ****         double throughput = total_pixels / elapsed_seconds;
 923              		.loc 1 180 31 view .LVU270
 924 02de 0098     		ldr	r0, [sp]
ARM GAS  C:\Users\einom\AppData\Local\Temp\cchSnBA5.s 			page 31


 179:Core/Src/main.c ****         double total_pixels = (double)w * (double)h;
 925              		.loc 1 179 34 view .LVU271
 926 02e0 0F00     		movs	r7, r1
 927              	.LVL76:
 180:Core/Src/main.c ****         double throughput = total_pixels / elapsed_seconds;
 928              		.loc 1 180 9 is_stmt 1 view .LVU272
 181:Core/Src/main.c **** 
 929              		.loc 1 181 9 view .LVU273
 180:Core/Src/main.c ****         double throughput = total_pixels / elapsed_seconds;
 930              		.loc 1 180 31 is_stmt 0 view .LVU274
 931 02e2 FFF7FEFF 		bl	__aeabi_ui2d
 932              	.LVL77:
 933 02e6 0090     		str	r0, [sp]
 934 02e8 0191     		str	r1, [sp, #4]
 935              	.LVL78:
 180:Core/Src/main.c ****         double throughput = total_pixels / elapsed_seconds;
 936              		.loc 1 180 43 view .LVU275
 937 02ea 4046     		mov	r0, r8
 938 02ec FFF7FEFF 		bl	__aeabi_ui2d
 939              	.LVL79:
 940 02f0 0200     		movs	r2, r0
 941 02f2 0B00     		movs	r3, r1
 180:Core/Src/main.c ****         double throughput = total_pixels / elapsed_seconds;
 942              		.loc 1 180 16 view .LVU276
 943 02f4 0098     		ldr	r0, [sp]
 944 02f6 0199     		ldr	r1, [sp, #4]
 945 02f8 FFF7FEFF 		bl	__aeabi_dmul
 946              	.LVL80:
 179:Core/Src/main.c ****         double total_pixels = (double)w * (double)h;
 947              		.loc 1 179 16 view .LVU277
 948 02fc 0022     		movs	r2, #0
 180:Core/Src/main.c ****         double throughput = total_pixels / elapsed_seconds;
 949              		.loc 1 180 16 view .LVU278
 950 02fe 0090     		str	r0, [sp]
 951 0300 0191     		str	r1, [sp, #4]
 179:Core/Src/main.c ****         double total_pixels = (double)w * (double)h;
 952              		.loc 1 179 16 view .LVU279
 953 0302 3C4B     		ldr	r3, .L67+112
 954 0304 3000     		movs	r0, r6
 955 0306 3900     		movs	r1, r7
 956 0308 FFF7FEFF 		bl	__aeabi_ddiv
 957              	.LVL81:
 958 030c 0200     		movs	r2, r0
 959 030e 0B00     		movs	r3, r1
 181:Core/Src/main.c **** 
 960              		.loc 1 181 16 view .LVU280
 961 0310 0098     		ldr	r0, [sp]
 962 0312 0199     		ldr	r1, [sp, #4]
 963 0314 FFF7FEFF 		bl	__aeabi_ddiv
 964              	.LVL82:
 965 0318 0300     		movs	r3, r0
 184:Core/Src/main.c ****         g_current_checksum = result_checksum;
 966              		.loc 1 184 26 view .LVU281
 967 031a 4846     		mov	r0, r9
 181:Core/Src/main.c **** 
 968              		.loc 1 181 16 view .LVU282
 969 031c 0C00     		movs	r4, r1
ARM GAS  C:\Users\einom\AppData\Local\Temp\cchSnBA5.s 			page 32


 970              	.LVL83:
 184:Core/Src/main.c ****         g_current_checksum = result_checksum;
 971              		.loc 1 184 9 is_stmt 1 view .LVU283
 184:Core/Src/main.c ****         g_current_checksum = result_checksum;
 972              		.loc 1 184 26 is_stmt 0 view .LVU284
 973 031e 2199     		ldr	r1, [sp, #132]
 187:Core/Src/main.c **** 
 974              		.loc 1 187 30 view .LVU285
 975 0320 0093     		str	r3, [sp]
 976 0322 0194     		str	r4, [sp, #4]
 184:Core/Src/main.c ****         g_current_checksum = result_checksum;
 977              		.loc 1 184 26 view .LVU286
 978 0324 0860     		str	r0, [r1]
 185:Core/Src/main.c ****         g_current_execution_time = (double)elapsed_ms;
 979              		.loc 1 185 9 is_stmt 1 view .LVU287
 185:Core/Src/main.c ****         g_current_execution_time = (double)elapsed_ms;
 980              		.loc 1 185 28 is_stmt 0 view .LVU288
 981 0326 5846     		mov	r0, fp
 982 0328 2299     		ldr	r1, [sp, #136]
 192:Core/Src/main.c ****         throughput_pps[size_index] = throughput;
 983              		.loc 1 192 32 view .LVU289
 984 032a 4A46     		mov	r2, r9
 185:Core/Src/main.c ****         g_current_execution_time = (double)elapsed_ms;
 985              		.loc 1 185 28 view .LVU290
 986 032c 0860     		str	r0, [r1]
 186:Core/Src/main.c ****         g_current_throughput = throughput;
 987              		.loc 1 186 9 is_stmt 1 view .LVU291
 186:Core/Src/main.c ****         g_current_throughput = throughput;
 988              		.loc 1 186 34 is_stmt 0 view .LVU292
 989 032e 2399     		ldr	r1, [sp, #140]
 990 0330 0E60     		str	r6, [r1]
 991 0332 4F60     		str	r7, [r1, #4]
 187:Core/Src/main.c **** 
 992              		.loc 1 187 9 is_stmt 1 view .LVU293
 187:Core/Src/main.c **** 
 993              		.loc 1 187 30 is_stmt 0 view .LVU294
 994 0334 2499     		ldr	r1, [sp, #144]
 995 0336 0B60     		str	r3, [r1]
 996 0338 4C60     		str	r4, [r1, #4]
 190:Core/Src/main.c ****         execution_time_ms[size_index] = (double)elapsed_ms;
 997              		.loc 1 190 9 is_stmt 1 view .LVU295
 190:Core/Src/main.c ****         execution_time_ms[size_index] = (double)elapsed_ms;
 998              		.loc 1 190 30 is_stmt 0 view .LVU296
 999 033a 5B46     		mov	r3, fp
 1000              	.LVL84:
 190:Core/Src/main.c ****         execution_time_ms[size_index] = (double)elapsed_ms;
 1001              		.loc 1 190 30 view .LVU297
 1002 033c 1299     		ldr	r1, [sp, #72]
 1003 033e 259C     		ldr	r4, [sp, #148]
 1004 0340 8800     		lsls	r0, r1, #2
 1005 0342 2350     		str	r3, [r4, r0]
 191:Core/Src/main.c ****         cpu_cycles[size_index] = estimated_cycles;
 1006              		.loc 1 191 9 is_stmt 1 view .LVU298
 191:Core/Src/main.c ****         cpu_cycles[size_index] = estimated_cycles;
 1007              		.loc 1 191 39 is_stmt 0 view .LVU299
 1008 0344 C900     		lsls	r1, r1, #3
 192:Core/Src/main.c ****         throughput_pps[size_index] = throughput;
ARM GAS  C:\Users\einom\AppData\Local\Temp\cchSnBA5.s 			page 33


 1009              		.loc 1 192 32 view .LVU300
 1010 0346 2C9B     		ldr	r3, [sp, #176]
 191:Core/Src/main.c ****         cpu_cycles[size_index] = estimated_cycles;
 1011              		.loc 1 191 39 view .LVU301
 1012 0348 6C18     		adds	r4, r5, r1
 1013 034a 2660     		str	r6, [r4]
 1014 034c 6760     		str	r7, [r4, #4]
 192:Core/Src/main.c ****         throughput_pps[size_index] = throughput;
 1015              		.loc 1 192 9 is_stmt 1 view .LVU302
 192:Core/Src/main.c ****         throughput_pps[size_index] = throughput;
 1016              		.loc 1 192 32 is_stmt 0 view .LVU303
 1017 034e 1A50     		str	r2, [r3, r0]
 193:Core/Src/main.c ****       }
 1018              		.loc 1 193 9 is_stmt 1 view .LVU304
 193:Core/Src/main.c ****       }
 1019              		.loc 1 193 36 is_stmt 0 view .LVU305
 1020 0350 2D9B     		ldr	r3, [sp, #180]
 1021 0352 9C46     		mov	ip, r3
 1022 0354 009B     		ldr	r3, [sp]
 1023 0356 019C     		ldr	r4, [sp, #4]
 1024 0358 6144     		add	r1, r1, ip
 1025 035a 0B60     		str	r3, [r1]
 1026 035c 4C60     		str	r4, [r1, #4]
 1027              	.LBE89:
 157:Core/Src/main.c ****       {
 1028              		.loc 1 157 67 is_stmt 1 discriminator 2 view .LVU306
 1029 035e 1299     		ldr	r1, [sp, #72]
 1030 0360 0131     		adds	r1, r1, #1
 1031 0362 1291     		str	r1, [sp, #72]
 1032              	.LVL85:
 157:Core/Src/main.c ****       {
 1033              		.loc 1 157 48 discriminator 1 view .LVU307
 1034 0364 189B     		ldr	r3, [sp, #96]
 1035 0366 179A     		ldr	r2, [sp, #92]
 1036 0368 0233     		adds	r3, r3, #2
 1037 036a 0232     		adds	r2, r2, #2
 1038 036c 1893     		str	r3, [sp, #96]
 1039 036e 1792     		str	r2, [sp, #92]
 1040 0370 0529     		cmp	r1, #5
 1041 0372 41D0     		beq	.L35
 1042              	.LBB182:
 159:Core/Src/main.c ****         uint16_t h = kHeights[size_index];
 1043              		.loc 1 159 18 is_stmt 0 view .LVU308
 1044 0374 1B88     		ldrh	r3, [r3]
 1045 0376 0093     		str	r3, [sp]
 1046              	.LVL86:
 160:Core/Src/main.c ****         g_current_width = (uint32_t)w;
 1047              		.loc 1 160 18 view .LVU309
 1048 0378 1388     		ldrh	r3, [r2]
 1049 037a 9846     		mov	r8, r3
 1050 037c D2E6     		b	.L36
 1051              	.LVL87:
 1052              	.L64:
 160:Core/Src/main.c ****         g_current_width = (uint32_t)w;
 1053              		.loc 1 160 18 view .LVU310
 1054 037e 3500     		movs	r5, r6
 1055 0380 9DE7     		b	.L28
ARM GAS  C:\Users\einom\AppData\Local\Temp\cchSnBA5.s 			page 34


 1056              	.L68:
 1057 0382 C046     		.align	2
 1058              	.L67:
 1059 0384 00100240 		.word	1073876992
 1060 0388 00040048 		.word	1207960576
 1061 038c 00000000 		.word	g_total_program_cycles
 1062 0390 00000000 		.word	g_total_program_time_ms
 1063 0394 00000000 		.word	g_total_time_sum
 1064 0398 00000000 		.word	g_test_counter
 1065 039c 00000000 		.word	g_simple_test
 1066 03a0 00000000 		.word	kWidths
 1067 03a4 00000000 		.word	kHeights
 1068 03a8 00000000 		.word	g_current_width
 1069 03ac 00000000 		.word	g_current_height
 1070 03b0 00000000 		.word	g_num_tiles_x
 1071 03b4 00000000 		.word	g_num_tiles_y
 1072 03b8 00000000 		.word	g_total_tiles
 1073 03bc 00000000 		.word	g_current_tile
 1074 03c0 00000000 		.word	SystemCoreClock
 1075 03c4 00000000 		.word	g_current_cycles
 1076 03c8 00000000 		.word	g_current_checksum
 1077 03cc 00000000 		.word	g_current_execution_time
 1078 03d0 00000000 		.word	g_current_throughput
 1079 03d4 00000000 		.word	checksum
 1080 03d8 00000000 		.word	execution_time_ms
 1081 03dc 00000000 		.word	cpu_cycles
 1082 03e0 00000000 		.word	throughput_pps
 1083 03e4 0000F03F 		.word	1072693248
 1084 03e8 00000C40 		.word	1074528256
 1085 03ec 00000440 		.word	1074003968
 1086 03f0 00001040 		.word	1074790400
 1087 03f4 00408F40 		.word	1083129856
 1088              	.LVL88:
 1089              	.L35:
 160:Core/Src/main.c ****         g_current_width = (uint32_t)w;
 1090              		.loc 1 160 18 view .LVU311
 1091              	.LBE182:
 1092              	.LBE185:
 197:Core/Src/main.c ****       uint32_t total_elapsed_ms = program_end_ms - program_start_ms;
 1093              		.loc 1 197 33 view .LVU312
 1094 03f8 2E9F     		ldr	r7, [sp, #184]
 1095 03fa 2F9E     		ldr	r6, [sp, #188]
 1096              	.LVL89:
 197:Core/Src/main.c ****       uint32_t total_elapsed_ms = program_end_ms - program_start_ms;
 1097              		.loc 1 197 7 is_stmt 1 view .LVU313
 197:Core/Src/main.c ****       uint32_t total_elapsed_ms = program_end_ms - program_start_ms;
 1098              		.loc 1 197 33 is_stmt 0 view .LVU314
 1099 03fc FFF7FEFF 		bl	HAL_GetTick
 1100              	.LVL90:
 198:Core/Src/main.c ****       g_total_program_time_ms = (double)total_elapsed_ms;
 1101              		.loc 1 198 7 is_stmt 1 view .LVU315
 198:Core/Src/main.c ****       g_total_program_time_ms = (double)total_elapsed_ms;
 1102              		.loc 1 198 16 is_stmt 0 view .LVU316
 1103 0400 C71B     		subs	r7, r0, r7
 1104              	.LVL91:
 199:Core/Src/main.c ****       
 1105              		.loc 1 199 7 is_stmt 1 view .LVU317
ARM GAS  C:\Users\einom\AppData\Local\Temp\cchSnBA5.s 			page 35


 199:Core/Src/main.c ****       
 1106              		.loc 1 199 33 is_stmt 0 view .LVU318
 1107 0402 3800     		movs	r0, r7
 1108              	.LVL92:
 199:Core/Src/main.c ****       
 1109              		.loc 1 199 33 view .LVU319
 1110 0404 FFF7FEFF 		bl	__aeabi_ui2d
 1111              	.LVL93:
 1112 0408 5346     		mov	r3, r10
 197:Core/Src/main.c ****       uint32_t total_elapsed_ms = program_end_ms - program_start_ms;
 1113              		.loc 1 197 33 view .LVU320
 1114 040a A846     		mov	r8, r5
 199:Core/Src/main.c ****       
 1115              		.loc 1 199 33 view .LVU321
 1116 040c 1860     		str	r0, [r3]
 1117 040e 5960     		str	r1, [r3, #4]
 202:Core/Src/main.c ****       for (uint32_t i = 0; i < kNumResolutions; ++i) {
 1118              		.loc 1 202 7 is_stmt 1 view .LVU322
 203:Core/Src/main.c ****         g_total_time_sum += execution_time_ms[i];
 1119              		.loc 1 203 7 view .LVU323
 1120              	.LBB186:
 203:Core/Src/main.c ****         g_total_time_sum += execution_time_ms[i];
 1121              		.loc 1 203 12 view .LVU324
 1122              	.LVL94:
 203:Core/Src/main.c ****         g_total_time_sum += execution_time_ms[i];
 1123              		.loc 1 203 30 discriminator 1 view .LVU325
 204:Core/Src/main.c ****       }
 1124              		.loc 1 204 9 view .LVU326
 204:Core/Src/main.c ****       }
 1125              		.loc 1 204 46 is_stmt 0 view .LVU327
 1126 0410 2868     		ldr	r0, [r5]
 1127 0412 6968     		ldr	r1, [r5, #4]
 203:Core/Src/main.c ****         g_total_time_sum += execution_time_ms[i];
 1128              		.loc 1 203 49 is_stmt 1 discriminator 3 view .LVU328
 1129              	.LVL95:
 203:Core/Src/main.c ****         g_total_time_sum += execution_time_ms[i];
 1130              		.loc 1 203 30 discriminator 1 view .LVU329
 204:Core/Src/main.c ****       }
 1131              		.loc 1 204 9 view .LVU330
 204:Core/Src/main.c ****       }
 1132              		.loc 1 204 46 is_stmt 0 view .LVU331
 1133 0414 2B00     		movs	r3, r5
 1134 0416 AC68     		ldr	r4, [r5, #8]
 1135 0418 ED68     		ldr	r5, [r5, #12]
 203:Core/Src/main.c ****         g_total_time_sum += execution_time_ms[i];
 1136              		.loc 1 203 49 is_stmt 1 discriminator 3 view .LVU332
 1137              	.LVL96:
 203:Core/Src/main.c ****         g_total_time_sum += execution_time_ms[i];
 1138              		.loc 1 203 30 discriminator 1 view .LVU333
 204:Core/Src/main.c ****       }
 1139              		.loc 1 204 9 view .LVU334
 203:Core/Src/main.c ****         g_total_time_sum += execution_time_ms[i];
 1140              		.loc 1 203 49 discriminator 3 view .LVU335
 203:Core/Src/main.c ****         g_total_time_sum += execution_time_ms[i];
 1141              		.loc 1 203 30 discriminator 1 view .LVU336
 204:Core/Src/main.c ****       }
 1142              		.loc 1 204 9 view .LVU337
ARM GAS  C:\Users\einom\AppData\Local\Temp\cchSnBA5.s 			page 36


 203:Core/Src/main.c ****         g_total_time_sum += execution_time_ms[i];
 1143              		.loc 1 203 49 discriminator 3 view .LVU338
 203:Core/Src/main.c ****         g_total_time_sum += execution_time_ms[i];
 1144              		.loc 1 203 30 discriminator 1 view .LVU339
 204:Core/Src/main.c ****       }
 1145              		.loc 1 204 9 view .LVU340
 204:Core/Src/main.c ****       }
 1146              		.loc 1 204 46 is_stmt 0 view .LVU341
 1147 041a 1A69     		ldr	r2, [r3, #16]
 1148 041c 5B69     		ldr	r3, [r3, #20]
 1149 041e 0092     		str	r2, [sp]
 1150 0420 0193     		str	r3, [sp, #4]
 1151              	.LVL97:
 204:Core/Src/main.c ****       }
 1152              		.loc 1 204 46 view .LVU342
 1153 0422 4346     		mov	r3, r8
 1154 0424 9A69     		ldr	r2, [r3, #24]
 1155 0426 DB69     		ldr	r3, [r3, #28]
 1156 0428 0292     		str	r2, [sp, #8]
 1157 042a 0393     		str	r3, [sp, #12]
 1158 042c 4346     		mov	r3, r8
 1159 042e 1A6A     		ldr	r2, [r3, #32]
 1160 0430 5B6A     		ldr	r3, [r3, #36]
 1161 0432 0492     		str	r2, [sp, #16]
 1162 0434 0593     		str	r3, [sp, #20]
 204:Core/Src/main.c ****       }
 1163              		.loc 1 204 26 view .LVU343
 1164 0436 0022     		movs	r2, #0
 1165 0438 0023     		movs	r3, #0
 1166 043a FFF7FEFF 		bl	__aeabi_dadd
 1167              	.LVL98:
 1168 043e 2200     		movs	r2, r4
 1169 0440 2B00     		movs	r3, r5
 1170 0442 FFF7FEFF 		bl	__aeabi_dadd
 1171              	.LVL99:
 1172 0446 009A     		ldr	r2, [sp]
 1173 0448 019B     		ldr	r3, [sp, #4]
 1174 044a FFF7FEFF 		bl	__aeabi_dadd
 1175              	.LVL100:
 1176 044e 029A     		ldr	r2, [sp, #8]
 1177 0450 039B     		ldr	r3, [sp, #12]
 1178 0452 FFF7FEFF 		bl	__aeabi_dadd
 1179              	.LVL101:
 1180 0456 049A     		ldr	r2, [sp, #16]
 1181 0458 059B     		ldr	r3, [sp, #20]
 1182 045a FFF7FEFF 		bl	__aeabi_dadd
 1183              	.LVL102:
 1184 045e 269B     		ldr	r3, [sp, #152]
 1185              	.LBE186:
 211:Core/Src/main.c ****       HAL_Delay(2000);
 1186              		.loc 1 211 7 view .LVU344
 1187 0460 0122     		movs	r2, #1
 1188              	.LBB187:
 204:Core/Src/main.c ****       }
 1189              		.loc 1 204 26 view .LVU345
 1190 0462 1860     		str	r0, [r3]
 1191 0464 5960     		str	r1, [r3, #4]
ARM GAS  C:\Users\einom\AppData\Local\Temp\cchSnBA5.s 			page 37


 203:Core/Src/main.c ****         g_total_time_sum += execution_time_ms[i];
 1192              		.loc 1 203 49 is_stmt 1 discriminator 3 view .LVU346
 1193              	.LVL103:
 203:Core/Src/main.c ****         g_total_time_sum += execution_time_ms[i];
 1194              		.loc 1 203 30 discriminator 1 view .LVU347
 1195              	.LBE187:
 208:Core/Src/main.c **** 
 1196              		.loc 1 208 7 view .LVU348
 211:Core/Src/main.c ****       HAL_Delay(2000);
 1197              		.loc 1 211 7 is_stmt 0 view .LVU349
 1198 0466 0221     		movs	r1, #2
 1199 0468 A248     		ldr	r0, .L69
 208:Core/Src/main.c **** 
 1200              		.loc 1 208 30 view .LVU350
 1201 046a 3760     		str	r7, [r6]
 211:Core/Src/main.c ****       HAL_Delay(2000);
 1202              		.loc 1 211 7 is_stmt 1 view .LVU351
 1203 046c FFF7FEFF 		bl	HAL_GPIO_WritePin
 1204              	.LVL104:
 212:Core/Src/main.c ****       HAL_GPIO_WritePin(GPIOB, GPIO_PIN_0 | GPIO_PIN_1, GPIO_PIN_RESET);
 1205              		.loc 1 212 7 view .LVU352
 1206 0470 FA20     		movs	r0, #250
 1207 0472 C000     		lsls	r0, r0, #3
 1208 0474 FFF7FEFF 		bl	HAL_Delay
 1209              	.LVL105:
 213:Core/Src/main.c ****   }
 1210              		.loc 1 213 7 view .LVU353
 1211 0478 0022     		movs	r2, #0
 1212 047a 0321     		movs	r1, #3
 1213 047c 9D48     		ldr	r0, .L69
 1214 047e FFF7FEFF 		bl	HAL_GPIO_WritePin
 1215              	.LVL106:
 1216              	.LBE87:
 141:Core/Src/main.c ****   {
 1217              		.loc 1 141 9 view .LVU354
 1218              	.LBB189:
 147:Core/Src/main.c ****       g_simple_test++;
 1219              		.loc 1 147 21 is_stmt 0 view .LVU355
 1220 0482 1B9B     		ldr	r3, [sp, #108]
 1221 0484 1B68     		ldr	r3, [r3]
 1222              	.LBE189:
 142:Core/Src/main.c ****     /* USER CODE END WHILE */
 1223              		.loc 1 142 3 view .LVU356
 1224 0486 31E6     		b	.L37
 1225              	.LVL107:
 1226              	.L9:
 1227              	.LBB190:
 1228              	.LBB188:
 1229              	.LBB183:
 169:Core/Src/main.c ****         } else {
 1230              		.loc 1 169 11 is_stmt 1 view .LVU357
 1231              	.LBB173:
 317:Core/Src/main.c **** {
 1232              		.loc 1 317 17 view .LVU358
 1233              	.LBB162:
 319:Core/Src/main.c ****   
 1234              		.loc 1 319 3 view .LVU359
ARM GAS  C:\Users\einom\AppData\Local\Temp\cchSnBA5.s 			page 38


 322:Core/Src/main.c ****   uint32_t tiles_y = (height + MAX_TILE_SIZE - 1) / MAX_TILE_SIZE;
 1235              		.loc 1 322 3 view .LVU360
 323:Core/Src/main.c ****   uint32_t total_tiles = tiles_x * tiles_y;
 1236              		.loc 1 323 46 is_stmt 0 view .LVU361
 1237 0488 4446     		mov	r4, r8
 322:Core/Src/main.c ****   uint32_t tiles_y = (height + MAX_TILE_SIZE - 1) / MAX_TILE_SIZE;
 1238              		.loc 1 322 45 view .LVU362
 1239 048a 009E     		ldr	r6, [sp]
 327:Core/Src/main.c ****   g_num_tiles_y = tiles_y;
 1240              		.loc 1 327 17 view .LVU363
 1241 048c 1C9A     		ldr	r2, [sp, #112]
 322:Core/Src/main.c ****   uint32_t tiles_y = (height + MAX_TILE_SIZE - 1) / MAX_TILE_SIZE;
 1242              		.loc 1 322 45 view .LVU364
 1243 048e 7F36     		adds	r6, r6, #127
 322:Core/Src/main.c ****   uint32_t tiles_y = (height + MAX_TILE_SIZE - 1) / MAX_TILE_SIZE;
 1244              		.loc 1 322 50 view .LVU365
 1245 0490 F011     		asrs	r0, r6, #7
 1246              	.LVL108:
 323:Core/Src/main.c ****   uint32_t total_tiles = tiles_x * tiles_y;
 1247              		.loc 1 323 3 is_stmt 1 view .LVU366
 327:Core/Src/main.c ****   g_num_tiles_y = tiles_y;
 1248              		.loc 1 327 17 is_stmt 0 view .LVU367
 1249 0492 1060     		str	r0, [r2]
 323:Core/Src/main.c ****   uint32_t total_tiles = tiles_x * tiles_y;
 1250              		.loc 1 323 46 view .LVU368
 1251 0494 7F34     		adds	r4, r4, #127
 328:Core/Src/main.c ****   g_total_tiles = total_tiles;
 1252              		.loc 1 328 17 view .LVU369
 1253 0496 199A     		ldr	r2, [sp, #100]
 323:Core/Src/main.c ****   uint32_t total_tiles = tiles_x * tiles_y;
 1254              		.loc 1 323 51 view .LVU370
 1255 0498 E411     		asrs	r4, r4, #7
 1256              	.LVL109:
 324:Core/Src/main.c ****   
 1257              		.loc 1 324 3 is_stmt 1 view .LVU371
 328:Core/Src/main.c ****   g_total_tiles = total_tiles;
 1258              		.loc 1 328 17 is_stmt 0 view .LVU372
 1259 049a 1460     		str	r4, [r2]
 324:Core/Src/main.c ****   
 1260              		.loc 1 324 12 view .LVU373
 1261 049c 4342     		rsbs	r3, r0, #0
 329:Core/Src/main.c ****   
 1262              		.loc 1 329 17 view .LVU374
 1263 049e 1A9A     		ldr	r2, [sp, #104]
 324:Core/Src/main.c ****   
 1264              		.loc 1 324 12 view .LVU375
 1265 04a0 2340     		ands	r3, r4
 1266              	.LVL110:
 327:Core/Src/main.c ****   g_num_tiles_y = tiles_y;
 1267              		.loc 1 327 3 is_stmt 1 view .LVU376
 328:Core/Src/main.c ****   g_total_tiles = total_tiles;
 1268              		.loc 1 328 3 view .LVU377
 329:Core/Src/main.c ****   
 1269              		.loc 1 329 3 view .LVU378
 329:Core/Src/main.c ****   
 1270              		.loc 1 329 17 is_stmt 0 view .LVU379
 1271 04a2 1360     		str	r3, [r2]
ARM GAS  C:\Users\einom\AppData\Local\Temp\cchSnBA5.s 			page 39


 331:Core/Src/main.c ****   
 1272              		.loc 1 331 3 is_stmt 1 view .LVU380
 334:Core/Src/main.c ****   {
 1273              		.loc 1 334 3 view .LVU381
 1274              	.LBB157:
 334:Core/Src/main.c ****   {
 1275              		.loc 1 334 8 view .LVU382
 1276              	.LVL111:
 334:Core/Src/main.c ****   {
 1277              		.loc 1 334 36 discriminator 1 view .LVU383
 1278              	.L38:
 1279              	.LBB120:
 336:Core/Src/main.c ****     {
 1280              		.loc 1 336 38 is_stmt 0 discriminator 1 view .LVU384
 1281 04a4 0021     		movs	r1, #0
 1282 04a6 431C     		adds	r3, r0, #1
 1283 04a8 0E93     		str	r3, [sp, #56]
 1284              	.LBB121:
 1285              	.LBB122:
 1286              	.LBB123:
 1287              	.LBB124:
 1288              	.LBB125:
 357:Core/Src/main.c ****           double yi = 0.0;
 1289              		.loc 1 357 18 view .LVU385
 1290 04aa 0022     		movs	r2, #0
 1291              	.LBE125:
 1292              	.LBE124:
 1293              	.LBE123:
 1294              	.LBE122:
 1295              	.LBE121:
 1296              	.LBE120:
 334:Core/Src/main.c ****   {
 1297              		.loc 1 334 17 view .LVU386
 1298 04ac 0023     		movs	r3, #0
 1299              	.LVL112:
 1300              	.LBB151:
 336:Core/Src/main.c ****     {
 1301              		.loc 1 336 38 is_stmt 1 discriminator 1 view .LVU387
 1302 04ae 8B46     		mov	fp, r1
 1303 04b0 0028     		cmp	r0, #0
 1304 04b2 00D1     		bne	.LCB1139
 1305 04b4 15E1     		b	.L60	@long jump
 1306              	.LCB1139:
 336:Core/Src/main.c ****     {
 1307              		.loc 1 336 38 is_stmt 0 discriminator 1 view .LVU388
 1308 04b6 A146     		mov	r9, r4
 1309 04b8 4746     		mov	r7, r8
 1310 04ba 3095     		str	r5, [sp, #192]
 1311 04bc 1600     		movs	r6, r2
 1312 04be 0400     		movs	r4, r0
 1313              	.LVL113:
 336:Core/Src/main.c ****     {
 1314              		.loc 1 336 38 discriminator 1 view .LVU389
 1315 04c0 1D00     		movs	r5, r3
 1316 04c2 D046     		mov	r8, r10
 1317              	.LVL114:
 1318              	.L27:
ARM GAS  C:\Users\einom\AppData\Local\Temp\cchSnBA5.s 			page 40


 1319              	.LBB145:
 344:Core/Src/main.c ****       uint16_t tile_width = end_x - start_x;
 1320              		.loc 1 344 49 view .LVU390
 1321 04c4 3200     		movs	r2, r6
 1322 04c6 7F32     		adds	r2, r2, #127
 1323 04c8 92B2     		uxth	r2, r2
 1324 04ca BA42     		cmp	r2, r7
 1325 04cc 00DA     		bge	.LCB1163
 1326 04ce 04E1     		b	.L45	@long jump
 1327              	.LCB1163:
 1328 04d0 3100     		movs	r1, r6
 1329 04d2 3A1C     		adds	r2, r7, #0
 1330 04d4 8031     		adds	r1, r1, #128
 1331              	.L15:
 1332 04d6 93B2     		uxth	r3, r2
 1333 04d8 1093     		str	r3, [sp, #64]
 1334 04da 0E9B     		ldr	r3, [sp, #56]
 344:Core/Src/main.c ****       uint16_t tile_width = end_x - start_x;
 1335              		.loc 1 344 16 discriminator 1 view .LVU391
 1336 04dc 3294     		str	r4, [sp, #200]
 1337 04de 1B1B     		subs	r3, r3, r4
 1338 04e0 1393     		str	r3, [sp, #76]
 1339 04e2 0023     		movs	r3, #0
 1340 04e4 1C00     		movs	r4, r3
 1341 04e6 4346     		mov	r3, r8
 1342 04e8 8A46     		mov	r10, r1
 1343 04ea C846     		mov	r8, r9
 1344 04ec 9946     		mov	r9, r3
 1345 04ee 3195     		str	r5, [sp, #196]
 1346              	.L26:
 1347              	.LVL115:
 338:Core/Src/main.c ****       
 1348              		.loc 1 338 7 is_stmt 1 view .LVU392
 338:Core/Src/main.c ****       
 1349              		.loc 1 338 22 is_stmt 0 view .LVU393
 1350 04f0 1F9B     		ldr	r3, [sp, #124]
 1351 04f2 139A     		ldr	r2, [sp, #76]
 1352 04f4 1A60     		str	r2, [r3]
 341:Core/Src/main.c ****       uint16_t start_y = tile_y * MAX_TILE_SIZE;
 1353              		.loc 1 341 7 is_stmt 1 view .LVU394
 1354              	.LVL116:
 342:Core/Src/main.c ****       uint16_t end_x = (start_x + MAX_TILE_SIZE > width) ? width : start_x + MAX_TILE_SIZE;
 1355              		.loc 1 342 7 view .LVU395
 343:Core/Src/main.c ****       uint16_t end_y = (start_y + MAX_TILE_SIZE > height) ? height : start_y + MAX_TILE_SIZE;
 1356              		.loc 1 343 7 view .LVU396
 1357 04f6 8022     		movs	r2, #128
 343:Core/Src/main.c ****       uint16_t end_y = (start_y + MAX_TILE_SIZE > height) ? height : start_y + MAX_TILE_SIZE;
 1358              		.loc 1 343 49 is_stmt 0 view .LVU397
 1359 04f8 2300     		movs	r3, r4
 1360 04fa 0292     		str	r2, [sp, #8]
 1361 04fc 7F33     		adds	r3, r3, #127
 343:Core/Src/main.c ****       uint16_t end_y = (start_y + MAX_TILE_SIZE > height) ? height : start_y + MAX_TILE_SIZE;
 1362              		.loc 1 343 16 view .LVU398
 1363 04fe 009A     		ldr	r2, [sp]
 343:Core/Src/main.c ****       uint16_t end_y = (start_y + MAX_TILE_SIZE > height) ? height : start_y + MAX_TILE_SIZE;
 1364              		.loc 1 343 49 view .LVU399
 1365 0500 9BB2     		uxth	r3, r3
ARM GAS  C:\Users\einom\AppData\Local\Temp\cchSnBA5.s 			page 41


 343:Core/Src/main.c ****       uint16_t end_y = (start_y + MAX_TILE_SIZE > height) ? height : start_y + MAX_TILE_SIZE;
 1366              		.loc 1 343 16 view .LVU400
 1367 0502 9A42     		cmp	r2, r3
 1368 0504 02DC     		bgt	.L17
 345:Core/Src/main.c ****       uint16_t tile_height = end_y - start_y;
 1369              		.loc 1 345 16 view .LVU401
 1370 0506 131B     		subs	r3, r2, r4
 1371 0508 9BB2     		uxth	r3, r3
 1372 050a 0293     		str	r3, [sp, #8]
 1373              	.L17:
 344:Core/Src/main.c ****       uint16_t tile_width = end_x - start_x;
 1374              		.loc 1 344 7 is_stmt 1 view .LVU402
 1375              	.LVL117:
 345:Core/Src/main.c ****       uint16_t tile_height = end_y - start_y;
 1376              		.loc 1 345 7 view .LVU403
 346:Core/Src/main.c ****       
 1377              		.loc 1 346 7 view .LVU404
 349:Core/Src/main.c ****       {
 1378              		.loc 1 349 7 view .LVU405
 1379              	.LBB140:
 349:Core/Src/main.c ****       {
 1380              		.loc 1 349 12 view .LVU406
 349:Core/Src/main.c ****       {
 1381              		.loc 1 349 30 discriminator 1 view .LVU407
 1382 050c 109B     		ldr	r3, [sp, #64]
 1383 050e 9E42     		cmp	r6, r3
 1384 0510 00D1     		bne	.LCB1222
 1385 0512 B6E0     		b	.L18	@long jump
 1386              	.LCB1222:
 1387              	.LBE140:
 1388              	.LBE145:
 1389              	.LBE151:
 1390              	.LBE157:
 1391              	.LBE162:
 1392              	.LBE173:
 1393              	.LBB174:
 1394              	.LBB113:
 1395              	.LBB109:
 1396              	.LBB105:
 297:Core/Src/main.c ****     for (uint16_t x = 0; x < width; ++x)
 1397              		.loc 1 297 30 is_stmt 0 view .LVU408
 1398 0514 3800     		movs	r0, r7
 1399 0516 FFF7FEFF 		bl	__aeabi_ui2d
 1400              	.LVL118:
 1401              	.LBE105:
 1402              	.LBE109:
 1403              	.LBE113:
 1404              	.LBE174:
 1405              	.LBB175:
 1406              	.LBB163:
 1407              	.LBB158:
 1408              	.LBB152:
 1409              	.LBB146:
 1410              	.LBB141:
 1411              	.LBB135:
 1412              	.LBB130:
 353:Core/Src/main.c ****         {
ARM GAS  C:\Users\einom\AppData\Local\Temp\cchSnBA5.s 			page 42


 1413              		.loc 1 353 32 discriminator 1 view .LVU409
 1414 051a 029B     		ldr	r3, [sp, #8]
 1415              	.LBE130:
 1416              	.LBE135:
 1417              	.LBE141:
 1418              	.LBE146:
 1419              	.LBE152:
 1420              	.LBE158:
 1421              	.LBE163:
 1422              	.LBE175:
 1423              	.LBB176:
 1424              	.LBB114:
 1425              	.LBB110:
 1426              	.LBB106:
 297:Core/Src/main.c ****     for (uint16_t x = 0; x < width; ++x)
 1427              		.loc 1 297 30 view .LVU410
 1428 051c 3500     		movs	r5, r6
 1429              	.LVL119:
 297:Core/Src/main.c ****     for (uint16_t x = 0; x < width; ++x)
 1430              		.loc 1 297 30 view .LVU411
 1431              	.LBE106:
 1432              	.LBE110:
 1433              	.LBE114:
 1434              	.LBE176:
 1435              	.LBB177:
 1436              	.LBB164:
 1437              	.LBB159:
 1438              	.LBB153:
 1439              	.LBB147:
 1440              	.LBB142:
 1441              	.LBB136:
 351:Core/Src/main.c ****         double y0 = ((double)global_y / (double)height) * 2.0 - 1.0;
 1442              		.loc 1 351 9 is_stmt 1 view .LVU412
 352:Core/Src/main.c ****         for (uint16_t x = 0; x < tile_width; ++x)
 1443              		.loc 1 352 9 view .LVU413
 353:Core/Src/main.c ****         {
 1444              		.loc 1 353 9 view .LVU414
 1445              	.LBB131:
 353:Core/Src/main.c ****         {
 1446              		.loc 1 353 14 view .LVU415
 353:Core/Src/main.c ****         {
 1447              		.loc 1 353 32 discriminator 1 view .LVU416
 1448              	.LBE131:
 1449              	.LBE136:
 1450              	.LBE142:
 1451              	.LBE147:
 1452              	.LBE153:
 1453              	.LBE159:
 1454              	.LBE164:
 1455              	.LBE177:
 1456              	.LBB178:
 1457              	.LBB115:
 1458              	.LBB111:
 1459              	.LBB107:
 297:Core/Src/main.c ****     for (uint16_t x = 0; x < width; ++x)
 1460              		.loc 1 297 30 is_stmt 0 view .LVU417
 1461 051e 0A90     		str	r0, [sp, #40]
ARM GAS  C:\Users\einom\AppData\Local\Temp\cchSnBA5.s 			page 43


 1462 0520 0B91     		str	r1, [sp, #44]
 1463              	.LVL120:
 297:Core/Src/main.c ****     for (uint16_t x = 0; x < width; ++x)
 1464              		.loc 1 297 30 view .LVU418
 1465              	.LBE107:
 1466              	.LBE111:
 1467              	.LBE115:
 1468              	.LBE178:
 1469              	.LBB179:
 1470              	.LBB165:
 1471              	.LBB160:
 1472              	.LBB154:
 1473              	.LBB148:
 1474              	.LBB143:
 1475              	.LBB137:
 1476              	.LBB132:
 353:Core/Src/main.c ****         {
 1477              		.loc 1 353 32 discriminator 1 view .LVU419
 1478 0522 002B     		cmp	r3, #0
 1479 0524 00D1     		bne	.LCB1315
 1480 0526 A7E0     		b	.L19	@long jump
 1481              	.LCB1315:
 1482              	.LBE132:
 352:Core/Src/main.c ****         for (uint16_t x = 0; x < tile_width; ++x)
 1483              		.loc 1 352 22 view .LVU420
 1484 0528 3000     		movs	r0, r6
 1485 052a FFF7FEFF 		bl	__aeabi_ui2d
 1486              	.LVL121:
 352:Core/Src/main.c ****         for (uint16_t x = 0; x < tile_width; ++x)
 1487              		.loc 1 352 39 view .LVU421
 1488 052e 0A9A     		ldr	r2, [sp, #40]
 1489 0530 0B9B     		ldr	r3, [sp, #44]
 1490 0532 FFF7FEFF 		bl	__aeabi_ddiv
 1491              	.LVL122:
 352:Core/Src/main.c ****         for (uint16_t x = 0; x < tile_width; ++x)
 1492              		.loc 1 352 57 view .LVU422
 1493 0536 0200     		movs	r2, r0
 1494 0538 0B00     		movs	r3, r1
 1495 053a FFF7FEFF 		bl	__aeabi_dadd
 1496              	.LVL123:
 352:Core/Src/main.c ****         for (uint16_t x = 0; x < tile_width; ++x)
 1497              		.loc 1 352 16 view .LVU423
 1498 053e 6E4B     		ldr	r3, .L69+4
 1499 0540 0022     		movs	r2, #0
 1500 0542 FFF7FEFF 		bl	__aeabi_dsub
 1501              	.LVL124:
 1502 0546 029B     		ldr	r3, [sp, #8]
 1503 0548 5546     		mov	r5, r10
 1504 054a E318     		adds	r3, r4, r3
 1505 054c 9BB2     		uxth	r3, r3
 1506 054e 1693     		str	r3, [sp, #88]
 1507 0550 4346     		mov	r3, r8
 1508 0552 1D94     		str	r4, [sp, #116]
 1509 0554 CA46     		mov	r10, r9
 1510 0556 3400     		movs	r4, r6
 1511              	.LVL125:
 352:Core/Src/main.c ****         for (uint16_t x = 0; x < tile_width; ++x)
ARM GAS  C:\Users\einom\AppData\Local\Temp\cchSnBA5.s 			page 44


 1512              		.loc 1 352 16 view .LVU424
 1513 0558 0690     		str	r0, [sp, #24]
 1514 055a 0791     		str	r1, [sp, #28]
 1515 055c 3396     		str	r6, [sp, #204]
 1516 055e 3493     		str	r3, [sp, #208]
 1517              	.LVL126:
 1518              	.L24:
 352:Core/Src/main.c ****         for (uint16_t x = 0; x < tile_width; ++x)
 1519              		.loc 1 352 16 view .LVU425
 1520              	.LBE137:
 1521              	.LBE143:
 1522              	.LBE148:
 1523              	.LBE154:
 1524              	.LBE160:
 1525              	.LBE165:
 1526              	.LBE179:
 1527              	.LBB180:
 1528              	.LBB116:
 1529              	.LBB112:
 1530              	.LBB108:
 1531              	.LBB103:
 1532              	.LBB100:
 300:Core/Src/main.c ****       double xi = 0.0;
 1533              		.loc 1 300 32 view .LVU426
 1534 0560 0098     		ldr	r0, [sp]
 1535 0562 FFF7FEFF 		bl	__aeabi_ui2d
 1536              	.LVL127:
 1537 0566 1D9B     		ldr	r3, [sp, #116]
 1538 0568 A946     		mov	r9, r5
 1539 056a 1E00     		movs	r6, r3
 1540 056c 3B00     		movs	r3, r7
 1541 056e 5F46     		mov	r7, fp
 1542 0570 9B46     		mov	fp, r3
 1543              	.LVL128:
 300:Core/Src/main.c ****       double xi = 0.0;
 1544              		.loc 1 300 32 view .LVU427
 1545 0572 1490     		str	r0, [sp, #80]
 1546 0574 1591     		str	r1, [sp, #84]
 1547 0576 3594     		str	r4, [sp, #212]
 1548              	.LVL129:
 1549              	.L23:
 300:Core/Src/main.c ****       double xi = 0.0;
 1550              		.loc 1 300 32 view .LVU428
 1551              	.LBE100:
 1552              	.LBE103:
 1553              	.LBE108:
 1554              	.LBE112:
 1555              	.LBE116:
 1556              	.LBE180:
 1557              	.LBB181:
 1558              	.LBB166:
 1559              	.LBB161:
 1560              	.LBB155:
 1561              	.LBB149:
 1562              	.LBB144:
 1563              	.LBB138:
 1564              	.LBB133:
ARM GAS  C:\Users\einom\AppData\Local\Temp\cchSnBA5.s 			page 45


 1565              	.LBB128:
 355:Core/Src/main.c ****           double x0 = ((double)global_x / (double)width) * 3.5 - 2.5;
 1566              		.loc 1 355 11 is_stmt 1 view .LVU429
 356:Core/Src/main.c ****           double xi = 0.0;
 1567              		.loc 1 356 11 view .LVU430
 356:Core/Src/main.c ****           double xi = 0.0;
 1568              		.loc 1 356 24 is_stmt 0 view .LVU431
 1569 0578 3000     		movs	r0, r6
 1570 057a FFF7FEFF 		bl	__aeabi_ui2d
 1571              	.LVL130:
 356:Core/Src/main.c ****           double xi = 0.0;
 1572              		.loc 1 356 41 view .LVU432
 1573 057e 149A     		ldr	r2, [sp, #80]
 1574 0580 159B     		ldr	r3, [sp, #84]
 1575 0582 FFF7FEFF 		bl	__aeabi_ddiv
 1576              	.LVL131:
 356:Core/Src/main.c ****           double xi = 0.0;
 1577              		.loc 1 356 58 view .LVU433
 1578 0586 0022     		movs	r2, #0
 1579 0588 5C4B     		ldr	r3, .L69+8
 1580 058a FFF7FEFF 		bl	__aeabi_dmul
 1581              	.LVL132:
 356:Core/Src/main.c ****           double xi = 0.0;
 1582              		.loc 1 356 18 view .LVU434
 1583 058e 5C4B     		ldr	r3, .L69+12
 1584 0590 0022     		movs	r2, #0
 1585 0592 FFF7FEFF 		bl	__aeabi_dsub
 1586              	.LVL133:
 358:Core/Src/main.c ****           uint32_t iteration = 0u;
 1587              		.loc 1 358 18 view .LVU435
 1588 0596 0024     		movs	r4, #0
 1589 0598 0025     		movs	r5, #0
 359:Core/Src/main.c ****           while (iteration < max_iter && (xi*xi + yi*yi) <= 4.0)
 1590              		.loc 1 359 20 view .LVU436
 1591 059a 0023     		movs	r3, #0
 356:Core/Src/main.c ****           double xi = 0.0;
 1592              		.loc 1 356 18 view .LVU437
 1593 059c 0890     		str	r0, [sp, #32]
 1594 059e 0991     		str	r1, [sp, #36]
 1595              	.LVL134:
 357:Core/Src/main.c ****           double yi = 0.0;
 1596              		.loc 1 357 11 is_stmt 1 view .LVU438
 358:Core/Src/main.c ****           uint32_t iteration = 0u;
 1597              		.loc 1 358 11 view .LVU439
 359:Core/Src/main.c ****           while (iteration < max_iter && (xi*xi + yi*yi) <= 4.0)
 1598              		.loc 1 359 11 view .LVU440
 360:Core/Src/main.c ****           {
 1599              		.loc 1 360 11 view .LVU441
 360:Core/Src/main.c ****           {
 1600              		.loc 1 360 39 view .LVU442
 359:Core/Src/main.c ****           while (iteration < max_iter && (xi*xi + yi*yi) <= 4.0)
 1601              		.loc 1 359 20 is_stmt 0 view .LVU443
 1602 05a0 9846     		mov	r8, r3
 1603 05a2 2000     		movs	r0, r4
 1604              	.LVL135:
 359:Core/Src/main.c ****           while (iteration < max_iter && (xi*xi + yi*yi) <= 4.0)
 1605              		.loc 1 359 20 view .LVU444
ARM GAS  C:\Users\einom\AppData\Local\Temp\cchSnBA5.s 			page 46


 1606 05a4 2900     		movs	r1, r5
 357:Core/Src/main.c ****           double yi = 0.0;
 1607              		.loc 1 357 18 view .LVU445
 1608 05a6 0294     		str	r4, [sp, #8]
 1609 05a8 0395     		str	r5, [sp, #12]
 1610 05aa 29E0     		b	.L20
 1611              	.LVL136:
 1612              	.L22:
 1613              	.LBB126:
 362:Core/Src/main.c ****             yi = 2.0*xi*yi + y0;
 1614              		.loc 1 362 13 is_stmt 1 view .LVU446
 362:Core/Src/main.c ****             yi = 2.0*xi*yi + y0;
 1615              		.loc 1 362 32 is_stmt 0 view .LVU447
 1616 05ac 0C9A     		ldr	r2, [sp, #48]
 1617 05ae 0D9B     		ldr	r3, [sp, #52]
 1618 05b0 0498     		ldr	r0, [sp, #16]
 1619 05b2 0599     		ldr	r1, [sp, #20]
 1620 05b4 FFF7FEFF 		bl	__aeabi_dsub
 1621              	.LVL137:
 362:Core/Src/main.c ****             yi = 2.0*xi*yi + y0;
 1622              		.loc 1 362 20 view .LVU448
 1623 05b8 089A     		ldr	r2, [sp, #32]
 1624 05ba 099B     		ldr	r3, [sp, #36]
 1625 05bc FFF7FEFF 		bl	__aeabi_dadd
 1626              	.LVL138:
 363:Core/Src/main.c ****             xi = tmp;
 1627              		.loc 1 363 13 is_stmt 1 view .LVU449
 362:Core/Src/main.c ****             yi = 2.0*xi*yi + y0;
 1628              		.loc 1 362 20 is_stmt 0 view .LVU450
 1629 05c0 0490     		str	r0, [sp, #16]
 1630 05c2 0591     		str	r1, [sp, #20]
 1631              	.LVL139:
 363:Core/Src/main.c ****             xi = tmp;
 1632              		.loc 1 363 21 view .LVU451
 1633 05c4 0298     		ldr	r0, [sp, #8]
 1634 05c6 0399     		ldr	r1, [sp, #12]
 1635 05c8 0200     		movs	r2, r0
 1636 05ca 0B00     		movs	r3, r1
 1637 05cc FFF7FEFF 		bl	__aeabi_dadd
 1638              	.LVL140:
 363:Core/Src/main.c ****             xi = tmp;
 1639              		.loc 1 363 24 view .LVU452
 1640 05d0 2200     		movs	r2, r4
 1641 05d2 2B00     		movs	r3, r5
 1642 05d4 FFF7FEFF 		bl	__aeabi_dmul
 1643              	.LVL141:
 1644 05d8 0B00     		movs	r3, r1
 1645 05da 0200     		movs	r2, r0
 363:Core/Src/main.c ****             xi = tmp;
 1646              		.loc 1 363 16 view .LVU453
 1647 05dc 0698     		ldr	r0, [sp, #24]
 1648 05de 0799     		ldr	r1, [sp, #28]
 1649 05e0 FFF7FEFF 		bl	__aeabi_dadd
 1650              	.LVL142:
 365:Core/Src/main.c ****           }
 1651              		.loc 1 365 13 view .LVU454
 1652 05e4 0123     		movs	r3, #1
ARM GAS  C:\Users\einom\AppData\Local\Temp\cchSnBA5.s 			page 47


 1653 05e6 9C46     		mov	ip, r3
 1654 05e8 E044     		add	r8, r8, ip
 1655              	.LVL143:
 365:Core/Src/main.c ****           }
 1656              		.loc 1 365 13 view .LVU455
 1657              	.LBE126:
 360:Core/Src/main.c ****           {
 1658              		.loc 1 360 39 view .LVU456
 1659 05ea 4346     		mov	r3, r8
 1660              	.LBB127:
 363:Core/Src/main.c ****             xi = tmp;
 1661              		.loc 1 363 16 view .LVU457
 1662 05ec 0400     		movs	r4, r0
 1663              	.LVL144:
 363:Core/Src/main.c ****             xi = tmp;
 1664              		.loc 1 363 16 view .LVU458
 1665 05ee 0D00     		movs	r5, r1
 1666              	.LVL145:
 364:Core/Src/main.c ****             ++iteration;
 1667              		.loc 1 364 13 is_stmt 1 view .LVU459
 365:Core/Src/main.c ****           }
 1668              		.loc 1 365 13 view .LVU460
 365:Core/Src/main.c ****           }
 1669              		.loc 1 365 13 is_stmt 0 view .LVU461
 1670              	.LBE127:
 360:Core/Src/main.c ****           {
 1671              		.loc 1 360 39 is_stmt 1 view .LVU462
 1672 05f0 642B     		cmp	r3, #100
 1673 05f2 1FD0     		beq	.L21
 1674 05f4 049A     		ldr	r2, [sp, #16]
 1675 05f6 059B     		ldr	r3, [sp, #20]
 1676 05f8 1000     		movs	r0, r2
 1677 05fa 1900     		movs	r1, r3
 1678 05fc 0292     		str	r2, [sp, #8]
 1679 05fe 0393     		str	r3, [sp, #12]
 1680              	.LVL146:
 1681              	.L20:
 360:Core/Src/main.c ****           {
 1682              		.loc 1 360 45 is_stmt 0 discriminator 1 view .LVU463
 1683 0600 0200     		movs	r2, r0
 1684 0602 0B00     		movs	r3, r1
 1685 0604 FFF7FEFF 		bl	__aeabi_dmul
 1686              	.LVL147:
 360:Core/Src/main.c ****           {
 1687              		.loc 1 360 53 discriminator 1 view .LVU464
 1688 0608 2200     		movs	r2, r4
 360:Core/Src/main.c ****           {
 1689              		.loc 1 360 45 discriminator 1 view .LVU465
 1690 060a 0490     		str	r0, [sp, #16]
 1691 060c 0591     		str	r1, [sp, #20]
 360:Core/Src/main.c ****           {
 1692              		.loc 1 360 53 discriminator 1 view .LVU466
 1693 060e 2B00     		movs	r3, r5
 1694 0610 2000     		movs	r0, r4
 1695 0612 2900     		movs	r1, r5
 1696 0614 FFF7FEFF 		bl	__aeabi_dmul
 1697              	.LVL148:
ARM GAS  C:\Users\einom\AppData\Local\Temp\cchSnBA5.s 			page 48


 1698 0618 0200     		movs	r2, r0
 1699 061a 0B00     		movs	r3, r1
 360:Core/Src/main.c ****           {
 1700              		.loc 1 360 49 discriminator 1 view .LVU467
 1701 061c 0498     		ldr	r0, [sp, #16]
 1702 061e 0599     		ldr	r1, [sp, #20]
 360:Core/Src/main.c ****           {
 1703              		.loc 1 360 53 discriminator 1 view .LVU468
 1704 0620 0C92     		str	r2, [sp, #48]
 1705 0622 0D93     		str	r3, [sp, #52]
 360:Core/Src/main.c ****           {
 1706              		.loc 1 360 49 discriminator 1 view .LVU469
 1707 0624 FFF7FEFF 		bl	__aeabi_dadd
 1708              	.LVL149:
 360:Core/Src/main.c ****           {
 1709              		.loc 1 360 39 discriminator 1 view .LVU470
 1710 0628 0022     		movs	r2, #0
 1711 062a 364B     		ldr	r3, .L69+16
 1712 062c FFF7FEFF 		bl	__aeabi_dcmple
 1713              	.LVL150:
 1714 0630 0028     		cmp	r0, #0
 1715 0632 BBD1     		bne	.L22
 1716              	.LVL151:
 1717              	.L21:
 367:Core/Src/main.c ****         }
 1718              		.loc 1 367 11 is_stmt 1 view .LVU471
 1719              	.LBE128:
 353:Core/Src/main.c ****         {
 1720              		.loc 1 353 32 is_stmt 0 discriminator 1 view .LVU472
 1721 0634 0136     		adds	r6, r6, #1
 1722              	.LVL152:
 353:Core/Src/main.c ****         {
 1723              		.loc 1 353 32 discriminator 1 view .LVU473
 1724 0636 169B     		ldr	r3, [sp, #88]
 1725 0638 B6B2     		uxth	r6, r6
 1726              	.LVL153:
 1727              	.LBB129:
 367:Core/Src/main.c ****         }
 1728              		.loc 1 367 26 view .LVU474
 1729 063a 4744     		add	r7, r7, r8
 1730              	.LVL154:
 367:Core/Src/main.c ****         }
 1731              		.loc 1 367 26 view .LVU475
 1732              	.LBE129:
 353:Core/Src/main.c ****         {
 1733              		.loc 1 353 46 is_stmt 1 discriminator 2 view .LVU476
 353:Core/Src/main.c ****         {
 1734              		.loc 1 353 32 discriminator 1 view .LVU477
 1735 063c 9E42     		cmp	r6, r3
 1736 063e 9BD1     		bne	.L23
 353:Core/Src/main.c ****         {
 1737              		.loc 1 353 32 is_stmt 0 discriminator 1 view .LVU478
 1738              	.LBE133:
 1739              	.LBE138:
 349:Core/Src/main.c ****       {
 1740              		.loc 1 349 30 discriminator 1 view .LVU479
 1741 0640 5B46     		mov	r3, fp
ARM GAS  C:\Users\einom\AppData\Local\Temp\cchSnBA5.s 			page 49


 1742 0642 359C     		ldr	r4, [sp, #212]
 1743              	.LVL155:
 349:Core/Src/main.c ****       {
 1744              		.loc 1 349 30 discriminator 1 view .LVU480
 1745 0644 BB46     		mov	fp, r7
 1746 0646 0134     		adds	r4, r4, #1
 1747 0648 1F00     		movs	r7, r3
 1748              	.LVL156:
 349:Core/Src/main.c ****       {
 1749              		.loc 1 349 45 is_stmt 1 discriminator 2 view .LVU481
 349:Core/Src/main.c ****       {
 1750              		.loc 1 349 30 discriminator 1 view .LVU482
 1751 064a 109B     		ldr	r3, [sp, #64]
 1752 064c A4B2     		uxth	r4, r4
 1753 064e 4D46     		mov	r5, r9
 1754 0650 A342     		cmp	r3, r4
 1755 0652 32D0     		beq	.L63
 1756              	.LVL157:
 1757              	.LBB139:
 351:Core/Src/main.c ****         double y0 = ((double)global_y / (double)height) * 2.0 - 1.0;
 1758              		.loc 1 351 9 view .LVU483
 352:Core/Src/main.c ****         for (uint16_t x = 0; x < tile_width; ++x)
 1759              		.loc 1 352 9 view .LVU484
 352:Core/Src/main.c ****         for (uint16_t x = 0; x < tile_width; ++x)
 1760              		.loc 1 352 22 is_stmt 0 view .LVU485
 1761 0654 2000     		movs	r0, r4
 1762 0656 FFF7FEFF 		bl	__aeabi_ui2d
 1763              	.LVL158:
 352:Core/Src/main.c ****         for (uint16_t x = 0; x < tile_width; ++x)
 1764              		.loc 1 352 39 view .LVU486
 1765 065a 0A9A     		ldr	r2, [sp, #40]
 1766 065c 0B9B     		ldr	r3, [sp, #44]
 1767 065e FFF7FEFF 		bl	__aeabi_ddiv
 1768              	.LVL159:
 352:Core/Src/main.c ****         for (uint16_t x = 0; x < tile_width; ++x)
 1769              		.loc 1 352 57 view .LVU487
 1770 0662 0200     		movs	r2, r0
 1771 0664 0B00     		movs	r3, r1
 1772 0666 FFF7FEFF 		bl	__aeabi_dadd
 1773              	.LVL160:
 352:Core/Src/main.c ****         for (uint16_t x = 0; x < tile_width; ++x)
 1774              		.loc 1 352 16 view .LVU488
 1775 066a 0022     		movs	r2, #0
 1776 066c 224B     		ldr	r3, .L69+4
 1777 066e FFF7FEFF 		bl	__aeabi_dsub
 1778              	.LVL161:
 1779 0672 0690     		str	r0, [sp, #24]
 1780 0674 0791     		str	r1, [sp, #28]
 1781              	.LVL162:
 353:Core/Src/main.c ****         {
 1782              		.loc 1 353 9 is_stmt 1 view .LVU489
 1783              	.LBB134:
 353:Core/Src/main.c ****         {
 1784              		.loc 1 353 14 view .LVU490
 353:Core/Src/main.c ****         {
 1785              		.loc 1 353 32 discriminator 1 view .LVU491
 1786 0676 73E7     		b	.L24
ARM GAS  C:\Users\einom\AppData\Local\Temp\cchSnBA5.s 			page 50


 1787              	.LVL163:
 1788              	.L19:
 353:Core/Src/main.c ****         {
 1789              		.loc 1 353 32 is_stmt 0 discriminator 1 view .LVU492
 1790              	.LBE134:
 1791              	.LBE139:
 349:Core/Src/main.c ****       {
 1792              		.loc 1 349 45 is_stmt 1 discriminator 2 view .LVU493
 349:Core/Src/main.c ****       {
 1793              		.loc 1 349 30 discriminator 1 view .LVU494
 1794 0678 0135     		adds	r5, r5, #1
 1795              	.LVL164:
 349:Core/Src/main.c ****       {
 1796              		.loc 1 349 30 is_stmt 0 discriminator 1 view .LVU495
 1797 067a 109B     		ldr	r3, [sp, #64]
 1798 067c ADB2     		uxth	r5, r5
 1799              	.LVL165:
 349:Core/Src/main.c ****       {
 1800              		.loc 1 349 30 discriminator 1 view .LVU496
 1801 067e AB42     		cmp	r3, r5
 1802 0680 FAD1     		bne	.L19
 1803              	.LVL166:
 1804              	.L18:
 349:Core/Src/main.c ****       {
 1805              		.loc 1 349 30 discriminator 1 view .LVU497
 1806              	.LBE144:
 1807              	.LBE149:
 336:Core/Src/main.c ****     {
 1808              		.loc 1 336 49 is_stmt 1 discriminator 2 view .LVU498
 336:Core/Src/main.c ****     {
 1809              		.loc 1 336 38 discriminator 1 view .LVU499
 1810 0682 139B     		ldr	r3, [sp, #76]
 1811 0684 0E9A     		ldr	r2, [sp, #56]
 1812 0686 0133     		adds	r3, r3, #1
 1813 0688 8034     		adds	r4, r4, #128
 1814              	.LVL167:
 336:Core/Src/main.c ****     {
 1815              		.loc 1 336 38 is_stmt 0 discriminator 1 view .LVU500
 1816 068a 1393     		str	r3, [sp, #76]
 336:Core/Src/main.c ****     {
 1817              		.loc 1 336 38 discriminator 1 view .LVU501
 1818 068c A4B2     		uxth	r4, r4
 1819              	.LVL168:
 336:Core/Src/main.c ****     {
 1820              		.loc 1 336 38 discriminator 1 view .LVU502
 1821 068e 9A42     		cmp	r2, r3
 1822 0690 00D0     		beq	.LCB1633
 1823 0692 2DE7     		b	.L26	@long jump
 1824              	.LCB1633:
 1825              	.LVL169:
 1826              	.L66:
 336:Core/Src/main.c ****     {
 1827              		.loc 1 336 38 discriminator 1 view .LVU503
 1828              	.LBE155:
 334:Core/Src/main.c ****   {
 1829              		.loc 1 334 36 discriminator 1 view .LVU504
 1830 0694 9446     		mov	ip, r2
ARM GAS  C:\Users\einom\AppData\Local\Temp\cchSnBA5.s 			page 51


 334:Core/Src/main.c ****   {
 1831              		.loc 1 334 47 discriminator 2 view .LVU505
 1832 0696 4B46     		mov	r3, r9
 1833 0698 329C     		ldr	r4, [sp, #200]
 1834 069a 5146     		mov	r1, r10
 334:Core/Src/main.c ****   {
 1835              		.loc 1 334 36 discriminator 1 view .LVU506
 1836 069c A444     		add	ip, ip, r4
 334:Core/Src/main.c ****   {
 1837              		.loc 1 334 47 discriminator 2 view .LVU507
 1838 069e C146     		mov	r9, r8
 1839 06a0 9846     		mov	r8, r3
 334:Core/Src/main.c ****   {
 1840              		.loc 1 334 47 is_stmt 1 discriminator 2 view .LVU508
 334:Core/Src/main.c ****   {
 1841              		.loc 1 334 36 is_stmt 0 discriminator 1 view .LVU509
 1842 06a2 6346     		mov	r3, ip
 334:Core/Src/main.c ****   {
 1843              		.loc 1 334 47 discriminator 2 view .LVU510
 1844 06a4 319D     		ldr	r5, [sp, #196]
 334:Core/Src/main.c ****   {
 1845              		.loc 1 334 36 discriminator 1 view .LVU511
 1846 06a6 0E93     		str	r3, [sp, #56]
 334:Core/Src/main.c ****   {
 1847              		.loc 1 334 47 discriminator 2 view .LVU512
 1848 06a8 0135     		adds	r5, r5, #1
 1849              	.LVL170:
 334:Core/Src/main.c ****   {
 1850              		.loc 1 334 36 is_stmt 1 discriminator 1 view .LVU513
 1851 06aa 8EB2     		uxth	r6, r1
 1852 06ac A945     		cmp	r9, r5
 1853 06ae 00D0     		beq	.LCB1658
 1854 06b0 08E7     		b	.L27	@long jump
 1855              	.LCB1658:
 334:Core/Src/main.c ****   {
 1856              		.loc 1 334 36 is_stmt 0 discriminator 1 view .LVU514
 1857 06b2 C246     		mov	r10, r8
 1858 06b4 309D     		ldr	r5, [sp, #192]
 1859              	.LVL171:
 334:Core/Src/main.c ****   {
 1860              		.loc 1 334 36 discriminator 1 view .LVU515
 1861 06b6 B846     		mov	r8, r7
 1862 06b8 01E6     		b	.L28
 1863              	.LVL172:
 1864              	.L63:
 334:Core/Src/main.c ****   {
 1865              		.loc 1 334 36 discriminator 1 view .LVU516
 1866 06ba 349B     		ldr	r3, [sp, #208]
 1867 06bc 1D9C     		ldr	r4, [sp, #116]
 1868 06be 9846     		mov	r8, r3
 1869              	.LVL173:
 1870              	.LBB156:
 336:Core/Src/main.c ****     {
 1871              		.loc 1 336 38 discriminator 1 view .LVU517
 1872 06c0 139B     		ldr	r3, [sp, #76]
 1873 06c2 0E9A     		ldr	r2, [sp, #56]
 1874 06c4 0133     		adds	r3, r3, #1
ARM GAS  C:\Users\einom\AppData\Local\Temp\cchSnBA5.s 			page 52


 1875 06c6 8034     		adds	r4, r4, #128
 1876 06c8 D146     		mov	r9, r10
 1877 06ca 339E     		ldr	r6, [sp, #204]
 1878 06cc AA46     		mov	r10, r5
 336:Core/Src/main.c ****     {
 1879              		.loc 1 336 49 is_stmt 1 discriminator 2 view .LVU518
 336:Core/Src/main.c ****     {
 1880              		.loc 1 336 38 discriminator 1 view .LVU519
 1881 06ce 1393     		str	r3, [sp, #76]
 336:Core/Src/main.c ****     {
 1882              		.loc 1 336 38 is_stmt 0 discriminator 1 view .LVU520
 1883 06d0 A4B2     		uxth	r4, r4
 1884 06d2 9A42     		cmp	r2, r3
 1885 06d4 00D0     		beq	.LCB1697
 1886 06d6 0BE7     		b	.L26	@long jump
 1887              	.LCB1697:
 1888 06d8 DCE7     		b	.L66
 1889              	.LVL174:
 1890              	.L45:
 1891              	.LBB150:
 344:Core/Src/main.c ****       uint16_t tile_width = end_x - start_x;
 1892              		.loc 1 344 16 discriminator 1 view .LVU521
 1893 06da 3100     		movs	r1, r6
 1894 06dc 8031     		adds	r1, r1, #128
 1895 06de 0A1C     		adds	r2, r1, #0
 1896 06e0 F9E6     		b	.L15
 1897              	.LVL175:
 1898              	.L60:
 344:Core/Src/main.c ****       uint16_t tile_width = end_x - start_x;
 1899              		.loc 1 344 16 discriminator 1 view .LVU522
 1900              	.LBE150:
 1901              	.LBE156:
 334:Core/Src/main.c ****   {
 1902              		.loc 1 334 47 is_stmt 1 discriminator 2 view .LVU523
 1903 06e2 0133     		adds	r3, r3, #1
 1904              	.LVL176:
 334:Core/Src/main.c ****   {
 1905              		.loc 1 334 36 discriminator 1 view .LVU524
 1906 06e4 A342     		cmp	r3, r4
 1907 06e6 00D1     		bne	.LCB1734
 1908 06e8 E7E5     		b	.L11	@long jump
 1909              	.LCB1734:
 334:Core/Src/main.c ****   {
 1910              		.loc 1 334 47 discriminator 2 view .LVU525
 1911 06ea 0133     		adds	r3, r3, #1
 1912              	.LVL177:
 334:Core/Src/main.c ****   {
 1913              		.loc 1 334 36 discriminator 1 view .LVU526
 1914 06ec A342     		cmp	r3, r4
 1915 06ee F8D1     		bne	.L60
 1916 06f0 E3E5     		b	.L11
 1917              	.L70:
 1918 06f2 C046     		.align	2
 1919              	.L69:
 1920 06f4 00040048 		.word	1207960576
 1921 06f8 0000F03F 		.word	1072693248
 1922 06fc 00000C40 		.word	1074528256
ARM GAS  C:\Users\einom\AppData\Local\Temp\cchSnBA5.s 			page 53


 1923 0700 00000440 		.word	1074003968
 1924 0704 00001040 		.word	1074790400
 1925              	.LBE161:
 1926              	.LBE166:
 1927              	.LBE181:
 1928              	.LBE183:
 1929              	.LBE188:
 1930              	.LBE190:
 1931              		.cfi_endproc
 1932              	.LFE40:
 1934              		.section	.text.Error_Handler,"ax",%progbits
 1935              		.align	1
 1936              		.p2align 2,,3
 1937              		.global	Error_Handler
 1938              		.syntax unified
 1939              		.code	16
 1940              		.thumb_func
 1942              	Error_Handler:
 1943              	.LFB47:
 397:Core/Src/main.c ****   /* USER CODE BEGIN Error_Handler_Debug */
 1944              		.loc 1 397 1 view -0
 1945              		.cfi_startproc
 1946              		@ Volatile: function does not return.
 1947              		@ args = 0, pretend = 0, frame = 0
 1948              		@ frame_needed = 0, uses_anonymous_args = 0
 1949              		@ link register save eliminated.
 400:Core/Src/main.c ****   while (1)
 1950              		.loc 1 400 3 view .LVU528
 1951              	.LBB191:
 1952              	.LBI191:
 140:Drivers/CMSIS/Include/cmsis_gcc.h **** {
 1953              		.loc 2 140 27 view .LVU529
 1954              	.LBB192:
 1955              		.loc 2 142 3 view .LVU530
 1956              		.syntax divided
 1957              	@ 142 "Drivers/CMSIS/Include/cmsis_gcc.h" 1
 1958 0000 72B6     		cpsid i
 1959              	@ 0 "" 2
 1960              		.thumb
 1961              		.syntax unified
 1962              	.L72:
 1963              	.LBE192:
 1964              	.LBE191:
 401:Core/Src/main.c ****   {
 1965              		.loc 1 401 3 view .LVU531
 1966              		.loc 1 403 3 view .LVU532
 401:Core/Src/main.c ****   {
 1967              		.loc 1 401 9 view .LVU533
 401:Core/Src/main.c ****   {
 1968              		.loc 1 401 3 view .LVU534
 1969              		.loc 1 403 3 view .LVU535
 401:Core/Src/main.c ****   {
 1970              		.loc 1 401 9 view .LVU536
 1971 0002 FEE7     		b	.L72
 1972              		.cfi_endproc
 1973              	.LFE47:
 1975              		.global	g_current_tile
ARM GAS  C:\Users\einom\AppData\Local\Temp\cchSnBA5.s 			page 54


 1976              		.section	.bss.g_current_tile,"aw",%nobits
 1977              		.align	2
 1980              	g_current_tile:
 1981 0000 00000000 		.space	4
 1982              		.global	g_total_tiles
 1983              		.section	.bss.g_total_tiles,"aw",%nobits
 1984              		.align	2
 1987              	g_total_tiles:
 1988 0000 00000000 		.space	4
 1989              		.global	g_num_tiles_y
 1990              		.section	.bss.g_num_tiles_y,"aw",%nobits
 1991              		.align	2
 1994              	g_num_tiles_y:
 1995 0000 00000000 		.space	4
 1996              		.global	g_num_tiles_x
 1997              		.section	.bss.g_num_tiles_x,"aw",%nobits
 1998              		.align	2
 2001              	g_num_tiles_x:
 2002 0000 00000000 		.space	4
 2003              		.global	throughput_pps
 2004              		.section	.bss.throughput_pps,"aw",%nobits
 2005              		.align	3
 2008              	throughput_pps:
 2009 0000 00000000 		.space	40
 2009      00000000 
 2009      00000000 
 2009      00000000 
 2009      00000000 
 2010              		.global	cpu_cycles
 2011              		.section	.bss.cpu_cycles,"aw",%nobits
 2012              		.align	2
 2015              	cpu_cycles:
 2016 0000 00000000 		.space	20
 2016      00000000 
 2016      00000000 
 2016      00000000 
 2016      00000000 
 2017              		.global	execution_time_ms
 2018              		.section	.bss.execution_time_ms,"aw",%nobits
 2019              		.align	3
 2022              	execution_time_ms:
 2023 0000 00000000 		.space	40
 2023      00000000 
 2023      00000000 
 2023      00000000 
 2023      00000000 
 2024              		.global	checksum
 2025              		.section	.bss.checksum,"aw",%nobits
 2026              		.align	2
 2029              	checksum:
 2030 0000 00000000 		.space	20
 2030      00000000 
 2030      00000000 
 2030      00000000 
 2030      00000000 
 2031              		.global	g_current_throughput
 2032              		.section	.bss.g_current_throughput,"aw",%nobits
ARM GAS  C:\Users\einom\AppData\Local\Temp\cchSnBA5.s 			page 55


 2033              		.align	3
 2036              	g_current_throughput:
 2037 0000 00000000 		.space	8
 2037      00000000 
 2038              		.global	g_current_execution_time
 2039              		.section	.bss.g_current_execution_time,"aw",%nobits
 2040              		.align	3
 2043              	g_current_execution_time:
 2044 0000 00000000 		.space	8
 2044      00000000 
 2045              		.global	g_current_checksum
 2046              		.section	.bss.g_current_checksum,"aw",%nobits
 2047              		.align	2
 2050              	g_current_checksum:
 2051 0000 00000000 		.space	4
 2052              		.global	g_current_cycles
 2053              		.section	.bss.g_current_cycles,"aw",%nobits
 2054              		.align	2
 2057              	g_current_cycles:
 2058 0000 00000000 		.space	4
 2059              		.global	g_current_height
 2060              		.section	.bss.g_current_height,"aw",%nobits
 2061              		.align	2
 2064              	g_current_height:
 2065 0000 00000000 		.space	4
 2066              		.global	g_current_width
 2067              		.section	.bss.g_current_width,"aw",%nobits
 2068              		.align	2
 2071              	g_current_width:
 2072 0000 00000000 		.space	4
 2073              		.section	.rodata.kWidths,"a"
 2074              		.align	2
 2077              	kWidths:
 2078 0000 8000     		.short	128
 2079 0002 A000     		.short	160
 2080 0004 C000     		.short	192
 2081 0006 E000     		.short	224
 2082 0008 0001     		.short	256
 2083              		.set	kHeights,kWidths
 2084              		.global	g_simple_test
 2085              		.section	.bss.g_simple_test,"aw",%nobits
 2086              		.align	2
 2089              	g_simple_test:
 2090 0000 00000000 		.space	4
 2091              		.global	g_test_counter
 2092              		.section	.bss.g_test_counter,"aw",%nobits
 2093              		.align	2
 2096              	g_test_counter:
 2097 0000 00000000 		.space	4
 2098              		.global	g_total_time_sum
 2099              		.section	.bss.g_total_time_sum,"aw",%nobits
 2100              		.align	3
 2103              	g_total_time_sum:
 2104 0000 00000000 		.space	8
 2104      00000000 
 2105              		.global	g_total_program_time_ms
 2106              		.section	.bss.g_total_program_time_ms,"aw",%nobits
ARM GAS  C:\Users\einom\AppData\Local\Temp\cchSnBA5.s 			page 56


 2107              		.align	3
 2110              	g_total_program_time_ms:
 2111 0000 00000000 		.space	8
 2111      00000000 
 2112              		.global	g_total_program_cycles
 2113              		.section	.bss.g_total_program_cycles,"aw",%nobits
 2114              		.align	2
 2117              	g_total_program_cycles:
 2118 0000 00000000 		.space	4
 2119              		.text
 2120              	.Letext0:
 2121              		.file 3 "C:\\ST\\STM32CubeIDE_1.19.0\\STM32CubeIDE\\plugins\\com.st.stm32cube.ide.mcu.externaltool
 2122              		.file 4 "C:\\ST\\STM32CubeIDE_1.19.0\\STM32CubeIDE\\plugins\\com.st.stm32cube.ide.mcu.externaltool
 2123              		.file 5 "Drivers/CMSIS/Device/ST/STM32F0xx/Include/stm32f051x8.h"
 2124              		.file 6 "Drivers/STM32F0xx_HAL_Driver/Inc/stm32f0xx_hal_def.h"
 2125              		.file 7 "Drivers/STM32F0xx_HAL_Driver/Inc/stm32f0xx_hal_rcc.h"
 2126              		.file 8 "Drivers/STM32F0xx_HAL_Driver/Inc/stm32f0xx_hal_gpio.h"
 2127              		.file 9 "Drivers/CMSIS/Device/ST/STM32F0xx/Include/system_stm32f0xx.h"
 2128              		.file 10 "Drivers/STM32F0xx_HAL_Driver/Inc/stm32f0xx_hal.h"
 2129              		.file 11 "<built-in>"
ARM GAS  C:\Users\einom\AppData\Local\Temp\cchSnBA5.s 			page 57


DEFINED SYMBOLS
                            *ABS*:00000000 main.c
C:\Users\einom\AppData\Local\Temp\cchSnBA5.s:19     .text.SystemClock_Config:00000000 $t
C:\Users\einom\AppData\Local\Temp\cchSnBA5.s:26     .text.SystemClock_Config:00000000 SystemClock_Config
C:\Users\einom\AppData\Local\Temp\cchSnBA5.s:186    .text.startup.main:00000000 $t
C:\Users\einom\AppData\Local\Temp\cchSnBA5.s:193    .text.startup.main:00000000 main
C:\Users\einom\AppData\Local\Temp\cchSnBA5.s:1059   .text.startup.main:00000384 $d
C:\Users\einom\AppData\Local\Temp\cchSnBA5.s:2117   .bss.g_total_program_cycles:00000000 g_total_program_cycles
C:\Users\einom\AppData\Local\Temp\cchSnBA5.s:2110   .bss.g_total_program_time_ms:00000000 g_total_program_time_ms
C:\Users\einom\AppData\Local\Temp\cchSnBA5.s:2103   .bss.g_total_time_sum:00000000 g_total_time_sum
C:\Users\einom\AppData\Local\Temp\cchSnBA5.s:2096   .bss.g_test_counter:00000000 g_test_counter
C:\Users\einom\AppData\Local\Temp\cchSnBA5.s:2089   .bss.g_simple_test:00000000 g_simple_test
C:\Users\einom\AppData\Local\Temp\cchSnBA5.s:2077   .rodata.kWidths:00000000 kWidths
C:\Users\einom\AppData\Local\Temp\cchSnBA5.s:2077   .rodata.kWidths:00000000 kHeights
C:\Users\einom\AppData\Local\Temp\cchSnBA5.s:2071   .bss.g_current_width:00000000 g_current_width
C:\Users\einom\AppData\Local\Temp\cchSnBA5.s:2064   .bss.g_current_height:00000000 g_current_height
C:\Users\einom\AppData\Local\Temp\cchSnBA5.s:2001   .bss.g_num_tiles_x:00000000 g_num_tiles_x
C:\Users\einom\AppData\Local\Temp\cchSnBA5.s:1994   .bss.g_num_tiles_y:00000000 g_num_tiles_y
C:\Users\einom\AppData\Local\Temp\cchSnBA5.s:1987   .bss.g_total_tiles:00000000 g_total_tiles
C:\Users\einom\AppData\Local\Temp\cchSnBA5.s:1980   .bss.g_current_tile:00000000 g_current_tile
C:\Users\einom\AppData\Local\Temp\cchSnBA5.s:2057   .bss.g_current_cycles:00000000 g_current_cycles
C:\Users\einom\AppData\Local\Temp\cchSnBA5.s:2050   .bss.g_current_checksum:00000000 g_current_checksum
C:\Users\einom\AppData\Local\Temp\cchSnBA5.s:2043   .bss.g_current_execution_time:00000000 g_current_execution_time
C:\Users\einom\AppData\Local\Temp\cchSnBA5.s:2036   .bss.g_current_throughput:00000000 g_current_throughput
C:\Users\einom\AppData\Local\Temp\cchSnBA5.s:2029   .bss.checksum:00000000 checksum
C:\Users\einom\AppData\Local\Temp\cchSnBA5.s:2022   .bss.execution_time_ms:00000000 execution_time_ms
C:\Users\einom\AppData\Local\Temp\cchSnBA5.s:2015   .bss.cpu_cycles:00000000 cpu_cycles
C:\Users\einom\AppData\Local\Temp\cchSnBA5.s:2008   .bss.throughput_pps:00000000 throughput_pps
C:\Users\einom\AppData\Local\Temp\cchSnBA5.s:1094   .text.startup.main:000003f8 $t
C:\Users\einom\AppData\Local\Temp\cchSnBA5.s:1920   .text.startup.main:000006f4 $d
C:\Users\einom\AppData\Local\Temp\cchSnBA5.s:1935   .text.Error_Handler:00000000 $t
C:\Users\einom\AppData\Local\Temp\cchSnBA5.s:1942   .text.Error_Handler:00000000 Error_Handler
C:\Users\einom\AppData\Local\Temp\cchSnBA5.s:1977   .bss.g_current_tile:00000000 $d
C:\Users\einom\AppData\Local\Temp\cchSnBA5.s:1984   .bss.g_total_tiles:00000000 $d
C:\Users\einom\AppData\Local\Temp\cchSnBA5.s:1991   .bss.g_num_tiles_y:00000000 $d
C:\Users\einom\AppData\Local\Temp\cchSnBA5.s:1998   .bss.g_num_tiles_x:00000000 $d
C:\Users\einom\AppData\Local\Temp\cchSnBA5.s:2005   .bss.throughput_pps:00000000 $d
C:\Users\einom\AppData\Local\Temp\cchSnBA5.s:2012   .bss.cpu_cycles:00000000 $d
C:\Users\einom\AppData\Local\Temp\cchSnBA5.s:2019   .bss.execution_time_ms:00000000 $d
C:\Users\einom\AppData\Local\Temp\cchSnBA5.s:2026   .bss.checksum:00000000 $d
C:\Users\einom\AppData\Local\Temp\cchSnBA5.s:2033   .bss.g_current_throughput:00000000 $d
C:\Users\einom\AppData\Local\Temp\cchSnBA5.s:2040   .bss.g_current_execution_time:00000000 $d
C:\Users\einom\AppData\Local\Temp\cchSnBA5.s:2047   .bss.g_current_checksum:00000000 $d
C:\Users\einom\AppData\Local\Temp\cchSnBA5.s:2054   .bss.g_current_cycles:00000000 $d
C:\Users\einom\AppData\Local\Temp\cchSnBA5.s:2061   .bss.g_current_height:00000000 $d
C:\Users\einom\AppData\Local\Temp\cchSnBA5.s:2068   .bss.g_current_width:00000000 $d
C:\Users\einom\AppData\Local\Temp\cchSnBA5.s:2074   .rodata.kWidths:00000000 $d
C:\Users\einom\AppData\Local\Temp\cchSnBA5.s:2086   .bss.g_simple_test:00000000 $d
C:\Users\einom\AppData\Local\Temp\cchSnBA5.s:2093   .bss.g_test_counter:00000000 $d
C:\Users\einom\AppData\Local\Temp\cchSnBA5.s:2100   .bss.g_total_time_sum:00000000 $d
C:\Users\einom\AppData\Local\Temp\cchSnBA5.s:2107   .bss.g_total_program_time_ms:00000000 $d
C:\Users\einom\AppData\Local\Temp\cchSnBA5.s:2114   .bss.g_total_program_cycles:00000000 $d

UNDEFINED SYMBOLS
memset
HAL_RCC_OscConfig
HAL_RCC_ClockConfig
ARM GAS  C:\Users\einom\AppData\Local\Temp\cchSnBA5.s 			page 58


__aeabi_ui2d
__aeabi_ddiv
__aeabi_dadd
__aeabi_dsub
__aeabi_dmul
__aeabi_dcmple
__aeabi_uidiv
HAL_Init
HAL_GPIO_WritePin
HAL_GPIO_Init
HAL_GetTick
SystemCoreClock
HAL_Delay
