ARM GAS  C:\Users\einom\AppData\Local\Temp\ccRZzXCk.s 			page 1


   1              		.cpu cortex-m0
   2              		.arch armv6s-m
   3              		.fpu softvfp
   4              		.eabi_attribute 20, 1
   5              		.eabi_attribute 21, 1
   6              		.eabi_attribute 23, 3
   7              		.eabi_attribute 24, 1
   8              		.eabi_attribute 25, 1
   9              		.eabi_attribute 26, 1
  10              		.eabi_attribute 30, 6
  11              		.eabi_attribute 34, 0
  12              		.eabi_attribute 18, 4
  13              		.file	"stm32f0xx_hal_flash_ex.c"
  14              		.text
  15              	.Ltext0:
  16              		.cfi_sections	.debug_frame
  17              		.file 1 "Drivers/STM32F0xx_HAL_Driver/Src/stm32f0xx_hal_flash_ex.c"
  18              		.section	.text.HAL_FLASHEx_Erase,"ax",%progbits
  19              		.align	1
  20              		.global	HAL_FLASHEx_Erase
  21              		.syntax unified
  22              		.code	16
  23              		.thumb_func
  25              	HAL_FLASHEx_Erase:
  26              	.LFB40:
   1:Drivers/STM32F0xx_HAL_Driver/Src/stm32f0xx_hal_flash_ex.c **** /**
   2:Drivers/STM32F0xx_HAL_Driver/Src/stm32f0xx_hal_flash_ex.c ****   ******************************************************************************
   3:Drivers/STM32F0xx_HAL_Driver/Src/stm32f0xx_hal_flash_ex.c ****   * @file    stm32f0xx_hal_flash_ex.c
   4:Drivers/STM32F0xx_HAL_Driver/Src/stm32f0xx_hal_flash_ex.c ****   * @author  MCD Application Team
   5:Drivers/STM32F0xx_HAL_Driver/Src/stm32f0xx_hal_flash_ex.c ****   * @brief   Extended FLASH HAL module driver.
   6:Drivers/STM32F0xx_HAL_Driver/Src/stm32f0xx_hal_flash_ex.c ****   *    
   7:Drivers/STM32F0xx_HAL_Driver/Src/stm32f0xx_hal_flash_ex.c ****   *          This file provides firmware functions to manage the following 
   8:Drivers/STM32F0xx_HAL_Driver/Src/stm32f0xx_hal_flash_ex.c ****   *          functionalities of the FLASH peripheral:
   9:Drivers/STM32F0xx_HAL_Driver/Src/stm32f0xx_hal_flash_ex.c ****   *           + Extended Initialization/de-initialization functions
  10:Drivers/STM32F0xx_HAL_Driver/Src/stm32f0xx_hal_flash_ex.c ****   *           + Extended I/O operation functions
  11:Drivers/STM32F0xx_HAL_Driver/Src/stm32f0xx_hal_flash_ex.c ****   *           + Extended Peripheral Control functions 
  12:Drivers/STM32F0xx_HAL_Driver/Src/stm32f0xx_hal_flash_ex.c ****   *         
  13:Drivers/STM32F0xx_HAL_Driver/Src/stm32f0xx_hal_flash_ex.c ****   @verbatim
  14:Drivers/STM32F0xx_HAL_Driver/Src/stm32f0xx_hal_flash_ex.c ****   ==============================================================================
  15:Drivers/STM32F0xx_HAL_Driver/Src/stm32f0xx_hal_flash_ex.c ****                ##### Flash peripheral extended features  #####
  16:Drivers/STM32F0xx_HAL_Driver/Src/stm32f0xx_hal_flash_ex.c ****   ==============================================================================
  17:Drivers/STM32F0xx_HAL_Driver/Src/stm32f0xx_hal_flash_ex.c ****            
  18:Drivers/STM32F0xx_HAL_Driver/Src/stm32f0xx_hal_flash_ex.c ****                       ##### How to use this driver #####
  19:Drivers/STM32F0xx_HAL_Driver/Src/stm32f0xx_hal_flash_ex.c ****   ==============================================================================
  20:Drivers/STM32F0xx_HAL_Driver/Src/stm32f0xx_hal_flash_ex.c ****   [..] This driver provides functions to configure and program the FLASH memory 
  21:Drivers/STM32F0xx_HAL_Driver/Src/stm32f0xx_hal_flash_ex.c ****        of all STM32F0xxx devices. It includes
  22:Drivers/STM32F0xx_HAL_Driver/Src/stm32f0xx_hal_flash_ex.c ****        
  23:Drivers/STM32F0xx_HAL_Driver/Src/stm32f0xx_hal_flash_ex.c ****         (++) Set/Reset the write protection
  24:Drivers/STM32F0xx_HAL_Driver/Src/stm32f0xx_hal_flash_ex.c ****         (++) Program the user Option Bytes
  25:Drivers/STM32F0xx_HAL_Driver/Src/stm32f0xx_hal_flash_ex.c ****         (++) Get the Read protection Level
  26:Drivers/STM32F0xx_HAL_Driver/Src/stm32f0xx_hal_flash_ex.c ****   
  27:Drivers/STM32F0xx_HAL_Driver/Src/stm32f0xx_hal_flash_ex.c ****   @endverbatim
  28:Drivers/STM32F0xx_HAL_Driver/Src/stm32f0xx_hal_flash_ex.c ****   ******************************************************************************
  29:Drivers/STM32F0xx_HAL_Driver/Src/stm32f0xx_hal_flash_ex.c ****   * @attention
  30:Drivers/STM32F0xx_HAL_Driver/Src/stm32f0xx_hal_flash_ex.c ****   *
  31:Drivers/STM32F0xx_HAL_Driver/Src/stm32f0xx_hal_flash_ex.c ****   * Copyright (c) 2016 STMicroelectronics.
  32:Drivers/STM32F0xx_HAL_Driver/Src/stm32f0xx_hal_flash_ex.c ****   * All rights reserved.
ARM GAS  C:\Users\einom\AppData\Local\Temp\ccRZzXCk.s 			page 2


  33:Drivers/STM32F0xx_HAL_Driver/Src/stm32f0xx_hal_flash_ex.c ****   *
  34:Drivers/STM32F0xx_HAL_Driver/Src/stm32f0xx_hal_flash_ex.c ****   * This software is licensed under terms that can be found in the LICENSE file in
  35:Drivers/STM32F0xx_HAL_Driver/Src/stm32f0xx_hal_flash_ex.c ****   * the root directory of this software component.
  36:Drivers/STM32F0xx_HAL_Driver/Src/stm32f0xx_hal_flash_ex.c ****   * If no LICENSE file comes with this software, it is provided AS-IS.
  37:Drivers/STM32F0xx_HAL_Driver/Src/stm32f0xx_hal_flash_ex.c ****   ******************************************************************************
  38:Drivers/STM32F0xx_HAL_Driver/Src/stm32f0xx_hal_flash_ex.c ****   */
  39:Drivers/STM32F0xx_HAL_Driver/Src/stm32f0xx_hal_flash_ex.c **** 
  40:Drivers/STM32F0xx_HAL_Driver/Src/stm32f0xx_hal_flash_ex.c **** /* Includes ------------------------------------------------------------------*/
  41:Drivers/STM32F0xx_HAL_Driver/Src/stm32f0xx_hal_flash_ex.c **** #include "stm32f0xx_hal.h"
  42:Drivers/STM32F0xx_HAL_Driver/Src/stm32f0xx_hal_flash_ex.c **** 
  43:Drivers/STM32F0xx_HAL_Driver/Src/stm32f0xx_hal_flash_ex.c **** /** @addtogroup STM32F0xx_HAL_Driver
  44:Drivers/STM32F0xx_HAL_Driver/Src/stm32f0xx_hal_flash_ex.c ****   * @{
  45:Drivers/STM32F0xx_HAL_Driver/Src/stm32f0xx_hal_flash_ex.c ****   */
  46:Drivers/STM32F0xx_HAL_Driver/Src/stm32f0xx_hal_flash_ex.c **** #ifdef HAL_FLASH_MODULE_ENABLED
  47:Drivers/STM32F0xx_HAL_Driver/Src/stm32f0xx_hal_flash_ex.c **** 
  48:Drivers/STM32F0xx_HAL_Driver/Src/stm32f0xx_hal_flash_ex.c **** /** @addtogroup FLASH
  49:Drivers/STM32F0xx_HAL_Driver/Src/stm32f0xx_hal_flash_ex.c ****   * @{
  50:Drivers/STM32F0xx_HAL_Driver/Src/stm32f0xx_hal_flash_ex.c ****   */
  51:Drivers/STM32F0xx_HAL_Driver/Src/stm32f0xx_hal_flash_ex.c **** /** @addtogroup FLASH_Private_Variables
  52:Drivers/STM32F0xx_HAL_Driver/Src/stm32f0xx_hal_flash_ex.c ****  * @{
  53:Drivers/STM32F0xx_HAL_Driver/Src/stm32f0xx_hal_flash_ex.c ****  */
  54:Drivers/STM32F0xx_HAL_Driver/Src/stm32f0xx_hal_flash_ex.c **** /* Variables used for Erase pages under interruption*/
  55:Drivers/STM32F0xx_HAL_Driver/Src/stm32f0xx_hal_flash_ex.c **** extern FLASH_ProcessTypeDef pFlash;
  56:Drivers/STM32F0xx_HAL_Driver/Src/stm32f0xx_hal_flash_ex.c **** /**
  57:Drivers/STM32F0xx_HAL_Driver/Src/stm32f0xx_hal_flash_ex.c ****   * @}
  58:Drivers/STM32F0xx_HAL_Driver/Src/stm32f0xx_hal_flash_ex.c ****   */
  59:Drivers/STM32F0xx_HAL_Driver/Src/stm32f0xx_hal_flash_ex.c **** 
  60:Drivers/STM32F0xx_HAL_Driver/Src/stm32f0xx_hal_flash_ex.c **** /**
  61:Drivers/STM32F0xx_HAL_Driver/Src/stm32f0xx_hal_flash_ex.c ****   * @}
  62:Drivers/STM32F0xx_HAL_Driver/Src/stm32f0xx_hal_flash_ex.c ****   */
  63:Drivers/STM32F0xx_HAL_Driver/Src/stm32f0xx_hal_flash_ex.c ****   
  64:Drivers/STM32F0xx_HAL_Driver/Src/stm32f0xx_hal_flash_ex.c **** /** @defgroup FLASHEx FLASHEx
  65:Drivers/STM32F0xx_HAL_Driver/Src/stm32f0xx_hal_flash_ex.c ****   * @brief FLASH HAL Extension module driver
  66:Drivers/STM32F0xx_HAL_Driver/Src/stm32f0xx_hal_flash_ex.c ****   * @{
  67:Drivers/STM32F0xx_HAL_Driver/Src/stm32f0xx_hal_flash_ex.c ****   */
  68:Drivers/STM32F0xx_HAL_Driver/Src/stm32f0xx_hal_flash_ex.c **** 
  69:Drivers/STM32F0xx_HAL_Driver/Src/stm32f0xx_hal_flash_ex.c **** /* Private typedef -----------------------------------------------------------*/
  70:Drivers/STM32F0xx_HAL_Driver/Src/stm32f0xx_hal_flash_ex.c **** /* Private define ------------------------------------------------------------*/
  71:Drivers/STM32F0xx_HAL_Driver/Src/stm32f0xx_hal_flash_ex.c **** /** @defgroup FLASHEx_Private_Constants FLASHEx Private Constants
  72:Drivers/STM32F0xx_HAL_Driver/Src/stm32f0xx_hal_flash_ex.c ****  * @{
  73:Drivers/STM32F0xx_HAL_Driver/Src/stm32f0xx_hal_flash_ex.c ****  */
  74:Drivers/STM32F0xx_HAL_Driver/Src/stm32f0xx_hal_flash_ex.c **** #define FLASH_POSITION_IWDGSW_BIT        8U
  75:Drivers/STM32F0xx_HAL_Driver/Src/stm32f0xx_hal_flash_ex.c **** #define FLASH_POSITION_OB_USERDATA0_BIT  16U
  76:Drivers/STM32F0xx_HAL_Driver/Src/stm32f0xx_hal_flash_ex.c **** #define FLASH_POSITION_OB_USERDATA1_BIT  24U
  77:Drivers/STM32F0xx_HAL_Driver/Src/stm32f0xx_hal_flash_ex.c **** /**
  78:Drivers/STM32F0xx_HAL_Driver/Src/stm32f0xx_hal_flash_ex.c ****   * @}
  79:Drivers/STM32F0xx_HAL_Driver/Src/stm32f0xx_hal_flash_ex.c ****   */
  80:Drivers/STM32F0xx_HAL_Driver/Src/stm32f0xx_hal_flash_ex.c **** 
  81:Drivers/STM32F0xx_HAL_Driver/Src/stm32f0xx_hal_flash_ex.c **** /* Private macro -------------------------------------------------------------*/
  82:Drivers/STM32F0xx_HAL_Driver/Src/stm32f0xx_hal_flash_ex.c **** /** @defgroup FLASHEx_Private_Macros FLASHEx Private Macros
  83:Drivers/STM32F0xx_HAL_Driver/Src/stm32f0xx_hal_flash_ex.c ****   * @{
  84:Drivers/STM32F0xx_HAL_Driver/Src/stm32f0xx_hal_flash_ex.c ****   */
  85:Drivers/STM32F0xx_HAL_Driver/Src/stm32f0xx_hal_flash_ex.c **** /**
  86:Drivers/STM32F0xx_HAL_Driver/Src/stm32f0xx_hal_flash_ex.c ****   * @}
  87:Drivers/STM32F0xx_HAL_Driver/Src/stm32f0xx_hal_flash_ex.c ****   */ 
  88:Drivers/STM32F0xx_HAL_Driver/Src/stm32f0xx_hal_flash_ex.c **** 
  89:Drivers/STM32F0xx_HAL_Driver/Src/stm32f0xx_hal_flash_ex.c **** /* Private variables ---------------------------------------------------------*/
ARM GAS  C:\Users\einom\AppData\Local\Temp\ccRZzXCk.s 			page 3


  90:Drivers/STM32F0xx_HAL_Driver/Src/stm32f0xx_hal_flash_ex.c **** /* Private function prototypes -----------------------------------------------*/
  91:Drivers/STM32F0xx_HAL_Driver/Src/stm32f0xx_hal_flash_ex.c **** /** @defgroup FLASHEx_Private_Functions FLASHEx Private Functions
  92:Drivers/STM32F0xx_HAL_Driver/Src/stm32f0xx_hal_flash_ex.c ****  * @{
  93:Drivers/STM32F0xx_HAL_Driver/Src/stm32f0xx_hal_flash_ex.c ****  */
  94:Drivers/STM32F0xx_HAL_Driver/Src/stm32f0xx_hal_flash_ex.c **** /* Erase operations */
  95:Drivers/STM32F0xx_HAL_Driver/Src/stm32f0xx_hal_flash_ex.c **** static void              FLASH_MassErase(void);
  96:Drivers/STM32F0xx_HAL_Driver/Src/stm32f0xx_hal_flash_ex.c **** void    FLASH_PageErase(uint32_t PageAddress);
  97:Drivers/STM32F0xx_HAL_Driver/Src/stm32f0xx_hal_flash_ex.c **** 
  98:Drivers/STM32F0xx_HAL_Driver/Src/stm32f0xx_hal_flash_ex.c **** /* Option bytes control */
  99:Drivers/STM32F0xx_HAL_Driver/Src/stm32f0xx_hal_flash_ex.c **** static HAL_StatusTypeDef FLASH_OB_EnableWRP(uint32_t WriteProtectPage);
 100:Drivers/STM32F0xx_HAL_Driver/Src/stm32f0xx_hal_flash_ex.c **** static HAL_StatusTypeDef FLASH_OB_DisableWRP(uint32_t WriteProtectPage);
 101:Drivers/STM32F0xx_HAL_Driver/Src/stm32f0xx_hal_flash_ex.c **** static HAL_StatusTypeDef FLASH_OB_RDP_LevelConfig(uint8_t ReadProtectLevel);
 102:Drivers/STM32F0xx_HAL_Driver/Src/stm32f0xx_hal_flash_ex.c **** static HAL_StatusTypeDef FLASH_OB_UserConfig(uint8_t UserConfig);
 103:Drivers/STM32F0xx_HAL_Driver/Src/stm32f0xx_hal_flash_ex.c **** static HAL_StatusTypeDef FLASH_OB_ProgramData(uint32_t Address, uint8_t Data);
 104:Drivers/STM32F0xx_HAL_Driver/Src/stm32f0xx_hal_flash_ex.c **** static uint32_t          FLASH_OB_GetWRP(void);
 105:Drivers/STM32F0xx_HAL_Driver/Src/stm32f0xx_hal_flash_ex.c **** static uint32_t          FLASH_OB_GetRDP(void);
 106:Drivers/STM32F0xx_HAL_Driver/Src/stm32f0xx_hal_flash_ex.c **** static uint8_t           FLASH_OB_GetUser(void);
 107:Drivers/STM32F0xx_HAL_Driver/Src/stm32f0xx_hal_flash_ex.c **** 
 108:Drivers/STM32F0xx_HAL_Driver/Src/stm32f0xx_hal_flash_ex.c **** /**
 109:Drivers/STM32F0xx_HAL_Driver/Src/stm32f0xx_hal_flash_ex.c ****   * @}
 110:Drivers/STM32F0xx_HAL_Driver/Src/stm32f0xx_hal_flash_ex.c ****   */
 111:Drivers/STM32F0xx_HAL_Driver/Src/stm32f0xx_hal_flash_ex.c **** 
 112:Drivers/STM32F0xx_HAL_Driver/Src/stm32f0xx_hal_flash_ex.c **** /* Exported functions ---------------------------------------------------------*/
 113:Drivers/STM32F0xx_HAL_Driver/Src/stm32f0xx_hal_flash_ex.c **** /** @defgroup FLASHEx_Exported_Functions FLASHEx Exported Functions
 114:Drivers/STM32F0xx_HAL_Driver/Src/stm32f0xx_hal_flash_ex.c ****   * @{
 115:Drivers/STM32F0xx_HAL_Driver/Src/stm32f0xx_hal_flash_ex.c ****   */
 116:Drivers/STM32F0xx_HAL_Driver/Src/stm32f0xx_hal_flash_ex.c ****   
 117:Drivers/STM32F0xx_HAL_Driver/Src/stm32f0xx_hal_flash_ex.c **** /** @defgroup FLASHEx_Exported_Functions_Group1 FLASHEx Memory Erasing functions
 118:Drivers/STM32F0xx_HAL_Driver/Src/stm32f0xx_hal_flash_ex.c ****  *  @brief   FLASH Memory Erasing functions
 119:Drivers/STM32F0xx_HAL_Driver/Src/stm32f0xx_hal_flash_ex.c ****   *
 120:Drivers/STM32F0xx_HAL_Driver/Src/stm32f0xx_hal_flash_ex.c **** @verbatim   
 121:Drivers/STM32F0xx_HAL_Driver/Src/stm32f0xx_hal_flash_ex.c ****   ==============================================================================
 122:Drivers/STM32F0xx_HAL_Driver/Src/stm32f0xx_hal_flash_ex.c ****                 ##### FLASH Erasing Programming functions ##### 
 123:Drivers/STM32F0xx_HAL_Driver/Src/stm32f0xx_hal_flash_ex.c ****   ==============================================================================
 124:Drivers/STM32F0xx_HAL_Driver/Src/stm32f0xx_hal_flash_ex.c **** 
 125:Drivers/STM32F0xx_HAL_Driver/Src/stm32f0xx_hal_flash_ex.c ****     [..] The FLASH Memory Erasing functions, includes the following functions:
 126:Drivers/STM32F0xx_HAL_Driver/Src/stm32f0xx_hal_flash_ex.c ****     (+) HAL_FLASHEx_Erase: return only when erase has been done
 127:Drivers/STM32F0xx_HAL_Driver/Src/stm32f0xx_hal_flash_ex.c ****     (+) HAL_FLASHEx_Erase_IT: end of erase is done when HAL_FLASH_EndOfOperationCallback 
 128:Drivers/STM32F0xx_HAL_Driver/Src/stm32f0xx_hal_flash_ex.c ****         is called with parameter 0xFFFFFFFF
 129:Drivers/STM32F0xx_HAL_Driver/Src/stm32f0xx_hal_flash_ex.c **** 
 130:Drivers/STM32F0xx_HAL_Driver/Src/stm32f0xx_hal_flash_ex.c ****     [..] Any operation of erase should follow these steps:
 131:Drivers/STM32F0xx_HAL_Driver/Src/stm32f0xx_hal_flash_ex.c ****     (#) Call the HAL_FLASH_Unlock() function to enable the flash control register and 
 132:Drivers/STM32F0xx_HAL_Driver/Src/stm32f0xx_hal_flash_ex.c ****         program memory access.
 133:Drivers/STM32F0xx_HAL_Driver/Src/stm32f0xx_hal_flash_ex.c ****     (#) Call the desired function to erase page.
 134:Drivers/STM32F0xx_HAL_Driver/Src/stm32f0xx_hal_flash_ex.c ****     (#) Call the HAL_FLASH_Lock() to disable the flash program memory access 
 135:Drivers/STM32F0xx_HAL_Driver/Src/stm32f0xx_hal_flash_ex.c ****        (recommended to protect the FLASH memory against possible unwanted operation).
 136:Drivers/STM32F0xx_HAL_Driver/Src/stm32f0xx_hal_flash_ex.c **** 
 137:Drivers/STM32F0xx_HAL_Driver/Src/stm32f0xx_hal_flash_ex.c **** @endverbatim
 138:Drivers/STM32F0xx_HAL_Driver/Src/stm32f0xx_hal_flash_ex.c ****   * @{
 139:Drivers/STM32F0xx_HAL_Driver/Src/stm32f0xx_hal_flash_ex.c ****   */
 140:Drivers/STM32F0xx_HAL_Driver/Src/stm32f0xx_hal_flash_ex.c ****   
 141:Drivers/STM32F0xx_HAL_Driver/Src/stm32f0xx_hal_flash_ex.c **** 
 142:Drivers/STM32F0xx_HAL_Driver/Src/stm32f0xx_hal_flash_ex.c **** /**
 143:Drivers/STM32F0xx_HAL_Driver/Src/stm32f0xx_hal_flash_ex.c ****   * @brief  Perform a mass erase or erase the specified FLASH memory pages
 144:Drivers/STM32F0xx_HAL_Driver/Src/stm32f0xx_hal_flash_ex.c ****   * @note   To correctly run this function, the @ref HAL_FLASH_Unlock() function
 145:Drivers/STM32F0xx_HAL_Driver/Src/stm32f0xx_hal_flash_ex.c ****   *         must be called before.
 146:Drivers/STM32F0xx_HAL_Driver/Src/stm32f0xx_hal_flash_ex.c ****   *         Call the @ref HAL_FLASH_Lock() to disable the flash memory access 
ARM GAS  C:\Users\einom\AppData\Local\Temp\ccRZzXCk.s 			page 4


 147:Drivers/STM32F0xx_HAL_Driver/Src/stm32f0xx_hal_flash_ex.c ****   *         (recommended to protect the FLASH memory against possible unwanted operation)
 148:Drivers/STM32F0xx_HAL_Driver/Src/stm32f0xx_hal_flash_ex.c ****   * @param[in]  pEraseInit pointer to an FLASH_EraseInitTypeDef structure that
 149:Drivers/STM32F0xx_HAL_Driver/Src/stm32f0xx_hal_flash_ex.c ****   *         contains the configuration information for the erasing.
 150:Drivers/STM32F0xx_HAL_Driver/Src/stm32f0xx_hal_flash_ex.c ****   *
 151:Drivers/STM32F0xx_HAL_Driver/Src/stm32f0xx_hal_flash_ex.c ****   * @param[out]  PageError pointer to variable  that
 152:Drivers/STM32F0xx_HAL_Driver/Src/stm32f0xx_hal_flash_ex.c ****   *         contains the configuration information on faulty page in case of error
 153:Drivers/STM32F0xx_HAL_Driver/Src/stm32f0xx_hal_flash_ex.c ****   *         (0xFFFFFFFF means that all the pages have been correctly erased)
 154:Drivers/STM32F0xx_HAL_Driver/Src/stm32f0xx_hal_flash_ex.c ****   *
 155:Drivers/STM32F0xx_HAL_Driver/Src/stm32f0xx_hal_flash_ex.c ****   * @retval HAL_StatusTypeDef HAL Status
 156:Drivers/STM32F0xx_HAL_Driver/Src/stm32f0xx_hal_flash_ex.c ****   */
 157:Drivers/STM32F0xx_HAL_Driver/Src/stm32f0xx_hal_flash_ex.c **** HAL_StatusTypeDef HAL_FLASHEx_Erase(FLASH_EraseInitTypeDef *pEraseInit, uint32_t *PageError)
 158:Drivers/STM32F0xx_HAL_Driver/Src/stm32f0xx_hal_flash_ex.c **** {
  27              		.loc 1 158 1
  28              		.cfi_startproc
  29              		@ args = 0, pretend = 0, frame = 16
  30              		@ frame_needed = 1, uses_anonymous_args = 0
  31 0000 B0B5     		push	{r4, r5, r7, lr}
  32              	.LCFI0:
  33              		.cfi_def_cfa_offset 16
  34              		.cfi_offset 4, -16
  35              		.cfi_offset 5, -12
  36              		.cfi_offset 7, -8
  37              		.cfi_offset 14, -4
  38 0002 84B0     		sub	sp, sp, #16
  39              	.LCFI1:
  40              		.cfi_def_cfa_offset 32
  41 0004 00AF     		add	r7, sp, #0
  42              	.LCFI2:
  43              		.cfi_def_cfa_register 7
  44 0006 7860     		str	r0, [r7, #4]
  45 0008 3960     		str	r1, [r7]
 159:Drivers/STM32F0xx_HAL_Driver/Src/stm32f0xx_hal_flash_ex.c ****   HAL_StatusTypeDef status = HAL_ERROR;
  46              		.loc 1 159 21
  47 000a 0F23     		movs	r3, #15
  48 000c FB18     		adds	r3, r7, r3
  49 000e 0122     		movs	r2, #1
  50 0010 1A70     		strb	r2, [r3]
 160:Drivers/STM32F0xx_HAL_Driver/Src/stm32f0xx_hal_flash_ex.c ****   uint32_t address = 0U;
  51              		.loc 1 160 12
  52 0012 0023     		movs	r3, #0
  53 0014 BB60     		str	r3, [r7, #8]
 161:Drivers/STM32F0xx_HAL_Driver/Src/stm32f0xx_hal_flash_ex.c **** 
 162:Drivers/STM32F0xx_HAL_Driver/Src/stm32f0xx_hal_flash_ex.c ****   /* Process Locked */
 163:Drivers/STM32F0xx_HAL_Driver/Src/stm32f0xx_hal_flash_ex.c ****   __HAL_LOCK(&pFlash);
  54              		.loc 1 163 3
  55 0016 324B     		ldr	r3, .L9
  56 0018 1B7E     		ldrb	r3, [r3, #24]
  57 001a 012B     		cmp	r3, #1
  58 001c 01D1     		bne	.L2
  59              		.loc 1 163 3 is_stmt 0 discriminator 1
  60 001e 0223     		movs	r3, #2
  61              		.loc 1 163 3
  62 0020 5AE0     		b	.L3
  63              	.L2:
  64              		.loc 1 163 3 discriminator 2
  65 0022 2F4B     		ldr	r3, .L9
  66 0024 0122     		movs	r2, #1
ARM GAS  C:\Users\einom\AppData\Local\Temp\ccRZzXCk.s 			page 5


  67 0026 1A76     		strb	r2, [r3, #24]
 164:Drivers/STM32F0xx_HAL_Driver/Src/stm32f0xx_hal_flash_ex.c **** 
 165:Drivers/STM32F0xx_HAL_Driver/Src/stm32f0xx_hal_flash_ex.c ****   /* Check the parameters */
 166:Drivers/STM32F0xx_HAL_Driver/Src/stm32f0xx_hal_flash_ex.c ****   assert_param(IS_FLASH_TYPEERASE(pEraseInit->TypeErase));
 167:Drivers/STM32F0xx_HAL_Driver/Src/stm32f0xx_hal_flash_ex.c **** 
 168:Drivers/STM32F0xx_HAL_Driver/Src/stm32f0xx_hal_flash_ex.c ****   if (pEraseInit->TypeErase == FLASH_TYPEERASE_MASSERASE)
  68              		.loc 1 168 17 is_stmt 1
  69 0028 7B68     		ldr	r3, [r7, #4]
  70 002a 1B68     		ldr	r3, [r3]
  71              		.loc 1 168 6
  72 002c 012B     		cmp	r3, #1
  73 002e 16D1     		bne	.L4
 169:Drivers/STM32F0xx_HAL_Driver/Src/stm32f0xx_hal_flash_ex.c ****   {
 170:Drivers/STM32F0xx_HAL_Driver/Src/stm32f0xx_hal_flash_ex.c ****       /* Mass Erase requested for Bank1 */
 171:Drivers/STM32F0xx_HAL_Driver/Src/stm32f0xx_hal_flash_ex.c ****       /* Wait for last operation to be completed */
 172:Drivers/STM32F0xx_HAL_Driver/Src/stm32f0xx_hal_flash_ex.c ****       if (FLASH_WaitForLastOperation((uint32_t)FLASH_TIMEOUT_VALUE) == HAL_OK)
  74              		.loc 1 172 11
  75 0030 2C4B     		ldr	r3, .L9+4
  76 0032 1800     		movs	r0, r3
  77 0034 FFF7FEFF 		bl	FLASH_WaitForLastOperation
  78 0038 031E     		subs	r3, r0, #0
  79              		.loc 1 172 10 discriminator 1
  80 003a 47D1     		bne	.L5
 173:Drivers/STM32F0xx_HAL_Driver/Src/stm32f0xx_hal_flash_ex.c ****       {
 174:Drivers/STM32F0xx_HAL_Driver/Src/stm32f0xx_hal_flash_ex.c ****         /*Mass erase to be done*/
 175:Drivers/STM32F0xx_HAL_Driver/Src/stm32f0xx_hal_flash_ex.c ****         FLASH_MassErase();
  81              		.loc 1 175 9
  82 003c FFF7FEFF 		bl	FLASH_MassErase
 176:Drivers/STM32F0xx_HAL_Driver/Src/stm32f0xx_hal_flash_ex.c ****         
 177:Drivers/STM32F0xx_HAL_Driver/Src/stm32f0xx_hal_flash_ex.c ****         /* Wait for last operation to be completed */
 178:Drivers/STM32F0xx_HAL_Driver/Src/stm32f0xx_hal_flash_ex.c ****         status = FLASH_WaitForLastOperation((uint32_t)FLASH_TIMEOUT_VALUE);
  83              		.loc 1 178 18
  84 0040 0F23     		movs	r3, #15
  85 0042 FC18     		adds	r4, r7, r3
  86 0044 274B     		ldr	r3, .L9+4
  87 0046 1800     		movs	r0, r3
  88 0048 FFF7FEFF 		bl	FLASH_WaitForLastOperation
  89 004c 0300     		movs	r3, r0
  90 004e 2370     		strb	r3, [r4]
 179:Drivers/STM32F0xx_HAL_Driver/Src/stm32f0xx_hal_flash_ex.c ****         
 180:Drivers/STM32F0xx_HAL_Driver/Src/stm32f0xx_hal_flash_ex.c ****         /* If the erase operation is completed, disable the MER Bit */
 181:Drivers/STM32F0xx_HAL_Driver/Src/stm32f0xx_hal_flash_ex.c ****         CLEAR_BIT(FLASH->CR, FLASH_CR_MER);
  91              		.loc 1 181 9
  92 0050 254B     		ldr	r3, .L9+8
  93 0052 1A69     		ldr	r2, [r3, #16]
  94 0054 244B     		ldr	r3, .L9+8
  95 0056 0421     		movs	r1, #4
  96 0058 8A43     		bics	r2, r1
  97 005a 1A61     		str	r2, [r3, #16]
  98 005c 36E0     		b	.L5
  99              	.L4:
 182:Drivers/STM32F0xx_HAL_Driver/Src/stm32f0xx_hal_flash_ex.c ****       }
 183:Drivers/STM32F0xx_HAL_Driver/Src/stm32f0xx_hal_flash_ex.c ****   }
 184:Drivers/STM32F0xx_HAL_Driver/Src/stm32f0xx_hal_flash_ex.c ****   else
 185:Drivers/STM32F0xx_HAL_Driver/Src/stm32f0xx_hal_flash_ex.c ****   {
 186:Drivers/STM32F0xx_HAL_Driver/Src/stm32f0xx_hal_flash_ex.c ****     /* Page Erase is requested */
 187:Drivers/STM32F0xx_HAL_Driver/Src/stm32f0xx_hal_flash_ex.c ****     /* Check the parameters */
ARM GAS  C:\Users\einom\AppData\Local\Temp\ccRZzXCk.s 			page 6


 188:Drivers/STM32F0xx_HAL_Driver/Src/stm32f0xx_hal_flash_ex.c ****     assert_param(IS_FLASH_PROGRAM_ADDRESS(pEraseInit->PageAddress));
 189:Drivers/STM32F0xx_HAL_Driver/Src/stm32f0xx_hal_flash_ex.c ****     assert_param(IS_FLASH_NB_PAGES(pEraseInit->PageAddress, pEraseInit->NbPages));
 190:Drivers/STM32F0xx_HAL_Driver/Src/stm32f0xx_hal_flash_ex.c ****     
 191:Drivers/STM32F0xx_HAL_Driver/Src/stm32f0xx_hal_flash_ex.c ****       /* Page Erase requested on address located on bank1 */
 192:Drivers/STM32F0xx_HAL_Driver/Src/stm32f0xx_hal_flash_ex.c ****       /* Wait for last operation to be completed */
 193:Drivers/STM32F0xx_HAL_Driver/Src/stm32f0xx_hal_flash_ex.c ****       if (FLASH_WaitForLastOperation((uint32_t)FLASH_TIMEOUT_VALUE) == HAL_OK)
 100              		.loc 1 193 11
 101 005e 214B     		ldr	r3, .L9+4
 102 0060 1800     		movs	r0, r3
 103 0062 FFF7FEFF 		bl	FLASH_WaitForLastOperation
 104 0066 031E     		subs	r3, r0, #0
 105              		.loc 1 193 10 discriminator 1
 106 0068 30D1     		bne	.L5
 194:Drivers/STM32F0xx_HAL_Driver/Src/stm32f0xx_hal_flash_ex.c ****       {
 195:Drivers/STM32F0xx_HAL_Driver/Src/stm32f0xx_hal_flash_ex.c ****         /*Initialization of PageError variable*/
 196:Drivers/STM32F0xx_HAL_Driver/Src/stm32f0xx_hal_flash_ex.c ****         *PageError = 0xFFFFFFFFU;
 107              		.loc 1 196 20
 108 006a 3B68     		ldr	r3, [r7]
 109 006c 0122     		movs	r2, #1
 110 006e 5242     		rsbs	r2, r2, #0
 111 0070 1A60     		str	r2, [r3]
 197:Drivers/STM32F0xx_HAL_Driver/Src/stm32f0xx_hal_flash_ex.c ****         
 198:Drivers/STM32F0xx_HAL_Driver/Src/stm32f0xx_hal_flash_ex.c ****         /* Erase page by page to be done*/
 199:Drivers/STM32F0xx_HAL_Driver/Src/stm32f0xx_hal_flash_ex.c ****         for(address = pEraseInit->PageAddress;
 112              		.loc 1 199 21
 113 0072 7B68     		ldr	r3, [r7, #4]
 114 0074 5B68     		ldr	r3, [r3, #4]
 115 0076 BB60     		str	r3, [r7, #8]
 116              		.loc 1 199 9
 117 0078 1FE0     		b	.L6
 118              	.L8:
 200:Drivers/STM32F0xx_HAL_Driver/Src/stm32f0xx_hal_flash_ex.c ****             address < ((pEraseInit->NbPages * FLASH_PAGE_SIZE) + pEraseInit->PageAddress);
 201:Drivers/STM32F0xx_HAL_Driver/Src/stm32f0xx_hal_flash_ex.c ****             address += FLASH_PAGE_SIZE)
 202:Drivers/STM32F0xx_HAL_Driver/Src/stm32f0xx_hal_flash_ex.c ****         {
 203:Drivers/STM32F0xx_HAL_Driver/Src/stm32f0xx_hal_flash_ex.c ****           FLASH_PageErase(address);
 119              		.loc 1 203 11
 120 007a BB68     		ldr	r3, [r7, #8]
 121 007c 1800     		movs	r0, r3
 122 007e FFF7FEFF 		bl	FLASH_PageErase
 204:Drivers/STM32F0xx_HAL_Driver/Src/stm32f0xx_hal_flash_ex.c ****           
 205:Drivers/STM32F0xx_HAL_Driver/Src/stm32f0xx_hal_flash_ex.c ****           /* Wait for last operation to be completed */
 206:Drivers/STM32F0xx_HAL_Driver/Src/stm32f0xx_hal_flash_ex.c ****           status = FLASH_WaitForLastOperation((uint32_t)FLASH_TIMEOUT_VALUE);
 123              		.loc 1 206 20
 124 0082 0F25     		movs	r5, #15
 125 0084 7C19     		adds	r4, r7, r5
 126 0086 174B     		ldr	r3, .L9+4
 127 0088 1800     		movs	r0, r3
 128 008a FFF7FEFF 		bl	FLASH_WaitForLastOperation
 129 008e 0300     		movs	r3, r0
 130 0090 2370     		strb	r3, [r4]
 207:Drivers/STM32F0xx_HAL_Driver/Src/stm32f0xx_hal_flash_ex.c ****           
 208:Drivers/STM32F0xx_HAL_Driver/Src/stm32f0xx_hal_flash_ex.c ****           /* If the erase operation is completed, disable the PER Bit */
 209:Drivers/STM32F0xx_HAL_Driver/Src/stm32f0xx_hal_flash_ex.c ****           CLEAR_BIT(FLASH->CR, FLASH_CR_PER);
 131              		.loc 1 209 11
 132 0092 154B     		ldr	r3, .L9+8
 133 0094 1A69     		ldr	r2, [r3, #16]
 134 0096 144B     		ldr	r3, .L9+8
ARM GAS  C:\Users\einom\AppData\Local\Temp\ccRZzXCk.s 			page 7


 135 0098 0221     		movs	r1, #2
 136 009a 8A43     		bics	r2, r1
 137 009c 1A61     		str	r2, [r3, #16]
 210:Drivers/STM32F0xx_HAL_Driver/Src/stm32f0xx_hal_flash_ex.c ****           
 211:Drivers/STM32F0xx_HAL_Driver/Src/stm32f0xx_hal_flash_ex.c ****           if (status != HAL_OK)
 138              		.loc 1 211 14
 139 009e 7B19     		adds	r3, r7, r5
 140 00a0 1B78     		ldrb	r3, [r3]
 141 00a2 002B     		cmp	r3, #0
 142 00a4 03D0     		beq	.L7
 212:Drivers/STM32F0xx_HAL_Driver/Src/stm32f0xx_hal_flash_ex.c ****           {
 213:Drivers/STM32F0xx_HAL_Driver/Src/stm32f0xx_hal_flash_ex.c ****             /* In case of error, stop erase procedure and return the faulty address */
 214:Drivers/STM32F0xx_HAL_Driver/Src/stm32f0xx_hal_flash_ex.c ****             *PageError = address;
 143              		.loc 1 214 24
 144 00a6 3B68     		ldr	r3, [r7]
 145 00a8 BA68     		ldr	r2, [r7, #8]
 146 00aa 1A60     		str	r2, [r3]
 215:Drivers/STM32F0xx_HAL_Driver/Src/stm32f0xx_hal_flash_ex.c ****             break;
 147              		.loc 1 215 13
 148 00ac 0EE0     		b	.L5
 149              	.L7:
 201:Drivers/STM32F0xx_HAL_Driver/Src/stm32f0xx_hal_flash_ex.c ****         {
 150              		.loc 1 201 21
 151 00ae BB68     		ldr	r3, [r7, #8]
 152 00b0 8022     		movs	r2, #128
 153 00b2 D200     		lsls	r2, r2, #3
 154 00b4 9446     		mov	ip, r2
 155 00b6 6344     		add	r3, r3, ip
 156 00b8 BB60     		str	r3, [r7, #8]
 157              	.L6:
 200:Drivers/STM32F0xx_HAL_Driver/Src/stm32f0xx_hal_flash_ex.c ****             address += FLASH_PAGE_SIZE)
 158              		.loc 1 200 35
 159 00ba 7B68     		ldr	r3, [r7, #4]
 160 00bc 9B68     		ldr	r3, [r3, #8]
 200:Drivers/STM32F0xx_HAL_Driver/Src/stm32f0xx_hal_flash_ex.c ****             address += FLASH_PAGE_SIZE)
 161              		.loc 1 200 45
 162 00be 9A02     		lsls	r2, r3, #10
 200:Drivers/STM32F0xx_HAL_Driver/Src/stm32f0xx_hal_flash_ex.c ****             address += FLASH_PAGE_SIZE)
 163              		.loc 1 200 76
 164 00c0 7B68     		ldr	r3, [r7, #4]
 165 00c2 5B68     		ldr	r3, [r3, #4]
 200:Drivers/STM32F0xx_HAL_Driver/Src/stm32f0xx_hal_flash_ex.c ****             address += FLASH_PAGE_SIZE)
 166              		.loc 1 200 64
 167 00c4 D318     		adds	r3, r2, r3
 200:Drivers/STM32F0xx_HAL_Driver/Src/stm32f0xx_hal_flash_ex.c ****             address += FLASH_PAGE_SIZE)
 168              		.loc 1 200 21
 169 00c6 BA68     		ldr	r2, [r7, #8]
 170 00c8 9A42     		cmp	r2, r3
 171 00ca D6D3     		bcc	.L8
 172              	.L5:
 216:Drivers/STM32F0xx_HAL_Driver/Src/stm32f0xx_hal_flash_ex.c ****           }
 217:Drivers/STM32F0xx_HAL_Driver/Src/stm32f0xx_hal_flash_ex.c ****         }
 218:Drivers/STM32F0xx_HAL_Driver/Src/stm32f0xx_hal_flash_ex.c ****       }
 219:Drivers/STM32F0xx_HAL_Driver/Src/stm32f0xx_hal_flash_ex.c ****   }
 220:Drivers/STM32F0xx_HAL_Driver/Src/stm32f0xx_hal_flash_ex.c **** 
 221:Drivers/STM32F0xx_HAL_Driver/Src/stm32f0xx_hal_flash_ex.c ****   /* Process Unlocked */
 222:Drivers/STM32F0xx_HAL_Driver/Src/stm32f0xx_hal_flash_ex.c ****   __HAL_UNLOCK(&pFlash);
ARM GAS  C:\Users\einom\AppData\Local\Temp\ccRZzXCk.s 			page 8


 173              		.loc 1 222 3
 174 00cc 044B     		ldr	r3, .L9
 175 00ce 0022     		movs	r2, #0
 176 00d0 1A76     		strb	r2, [r3, #24]
 223:Drivers/STM32F0xx_HAL_Driver/Src/stm32f0xx_hal_flash_ex.c **** 
 224:Drivers/STM32F0xx_HAL_Driver/Src/stm32f0xx_hal_flash_ex.c ****   return status;
 177              		.loc 1 224 10
 178 00d2 0F23     		movs	r3, #15
 179 00d4 FB18     		adds	r3, r7, r3
 180 00d6 1B78     		ldrb	r3, [r3]
 181              	.L3:
 225:Drivers/STM32F0xx_HAL_Driver/Src/stm32f0xx_hal_flash_ex.c **** }
 182              		.loc 1 225 1
 183 00d8 1800     		movs	r0, r3
 184 00da BD46     		mov	sp, r7
 185 00dc 04B0     		add	sp, sp, #16
 186              		@ sp needed
 187 00de B0BD     		pop	{r4, r5, r7, pc}
 188              	.L10:
 189              		.align	2
 190              	.L9:
 191 00e0 00000000 		.word	pFlash
 192 00e4 50C30000 		.word	50000
 193 00e8 00200240 		.word	1073881088
 194              		.cfi_endproc
 195              	.LFE40:
 197              		.section	.text.HAL_FLASHEx_Erase_IT,"ax",%progbits
 198              		.align	1
 199              		.global	HAL_FLASHEx_Erase_IT
 200              		.syntax unified
 201              		.code	16
 202              		.thumb_func
 204              	HAL_FLASHEx_Erase_IT:
 205              	.LFB41:
 226:Drivers/STM32F0xx_HAL_Driver/Src/stm32f0xx_hal_flash_ex.c **** 
 227:Drivers/STM32F0xx_HAL_Driver/Src/stm32f0xx_hal_flash_ex.c **** /**
 228:Drivers/STM32F0xx_HAL_Driver/Src/stm32f0xx_hal_flash_ex.c ****   * @brief  Perform a mass erase or erase the specified FLASH memory pages with interrupt enabled
 229:Drivers/STM32F0xx_HAL_Driver/Src/stm32f0xx_hal_flash_ex.c ****   * @note   To correctly run this function, the @ref HAL_FLASH_Unlock() function
 230:Drivers/STM32F0xx_HAL_Driver/Src/stm32f0xx_hal_flash_ex.c ****   *         must be called before.
 231:Drivers/STM32F0xx_HAL_Driver/Src/stm32f0xx_hal_flash_ex.c ****   *         Call the @ref HAL_FLASH_Lock() to disable the flash memory access 
 232:Drivers/STM32F0xx_HAL_Driver/Src/stm32f0xx_hal_flash_ex.c ****   *         (recommended to protect the FLASH memory against possible unwanted operation)
 233:Drivers/STM32F0xx_HAL_Driver/Src/stm32f0xx_hal_flash_ex.c ****   * @param  pEraseInit pointer to an FLASH_EraseInitTypeDef structure that
 234:Drivers/STM32F0xx_HAL_Driver/Src/stm32f0xx_hal_flash_ex.c ****   *         contains the configuration information for the erasing.
 235:Drivers/STM32F0xx_HAL_Driver/Src/stm32f0xx_hal_flash_ex.c ****   *
 236:Drivers/STM32F0xx_HAL_Driver/Src/stm32f0xx_hal_flash_ex.c ****   * @retval HAL_StatusTypeDef HAL Status
 237:Drivers/STM32F0xx_HAL_Driver/Src/stm32f0xx_hal_flash_ex.c ****   */
 238:Drivers/STM32F0xx_HAL_Driver/Src/stm32f0xx_hal_flash_ex.c **** HAL_StatusTypeDef HAL_FLASHEx_Erase_IT(FLASH_EraseInitTypeDef *pEraseInit)
 239:Drivers/STM32F0xx_HAL_Driver/Src/stm32f0xx_hal_flash_ex.c **** {
 206              		.loc 1 239 1
 207              		.cfi_startproc
 208              		@ args = 0, pretend = 0, frame = 16
 209              		@ frame_needed = 1, uses_anonymous_args = 0
 210 0000 80B5     		push	{r7, lr}
 211              	.LCFI3:
 212              		.cfi_def_cfa_offset 8
 213              		.cfi_offset 7, -8
 214              		.cfi_offset 14, -4
ARM GAS  C:\Users\einom\AppData\Local\Temp\ccRZzXCk.s 			page 9


 215 0002 84B0     		sub	sp, sp, #16
 216              	.LCFI4:
 217              		.cfi_def_cfa_offset 24
 218 0004 00AF     		add	r7, sp, #0
 219              	.LCFI5:
 220              		.cfi_def_cfa_register 7
 221 0006 7860     		str	r0, [r7, #4]
 240:Drivers/STM32F0xx_HAL_Driver/Src/stm32f0xx_hal_flash_ex.c ****   HAL_StatusTypeDef status = HAL_OK;
 222              		.loc 1 240 21
 223 0008 0F23     		movs	r3, #15
 224 000a FB18     		adds	r3, r7, r3
 225 000c 0022     		movs	r2, #0
 226 000e 1A70     		strb	r2, [r3]
 241:Drivers/STM32F0xx_HAL_Driver/Src/stm32f0xx_hal_flash_ex.c **** 
 242:Drivers/STM32F0xx_HAL_Driver/Src/stm32f0xx_hal_flash_ex.c ****   /* Process Locked */
 243:Drivers/STM32F0xx_HAL_Driver/Src/stm32f0xx_hal_flash_ex.c ****   __HAL_LOCK(&pFlash);
 227              		.loc 1 243 3
 228 0010 1B4B     		ldr	r3, .L17
 229 0012 1B7E     		ldrb	r3, [r3, #24]
 230 0014 012B     		cmp	r3, #1
 231 0016 01D1     		bne	.L12
 232              		.loc 1 243 3 is_stmt 0 discriminator 1
 233 0018 0223     		movs	r3, #2
 234              		.loc 1 243 3
 235 001a 2DE0     		b	.L13
 236              	.L12:
 237              		.loc 1 243 3 discriminator 2
 238 001c 184B     		ldr	r3, .L17
 239 001e 0122     		movs	r2, #1
 240 0020 1A76     		strb	r2, [r3, #24]
 244:Drivers/STM32F0xx_HAL_Driver/Src/stm32f0xx_hal_flash_ex.c **** 
 245:Drivers/STM32F0xx_HAL_Driver/Src/stm32f0xx_hal_flash_ex.c ****   /* If procedure already ongoing, reject the next one */
 246:Drivers/STM32F0xx_HAL_Driver/Src/stm32f0xx_hal_flash_ex.c ****   if (pFlash.ProcedureOnGoing != FLASH_PROC_NONE)
 241              		.loc 1 246 13 is_stmt 1
 242 0022 174B     		ldr	r3, .L17
 243 0024 1B78     		ldrb	r3, [r3]
 244 0026 DBB2     		uxtb	r3, r3
 245              		.loc 1 246 6
 246 0028 002B     		cmp	r3, #0
 247 002a 01D0     		beq	.L14
 247:Drivers/STM32F0xx_HAL_Driver/Src/stm32f0xx_hal_flash_ex.c ****   {
 248:Drivers/STM32F0xx_HAL_Driver/Src/stm32f0xx_hal_flash_ex.c ****     return HAL_ERROR;
 248              		.loc 1 248 12
 249 002c 0123     		movs	r3, #1
 250 002e 23E0     		b	.L13
 251              	.L14:
 249:Drivers/STM32F0xx_HAL_Driver/Src/stm32f0xx_hal_flash_ex.c ****   }
 250:Drivers/STM32F0xx_HAL_Driver/Src/stm32f0xx_hal_flash_ex.c ****   
 251:Drivers/STM32F0xx_HAL_Driver/Src/stm32f0xx_hal_flash_ex.c ****   /* Check the parameters */
 252:Drivers/STM32F0xx_HAL_Driver/Src/stm32f0xx_hal_flash_ex.c ****   assert_param(IS_FLASH_TYPEERASE(pEraseInit->TypeErase));
 253:Drivers/STM32F0xx_HAL_Driver/Src/stm32f0xx_hal_flash_ex.c **** 
 254:Drivers/STM32F0xx_HAL_Driver/Src/stm32f0xx_hal_flash_ex.c ****   /* Enable End of FLASH Operation and Error source interrupts */
 255:Drivers/STM32F0xx_HAL_Driver/Src/stm32f0xx_hal_flash_ex.c ****   __HAL_FLASH_ENABLE_IT(FLASH_IT_EOP | FLASH_IT_ERR);
 252              		.loc 1 255 3
 253 0030 144B     		ldr	r3, .L17+4
 254 0032 1A69     		ldr	r2, [r3, #16]
 255 0034 134B     		ldr	r3, .L17+4
ARM GAS  C:\Users\einom\AppData\Local\Temp\ccRZzXCk.s 			page 10


 256 0036 A021     		movs	r1, #160
 257 0038 4901     		lsls	r1, r1, #5
 258 003a 0A43     		orrs	r2, r1
 259 003c 1A61     		str	r2, [r3, #16]
 256:Drivers/STM32F0xx_HAL_Driver/Src/stm32f0xx_hal_flash_ex.c **** 
 257:Drivers/STM32F0xx_HAL_Driver/Src/stm32f0xx_hal_flash_ex.c ****   if (pEraseInit->TypeErase == FLASH_TYPEERASE_MASSERASE)
 260              		.loc 1 257 17
 261 003e 7B68     		ldr	r3, [r7, #4]
 262 0040 1B68     		ldr	r3, [r3]
 263              		.loc 1 257 6
 264 0042 012B     		cmp	r3, #1
 265 0044 05D1     		bne	.L15
 258:Drivers/STM32F0xx_HAL_Driver/Src/stm32f0xx_hal_flash_ex.c ****   {
 259:Drivers/STM32F0xx_HAL_Driver/Src/stm32f0xx_hal_flash_ex.c ****     /*Mass erase to be done*/
 260:Drivers/STM32F0xx_HAL_Driver/Src/stm32f0xx_hal_flash_ex.c ****     pFlash.ProcedureOnGoing = FLASH_PROC_MASSERASE;
 266              		.loc 1 260 29
 267 0046 0E4B     		ldr	r3, .L17
 268 0048 0222     		movs	r2, #2
 269 004a 1A70     		strb	r2, [r3]
 261:Drivers/STM32F0xx_HAL_Driver/Src/stm32f0xx_hal_flash_ex.c ****         FLASH_MassErase();
 270              		.loc 1 261 9
 271 004c FFF7FEFF 		bl	FLASH_MassErase
 272 0050 0FE0     		b	.L16
 273              	.L15:
 262:Drivers/STM32F0xx_HAL_Driver/Src/stm32f0xx_hal_flash_ex.c ****   }
 263:Drivers/STM32F0xx_HAL_Driver/Src/stm32f0xx_hal_flash_ex.c ****   else
 264:Drivers/STM32F0xx_HAL_Driver/Src/stm32f0xx_hal_flash_ex.c ****   {
 265:Drivers/STM32F0xx_HAL_Driver/Src/stm32f0xx_hal_flash_ex.c ****     /* Erase by page to be done*/
 266:Drivers/STM32F0xx_HAL_Driver/Src/stm32f0xx_hal_flash_ex.c **** 
 267:Drivers/STM32F0xx_HAL_Driver/Src/stm32f0xx_hal_flash_ex.c ****     /* Check the parameters */
 268:Drivers/STM32F0xx_HAL_Driver/Src/stm32f0xx_hal_flash_ex.c ****     assert_param(IS_FLASH_PROGRAM_ADDRESS(pEraseInit->PageAddress));
 269:Drivers/STM32F0xx_HAL_Driver/Src/stm32f0xx_hal_flash_ex.c ****     assert_param(IS_FLASH_NB_PAGES(pEraseInit->PageAddress, pEraseInit->NbPages));
 270:Drivers/STM32F0xx_HAL_Driver/Src/stm32f0xx_hal_flash_ex.c **** 
 271:Drivers/STM32F0xx_HAL_Driver/Src/stm32f0xx_hal_flash_ex.c ****     pFlash.ProcedureOnGoing = FLASH_PROC_PAGEERASE;
 274              		.loc 1 271 29
 275 0052 0B4B     		ldr	r3, .L17
 276 0054 0122     		movs	r2, #1
 277 0056 1A70     		strb	r2, [r3]
 272:Drivers/STM32F0xx_HAL_Driver/Src/stm32f0xx_hal_flash_ex.c ****     pFlash.DataRemaining = pEraseInit->NbPages;
 278              		.loc 1 272 38
 279 0058 7B68     		ldr	r3, [r7, #4]
 280 005a 9A68     		ldr	r2, [r3, #8]
 281              		.loc 1 272 26
 282 005c 084B     		ldr	r3, .L17
 283 005e 5A60     		str	r2, [r3, #4]
 273:Drivers/STM32F0xx_HAL_Driver/Src/stm32f0xx_hal_flash_ex.c ****     pFlash.Address = pEraseInit->PageAddress;
 284              		.loc 1 273 32
 285 0060 7B68     		ldr	r3, [r7, #4]
 286 0062 5A68     		ldr	r2, [r3, #4]
 287              		.loc 1 273 20
 288 0064 064B     		ldr	r3, .L17
 289 0066 9A60     		str	r2, [r3, #8]
 274:Drivers/STM32F0xx_HAL_Driver/Src/stm32f0xx_hal_flash_ex.c **** 
 275:Drivers/STM32F0xx_HAL_Driver/Src/stm32f0xx_hal_flash_ex.c ****     /*Erase 1st page and wait for IT*/
 276:Drivers/STM32F0xx_HAL_Driver/Src/stm32f0xx_hal_flash_ex.c ****     FLASH_PageErase(pEraseInit->PageAddress);
 290              		.loc 1 276 5
 291 0068 7B68     		ldr	r3, [r7, #4]
ARM GAS  C:\Users\einom\AppData\Local\Temp\ccRZzXCk.s 			page 11


 292 006a 5B68     		ldr	r3, [r3, #4]
 293 006c 1800     		movs	r0, r3
 294 006e FFF7FEFF 		bl	FLASH_PageErase
 295              	.L16:
 277:Drivers/STM32F0xx_HAL_Driver/Src/stm32f0xx_hal_flash_ex.c ****   }
 278:Drivers/STM32F0xx_HAL_Driver/Src/stm32f0xx_hal_flash_ex.c **** 
 279:Drivers/STM32F0xx_HAL_Driver/Src/stm32f0xx_hal_flash_ex.c ****   return status;
 296              		.loc 1 279 10
 297 0072 0F23     		movs	r3, #15
 298 0074 FB18     		adds	r3, r7, r3
 299 0076 1B78     		ldrb	r3, [r3]
 300              	.L13:
 280:Drivers/STM32F0xx_HAL_Driver/Src/stm32f0xx_hal_flash_ex.c **** }
 301              		.loc 1 280 1
 302 0078 1800     		movs	r0, r3
 303 007a BD46     		mov	sp, r7
 304 007c 04B0     		add	sp, sp, #16
 305              		@ sp needed
 306 007e 80BD     		pop	{r7, pc}
 307              	.L18:
 308              		.align	2
 309              	.L17:
 310 0080 00000000 		.word	pFlash
 311 0084 00200240 		.word	1073881088
 312              		.cfi_endproc
 313              	.LFE41:
 315              		.section	.text.HAL_FLASHEx_OBErase,"ax",%progbits
 316              		.align	1
 317              		.global	HAL_FLASHEx_OBErase
 318              		.syntax unified
 319              		.code	16
 320              		.thumb_func
 322              	HAL_FLASHEx_OBErase:
 323              	.LFB42:
 281:Drivers/STM32F0xx_HAL_Driver/Src/stm32f0xx_hal_flash_ex.c **** 
 282:Drivers/STM32F0xx_HAL_Driver/Src/stm32f0xx_hal_flash_ex.c **** /**
 283:Drivers/STM32F0xx_HAL_Driver/Src/stm32f0xx_hal_flash_ex.c ****   * @}
 284:Drivers/STM32F0xx_HAL_Driver/Src/stm32f0xx_hal_flash_ex.c ****   */
 285:Drivers/STM32F0xx_HAL_Driver/Src/stm32f0xx_hal_flash_ex.c **** 
 286:Drivers/STM32F0xx_HAL_Driver/Src/stm32f0xx_hal_flash_ex.c **** /** @defgroup FLASHEx_Exported_Functions_Group2 Option Bytes Programming functions
 287:Drivers/STM32F0xx_HAL_Driver/Src/stm32f0xx_hal_flash_ex.c ****  *  @brief   Option Bytes Programming functions
 288:Drivers/STM32F0xx_HAL_Driver/Src/stm32f0xx_hal_flash_ex.c ****   *
 289:Drivers/STM32F0xx_HAL_Driver/Src/stm32f0xx_hal_flash_ex.c **** @verbatim   
 290:Drivers/STM32F0xx_HAL_Driver/Src/stm32f0xx_hal_flash_ex.c ****   ==============================================================================
 291:Drivers/STM32F0xx_HAL_Driver/Src/stm32f0xx_hal_flash_ex.c ****                 ##### Option Bytes Programming functions ##### 
 292:Drivers/STM32F0xx_HAL_Driver/Src/stm32f0xx_hal_flash_ex.c ****   ==============================================================================  
 293:Drivers/STM32F0xx_HAL_Driver/Src/stm32f0xx_hal_flash_ex.c ****     [..]
 294:Drivers/STM32F0xx_HAL_Driver/Src/stm32f0xx_hal_flash_ex.c ****     This subsection provides a set of functions allowing to control the FLASH 
 295:Drivers/STM32F0xx_HAL_Driver/Src/stm32f0xx_hal_flash_ex.c ****     option bytes operations.
 296:Drivers/STM32F0xx_HAL_Driver/Src/stm32f0xx_hal_flash_ex.c **** 
 297:Drivers/STM32F0xx_HAL_Driver/Src/stm32f0xx_hal_flash_ex.c **** @endverbatim
 298:Drivers/STM32F0xx_HAL_Driver/Src/stm32f0xx_hal_flash_ex.c ****   * @{
 299:Drivers/STM32F0xx_HAL_Driver/Src/stm32f0xx_hal_flash_ex.c ****   */
 300:Drivers/STM32F0xx_HAL_Driver/Src/stm32f0xx_hal_flash_ex.c **** 
 301:Drivers/STM32F0xx_HAL_Driver/Src/stm32f0xx_hal_flash_ex.c **** /**
 302:Drivers/STM32F0xx_HAL_Driver/Src/stm32f0xx_hal_flash_ex.c ****   * @brief  Erases the FLASH option bytes.
 303:Drivers/STM32F0xx_HAL_Driver/Src/stm32f0xx_hal_flash_ex.c ****   * @note   This functions erases all option bytes except the Read protection (RDP).
ARM GAS  C:\Users\einom\AppData\Local\Temp\ccRZzXCk.s 			page 12


 304:Drivers/STM32F0xx_HAL_Driver/Src/stm32f0xx_hal_flash_ex.c ****   *         The function @ref HAL_FLASH_Unlock() should be called before to unlock the FLASH interf
 305:Drivers/STM32F0xx_HAL_Driver/Src/stm32f0xx_hal_flash_ex.c ****   *         The function @ref HAL_FLASH_OB_Unlock() should be called before to unlock the options b
 306:Drivers/STM32F0xx_HAL_Driver/Src/stm32f0xx_hal_flash_ex.c ****   *         The function @ref HAL_FLASH_OB_Launch() should be called after to force the reload of t
 307:Drivers/STM32F0xx_HAL_Driver/Src/stm32f0xx_hal_flash_ex.c ****   *         (system reset will occur)
 308:Drivers/STM32F0xx_HAL_Driver/Src/stm32f0xx_hal_flash_ex.c ****   * @retval HAL status
 309:Drivers/STM32F0xx_HAL_Driver/Src/stm32f0xx_hal_flash_ex.c ****   */
 310:Drivers/STM32F0xx_HAL_Driver/Src/stm32f0xx_hal_flash_ex.c **** 
 311:Drivers/STM32F0xx_HAL_Driver/Src/stm32f0xx_hal_flash_ex.c **** HAL_StatusTypeDef HAL_FLASHEx_OBErase(void)
 312:Drivers/STM32F0xx_HAL_Driver/Src/stm32f0xx_hal_flash_ex.c **** {
 324              		.loc 1 312 1
 325              		.cfi_startproc
 326              		@ args = 0, pretend = 0, frame = 8
 327              		@ frame_needed = 1, uses_anonymous_args = 0
 328 0000 90B5     		push	{r4, r7, lr}
 329              	.LCFI6:
 330              		.cfi_def_cfa_offset 12
 331              		.cfi_offset 4, -12
 332              		.cfi_offset 7, -8
 333              		.cfi_offset 14, -4
 334 0002 83B0     		sub	sp, sp, #12
 335              	.LCFI7:
 336              		.cfi_def_cfa_offset 24
 337 0004 00AF     		add	r7, sp, #0
 338              	.LCFI8:
 339              		.cfi_def_cfa_register 7
 313:Drivers/STM32F0xx_HAL_Driver/Src/stm32f0xx_hal_flash_ex.c ****   uint8_t rdptmp = OB_RDP_LEVEL_0;
 340              		.loc 1 313 11
 341 0006 BB1D     		adds	r3, r7, #6
 342 0008 AA22     		movs	r2, #170
 343 000a 1A70     		strb	r2, [r3]
 314:Drivers/STM32F0xx_HAL_Driver/Src/stm32f0xx_hal_flash_ex.c ****   HAL_StatusTypeDef status = HAL_ERROR;
 344              		.loc 1 314 21
 345 000c FB1D     		adds	r3, r7, #7
 346 000e 0122     		movs	r2, #1
 347 0010 1A70     		strb	r2, [r3]
 315:Drivers/STM32F0xx_HAL_Driver/Src/stm32f0xx_hal_flash_ex.c **** 
 316:Drivers/STM32F0xx_HAL_Driver/Src/stm32f0xx_hal_flash_ex.c ****   /* Get the actual read protection Option Byte value */
 317:Drivers/STM32F0xx_HAL_Driver/Src/stm32f0xx_hal_flash_ex.c ****   rdptmp = FLASH_OB_GetRDP();
 348              		.loc 1 317 12
 349 0012 FFF7FEFF 		bl	FLASH_OB_GetRDP
 350 0016 0200     		movs	r2, r0
 351              		.loc 1 317 10 discriminator 1
 352 0018 BB1D     		adds	r3, r7, #6
 353 001a 1A70     		strb	r2, [r3]
 318:Drivers/STM32F0xx_HAL_Driver/Src/stm32f0xx_hal_flash_ex.c **** 
 319:Drivers/STM32F0xx_HAL_Driver/Src/stm32f0xx_hal_flash_ex.c ****   /* Wait for last operation to be completed */
 320:Drivers/STM32F0xx_HAL_Driver/Src/stm32f0xx_hal_flash_ex.c ****   status = FLASH_WaitForLastOperation((uint32_t)FLASH_TIMEOUT_VALUE);
 354              		.loc 1 320 12
 355 001c FC1D     		adds	r4, r7, #7
 356 001e 1C4B     		ldr	r3, .L22
 357 0020 1800     		movs	r0, r3
 358 0022 FFF7FEFF 		bl	FLASH_WaitForLastOperation
 359 0026 0300     		movs	r3, r0
 360 0028 2370     		strb	r3, [r4]
 321:Drivers/STM32F0xx_HAL_Driver/Src/stm32f0xx_hal_flash_ex.c **** 
 322:Drivers/STM32F0xx_HAL_Driver/Src/stm32f0xx_hal_flash_ex.c ****   if(status == HAL_OK)
 361              		.loc 1 322 5
ARM GAS  C:\Users\einom\AppData\Local\Temp\ccRZzXCk.s 			page 13


 362 002a FB1D     		adds	r3, r7, #7
 363 002c 1B78     		ldrb	r3, [r3]
 364 002e 002B     		cmp	r3, #0
 365 0030 27D1     		bne	.L20
 323:Drivers/STM32F0xx_HAL_Driver/Src/stm32f0xx_hal_flash_ex.c ****   {
 324:Drivers/STM32F0xx_HAL_Driver/Src/stm32f0xx_hal_flash_ex.c ****     /* Clean the error context */
 325:Drivers/STM32F0xx_HAL_Driver/Src/stm32f0xx_hal_flash_ex.c ****     pFlash.ErrorCode = HAL_FLASH_ERROR_NONE;
 366              		.loc 1 325 22
 367 0032 184B     		ldr	r3, .L22+4
 368 0034 0022     		movs	r2, #0
 369 0036 DA61     		str	r2, [r3, #28]
 326:Drivers/STM32F0xx_HAL_Driver/Src/stm32f0xx_hal_flash_ex.c **** 
 327:Drivers/STM32F0xx_HAL_Driver/Src/stm32f0xx_hal_flash_ex.c ****     /* If the previous operation is completed, proceed to erase the option bytes */
 328:Drivers/STM32F0xx_HAL_Driver/Src/stm32f0xx_hal_flash_ex.c ****     SET_BIT(FLASH->CR, FLASH_CR_OPTER);
 370              		.loc 1 328 5
 371 0038 174B     		ldr	r3, .L22+8
 372 003a 1A69     		ldr	r2, [r3, #16]
 373 003c 164B     		ldr	r3, .L22+8
 374 003e 2021     		movs	r1, #32
 375 0040 0A43     		orrs	r2, r1
 376 0042 1A61     		str	r2, [r3, #16]
 329:Drivers/STM32F0xx_HAL_Driver/Src/stm32f0xx_hal_flash_ex.c ****     SET_BIT(FLASH->CR, FLASH_CR_STRT);
 377              		.loc 1 329 5
 378 0044 144B     		ldr	r3, .L22+8
 379 0046 1A69     		ldr	r2, [r3, #16]
 380 0048 134B     		ldr	r3, .L22+8
 381 004a 4021     		movs	r1, #64
 382 004c 0A43     		orrs	r2, r1
 383 004e 1A61     		str	r2, [r3, #16]
 330:Drivers/STM32F0xx_HAL_Driver/Src/stm32f0xx_hal_flash_ex.c **** 
 331:Drivers/STM32F0xx_HAL_Driver/Src/stm32f0xx_hal_flash_ex.c ****     /* Wait for last operation to be completed */
 332:Drivers/STM32F0xx_HAL_Driver/Src/stm32f0xx_hal_flash_ex.c ****     status = FLASH_WaitForLastOperation((uint32_t)FLASH_TIMEOUT_VALUE);
 384              		.loc 1 332 14
 385 0050 FC1D     		adds	r4, r7, #7
 386 0052 0F4B     		ldr	r3, .L22
 387 0054 1800     		movs	r0, r3
 388 0056 FFF7FEFF 		bl	FLASH_WaitForLastOperation
 389 005a 0300     		movs	r3, r0
 390 005c 2370     		strb	r3, [r4]
 333:Drivers/STM32F0xx_HAL_Driver/Src/stm32f0xx_hal_flash_ex.c **** 
 334:Drivers/STM32F0xx_HAL_Driver/Src/stm32f0xx_hal_flash_ex.c ****     /* If the erase operation is completed, disable the OPTER Bit */
 335:Drivers/STM32F0xx_HAL_Driver/Src/stm32f0xx_hal_flash_ex.c ****     CLEAR_BIT(FLASH->CR, FLASH_CR_OPTER);
 391              		.loc 1 335 5
 392 005e 0E4B     		ldr	r3, .L22+8
 393 0060 1A69     		ldr	r2, [r3, #16]
 394 0062 0D4B     		ldr	r3, .L22+8
 395 0064 2021     		movs	r1, #32
 396 0066 8A43     		bics	r2, r1
 397 0068 1A61     		str	r2, [r3, #16]
 336:Drivers/STM32F0xx_HAL_Driver/Src/stm32f0xx_hal_flash_ex.c **** 
 337:Drivers/STM32F0xx_HAL_Driver/Src/stm32f0xx_hal_flash_ex.c ****     if(status == HAL_OK)
 398              		.loc 1 337 7
 399 006a FB1D     		adds	r3, r7, #7
 400 006c 1B78     		ldrb	r3, [r3]
 401 006e 002B     		cmp	r3, #0
 402 0070 07D1     		bne	.L20
 338:Drivers/STM32F0xx_HAL_Driver/Src/stm32f0xx_hal_flash_ex.c ****     {
ARM GAS  C:\Users\einom\AppData\Local\Temp\ccRZzXCk.s 			page 14


 339:Drivers/STM32F0xx_HAL_Driver/Src/stm32f0xx_hal_flash_ex.c ****       /* Restore the last read protection Option Byte value */
 340:Drivers/STM32F0xx_HAL_Driver/Src/stm32f0xx_hal_flash_ex.c ****       status = FLASH_OB_RDP_LevelConfig(rdptmp);
 403              		.loc 1 340 16
 404 0072 FC1D     		adds	r4, r7, #7
 405 0074 BB1D     		adds	r3, r7, #6
 406 0076 1B78     		ldrb	r3, [r3]
 407 0078 1800     		movs	r0, r3
 408 007a FFF7FEFF 		bl	FLASH_OB_RDP_LevelConfig
 409 007e 0300     		movs	r3, r0
 410 0080 2370     		strb	r3, [r4]
 411              	.L20:
 341:Drivers/STM32F0xx_HAL_Driver/Src/stm32f0xx_hal_flash_ex.c ****     }
 342:Drivers/STM32F0xx_HAL_Driver/Src/stm32f0xx_hal_flash_ex.c ****   }
 343:Drivers/STM32F0xx_HAL_Driver/Src/stm32f0xx_hal_flash_ex.c **** 
 344:Drivers/STM32F0xx_HAL_Driver/Src/stm32f0xx_hal_flash_ex.c ****   /* Return the erase status */
 345:Drivers/STM32F0xx_HAL_Driver/Src/stm32f0xx_hal_flash_ex.c ****   return status;
 412              		.loc 1 345 10
 413 0082 FB1D     		adds	r3, r7, #7
 414 0084 1B78     		ldrb	r3, [r3]
 346:Drivers/STM32F0xx_HAL_Driver/Src/stm32f0xx_hal_flash_ex.c **** }
 415              		.loc 1 346 1
 416 0086 1800     		movs	r0, r3
 417 0088 BD46     		mov	sp, r7
 418 008a 03B0     		add	sp, sp, #12
 419              		@ sp needed
 420 008c 90BD     		pop	{r4, r7, pc}
 421              	.L23:
 422 008e C046     		.align	2
 423              	.L22:
 424 0090 50C30000 		.word	50000
 425 0094 00000000 		.word	pFlash
 426 0098 00200240 		.word	1073881088
 427              		.cfi_endproc
 428              	.LFE42:
 430              		.section	.text.HAL_FLASHEx_OBProgram,"ax",%progbits
 431              		.align	1
 432              		.global	HAL_FLASHEx_OBProgram
 433              		.syntax unified
 434              		.code	16
 435              		.thumb_func
 437              	HAL_FLASHEx_OBProgram:
 438              	.LFB43:
 347:Drivers/STM32F0xx_HAL_Driver/Src/stm32f0xx_hal_flash_ex.c **** 
 348:Drivers/STM32F0xx_HAL_Driver/Src/stm32f0xx_hal_flash_ex.c **** /**
 349:Drivers/STM32F0xx_HAL_Driver/Src/stm32f0xx_hal_flash_ex.c ****   * @brief  Program option bytes
 350:Drivers/STM32F0xx_HAL_Driver/Src/stm32f0xx_hal_flash_ex.c ****   * @note   The function @ref HAL_FLASH_Unlock() should be called before to unlock the FLASH interf
 351:Drivers/STM32F0xx_HAL_Driver/Src/stm32f0xx_hal_flash_ex.c ****   *         The function @ref HAL_FLASH_OB_Unlock() should be called before to unlock the options b
 352:Drivers/STM32F0xx_HAL_Driver/Src/stm32f0xx_hal_flash_ex.c ****   *         The function @ref HAL_FLASH_OB_Launch() should be called after to force the reload of t
 353:Drivers/STM32F0xx_HAL_Driver/Src/stm32f0xx_hal_flash_ex.c ****   *         (system reset will occur)
 354:Drivers/STM32F0xx_HAL_Driver/Src/stm32f0xx_hal_flash_ex.c ****   *
 355:Drivers/STM32F0xx_HAL_Driver/Src/stm32f0xx_hal_flash_ex.c ****   * @param  pOBInit pointer to an FLASH_OBInitStruct structure that
 356:Drivers/STM32F0xx_HAL_Driver/Src/stm32f0xx_hal_flash_ex.c ****   *         contains the configuration information for the programming.
 357:Drivers/STM32F0xx_HAL_Driver/Src/stm32f0xx_hal_flash_ex.c ****   *
 358:Drivers/STM32F0xx_HAL_Driver/Src/stm32f0xx_hal_flash_ex.c ****   * @retval HAL_StatusTypeDef HAL Status
 359:Drivers/STM32F0xx_HAL_Driver/Src/stm32f0xx_hal_flash_ex.c ****   */
 360:Drivers/STM32F0xx_HAL_Driver/Src/stm32f0xx_hal_flash_ex.c **** HAL_StatusTypeDef HAL_FLASHEx_OBProgram(FLASH_OBProgramInitTypeDef *pOBInit)
 361:Drivers/STM32F0xx_HAL_Driver/Src/stm32f0xx_hal_flash_ex.c **** {
ARM GAS  C:\Users\einom\AppData\Local\Temp\ccRZzXCk.s 			page 15


 439              		.loc 1 361 1
 440              		.cfi_startproc
 441              		@ args = 0, pretend = 0, frame = 16
 442              		@ frame_needed = 1, uses_anonymous_args = 0
 443 0000 B0B5     		push	{r4, r5, r7, lr}
 444              	.LCFI9:
 445              		.cfi_def_cfa_offset 16
 446              		.cfi_offset 4, -16
 447              		.cfi_offset 5, -12
 448              		.cfi_offset 7, -8
 449              		.cfi_offset 14, -4
 450 0002 84B0     		sub	sp, sp, #16
 451              	.LCFI10:
 452              		.cfi_def_cfa_offset 32
 453 0004 00AF     		add	r7, sp, #0
 454              	.LCFI11:
 455              		.cfi_def_cfa_register 7
 456 0006 7860     		str	r0, [r7, #4]
 362:Drivers/STM32F0xx_HAL_Driver/Src/stm32f0xx_hal_flash_ex.c ****   HAL_StatusTypeDef status = HAL_ERROR;
 457              		.loc 1 362 21
 458 0008 0F23     		movs	r3, #15
 459 000a FB18     		adds	r3, r7, r3
 460 000c 0122     		movs	r2, #1
 461 000e 1A70     		strb	r2, [r3]
 363:Drivers/STM32F0xx_HAL_Driver/Src/stm32f0xx_hal_flash_ex.c **** 
 364:Drivers/STM32F0xx_HAL_Driver/Src/stm32f0xx_hal_flash_ex.c ****   /* Process Locked */
 365:Drivers/STM32F0xx_HAL_Driver/Src/stm32f0xx_hal_flash_ex.c ****   __HAL_LOCK(&pFlash);
 462              		.loc 1 365 3
 463 0010 434B     		ldr	r3, .L33
 464 0012 1B7E     		ldrb	r3, [r3, #24]
 465 0014 012B     		cmp	r3, #1
 466 0016 01D1     		bne	.L25
 467              		.loc 1 365 3 is_stmt 0 discriminator 1
 468 0018 0223     		movs	r3, #2
 469              		.loc 1 365 3
 470 001a 7DE0     		b	.L26
 471              	.L25:
 472              		.loc 1 365 3 discriminator 2
 473 001c 404B     		ldr	r3, .L33
 474 001e 0122     		movs	r2, #1
 475 0020 1A76     		strb	r2, [r3, #24]
 366:Drivers/STM32F0xx_HAL_Driver/Src/stm32f0xx_hal_flash_ex.c **** 
 367:Drivers/STM32F0xx_HAL_Driver/Src/stm32f0xx_hal_flash_ex.c ****   /* Check the parameters */
 368:Drivers/STM32F0xx_HAL_Driver/Src/stm32f0xx_hal_flash_ex.c ****   assert_param(IS_OPTIONBYTE(pOBInit->OptionType));
 369:Drivers/STM32F0xx_HAL_Driver/Src/stm32f0xx_hal_flash_ex.c **** 
 370:Drivers/STM32F0xx_HAL_Driver/Src/stm32f0xx_hal_flash_ex.c ****   /* Write protection configuration */
 371:Drivers/STM32F0xx_HAL_Driver/Src/stm32f0xx_hal_flash_ex.c ****   if((pOBInit->OptionType & OPTIONBYTE_WRP) == OPTIONBYTE_WRP)
 476              		.loc 1 371 14 is_stmt 1
 477 0022 7B68     		ldr	r3, [r7, #4]
 478 0024 1B68     		ldr	r3, [r3]
 479              		.loc 1 371 27
 480 0026 0122     		movs	r2, #1
 481 0028 1340     		ands	r3, r2
 482              		.loc 1 371 5
 483 002a 21D0     		beq	.L27
 372:Drivers/STM32F0xx_HAL_Driver/Src/stm32f0xx_hal_flash_ex.c ****   {
 373:Drivers/STM32F0xx_HAL_Driver/Src/stm32f0xx_hal_flash_ex.c ****     assert_param(IS_WRPSTATE(pOBInit->WRPState));
ARM GAS  C:\Users\einom\AppData\Local\Temp\ccRZzXCk.s 			page 16


 374:Drivers/STM32F0xx_HAL_Driver/Src/stm32f0xx_hal_flash_ex.c ****     if (pOBInit->WRPState == OB_WRPSTATE_ENABLE)
 484              		.loc 1 374 16
 485 002c 7B68     		ldr	r3, [r7, #4]
 486 002e 5B68     		ldr	r3, [r3, #4]
 487              		.loc 1 374 8
 488 0030 012B     		cmp	r3, #1
 489 0032 09D1     		bne	.L28
 375:Drivers/STM32F0xx_HAL_Driver/Src/stm32f0xx_hal_flash_ex.c ****     {
 376:Drivers/STM32F0xx_HAL_Driver/Src/stm32f0xx_hal_flash_ex.c ****       /* Enable of Write protection on the selected page */
 377:Drivers/STM32F0xx_HAL_Driver/Src/stm32f0xx_hal_flash_ex.c ****       status = FLASH_OB_EnableWRP(pOBInit->WRPPage);
 490              		.loc 1 377 16
 491 0034 7B68     		ldr	r3, [r7, #4]
 492 0036 9B68     		ldr	r3, [r3, #8]
 493 0038 0F22     		movs	r2, #15
 494 003a BC18     		adds	r4, r7, r2
 495 003c 1800     		movs	r0, r3
 496 003e FFF7FEFF 		bl	FLASH_OB_EnableWRP
 497 0042 0300     		movs	r3, r0
 498 0044 2370     		strb	r3, [r4]
 499 0046 08E0     		b	.L29
 500              	.L28:
 378:Drivers/STM32F0xx_HAL_Driver/Src/stm32f0xx_hal_flash_ex.c ****     }
 379:Drivers/STM32F0xx_HAL_Driver/Src/stm32f0xx_hal_flash_ex.c ****     else
 380:Drivers/STM32F0xx_HAL_Driver/Src/stm32f0xx_hal_flash_ex.c ****     {
 381:Drivers/STM32F0xx_HAL_Driver/Src/stm32f0xx_hal_flash_ex.c ****       /* Disable of Write protection on the selected page */
 382:Drivers/STM32F0xx_HAL_Driver/Src/stm32f0xx_hal_flash_ex.c ****       status = FLASH_OB_DisableWRP(pOBInit->WRPPage);
 501              		.loc 1 382 16
 502 0048 7B68     		ldr	r3, [r7, #4]
 503 004a 9B68     		ldr	r3, [r3, #8]
 504 004c 0F22     		movs	r2, #15
 505 004e BC18     		adds	r4, r7, r2
 506 0050 1800     		movs	r0, r3
 507 0052 FFF7FEFF 		bl	FLASH_OB_DisableWRP
 508 0056 0300     		movs	r3, r0
 509 0058 2370     		strb	r3, [r4]
 510              	.L29:
 383:Drivers/STM32F0xx_HAL_Driver/Src/stm32f0xx_hal_flash_ex.c ****     }
 384:Drivers/STM32F0xx_HAL_Driver/Src/stm32f0xx_hal_flash_ex.c ****     if (status != HAL_OK)
 511              		.loc 1 384 8
 512 005a 0F21     		movs	r1, #15
 513 005c 7B18     		adds	r3, r7, r1
 514 005e 1B78     		ldrb	r3, [r3]
 515 0060 002B     		cmp	r3, #0
 516 0062 05D0     		beq	.L27
 385:Drivers/STM32F0xx_HAL_Driver/Src/stm32f0xx_hal_flash_ex.c ****     {
 386:Drivers/STM32F0xx_HAL_Driver/Src/stm32f0xx_hal_flash_ex.c ****       /* Process Unlocked */
 387:Drivers/STM32F0xx_HAL_Driver/Src/stm32f0xx_hal_flash_ex.c ****       __HAL_UNLOCK(&pFlash);
 517              		.loc 1 387 7
 518 0064 2E4B     		ldr	r3, .L33
 519 0066 0022     		movs	r2, #0
 520 0068 1A76     		strb	r2, [r3, #24]
 388:Drivers/STM32F0xx_HAL_Driver/Src/stm32f0xx_hal_flash_ex.c ****       return status;
 521              		.loc 1 388 14
 522 006a 7B18     		adds	r3, r7, r1
 523 006c 1B78     		ldrb	r3, [r3]
 524 006e 53E0     		b	.L26
 525              	.L27:
ARM GAS  C:\Users\einom\AppData\Local\Temp\ccRZzXCk.s 			page 17


 389:Drivers/STM32F0xx_HAL_Driver/Src/stm32f0xx_hal_flash_ex.c ****     }
 390:Drivers/STM32F0xx_HAL_Driver/Src/stm32f0xx_hal_flash_ex.c ****   }
 391:Drivers/STM32F0xx_HAL_Driver/Src/stm32f0xx_hal_flash_ex.c **** 
 392:Drivers/STM32F0xx_HAL_Driver/Src/stm32f0xx_hal_flash_ex.c ****   /* Read protection configuration */
 393:Drivers/STM32F0xx_HAL_Driver/Src/stm32f0xx_hal_flash_ex.c ****   if((pOBInit->OptionType & OPTIONBYTE_RDP) == OPTIONBYTE_RDP)
 526              		.loc 1 393 14
 527 0070 7B68     		ldr	r3, [r7, #4]
 528 0072 1B68     		ldr	r3, [r3]
 529              		.loc 1 393 27
 530 0074 0222     		movs	r2, #2
 531 0076 1340     		ands	r3, r2
 532              		.loc 1 393 5
 533 0078 13D0     		beq	.L30
 394:Drivers/STM32F0xx_HAL_Driver/Src/stm32f0xx_hal_flash_ex.c ****   {
 395:Drivers/STM32F0xx_HAL_Driver/Src/stm32f0xx_hal_flash_ex.c ****     status = FLASH_OB_RDP_LevelConfig(pOBInit->RDPLevel);
 534              		.loc 1 395 14
 535 007a 7B68     		ldr	r3, [r7, #4]
 536 007c 1B7B     		ldrb	r3, [r3, #12]
 537 007e 0F25     		movs	r5, #15
 538 0080 7C19     		adds	r4, r7, r5
 539 0082 1800     		movs	r0, r3
 540 0084 FFF7FEFF 		bl	FLASH_OB_RDP_LevelConfig
 541 0088 0300     		movs	r3, r0
 542 008a 2370     		strb	r3, [r4]
 396:Drivers/STM32F0xx_HAL_Driver/Src/stm32f0xx_hal_flash_ex.c ****     if (status != HAL_OK)
 543              		.loc 1 396 8
 544 008c 2900     		movs	r1, r5
 545 008e 7B18     		adds	r3, r7, r1
 546 0090 1B78     		ldrb	r3, [r3]
 547 0092 002B     		cmp	r3, #0
 548 0094 05D0     		beq	.L30
 397:Drivers/STM32F0xx_HAL_Driver/Src/stm32f0xx_hal_flash_ex.c ****     {
 398:Drivers/STM32F0xx_HAL_Driver/Src/stm32f0xx_hal_flash_ex.c ****       /* Process Unlocked */
 399:Drivers/STM32F0xx_HAL_Driver/Src/stm32f0xx_hal_flash_ex.c ****       __HAL_UNLOCK(&pFlash);
 549              		.loc 1 399 7
 550 0096 224B     		ldr	r3, .L33
 551 0098 0022     		movs	r2, #0
 552 009a 1A76     		strb	r2, [r3, #24]
 400:Drivers/STM32F0xx_HAL_Driver/Src/stm32f0xx_hal_flash_ex.c ****       return status;
 553              		.loc 1 400 14
 554 009c 7B18     		adds	r3, r7, r1
 555 009e 1B78     		ldrb	r3, [r3]
 556 00a0 3AE0     		b	.L26
 557              	.L30:
 401:Drivers/STM32F0xx_HAL_Driver/Src/stm32f0xx_hal_flash_ex.c ****     }
 402:Drivers/STM32F0xx_HAL_Driver/Src/stm32f0xx_hal_flash_ex.c ****   }
 403:Drivers/STM32F0xx_HAL_Driver/Src/stm32f0xx_hal_flash_ex.c **** 
 404:Drivers/STM32F0xx_HAL_Driver/Src/stm32f0xx_hal_flash_ex.c ****   /* USER configuration */
 405:Drivers/STM32F0xx_HAL_Driver/Src/stm32f0xx_hal_flash_ex.c ****   if((pOBInit->OptionType & OPTIONBYTE_USER) == OPTIONBYTE_USER)
 558              		.loc 1 405 14
 559 00a2 7B68     		ldr	r3, [r7, #4]
 560 00a4 1B68     		ldr	r3, [r3]
 561              		.loc 1 405 27
 562 00a6 0422     		movs	r2, #4
 563 00a8 1340     		ands	r3, r2
 564              		.loc 1 405 5
 565 00aa 13D0     		beq	.L31
ARM GAS  C:\Users\einom\AppData\Local\Temp\ccRZzXCk.s 			page 18


 406:Drivers/STM32F0xx_HAL_Driver/Src/stm32f0xx_hal_flash_ex.c ****   {
 407:Drivers/STM32F0xx_HAL_Driver/Src/stm32f0xx_hal_flash_ex.c ****     status = FLASH_OB_UserConfig(pOBInit->USERConfig);
 566              		.loc 1 407 14
 567 00ac 7B68     		ldr	r3, [r7, #4]
 568 00ae 5B7B     		ldrb	r3, [r3, #13]
 569 00b0 0F25     		movs	r5, #15
 570 00b2 7C19     		adds	r4, r7, r5
 571 00b4 1800     		movs	r0, r3
 572 00b6 FFF7FEFF 		bl	FLASH_OB_UserConfig
 573 00ba 0300     		movs	r3, r0
 574 00bc 2370     		strb	r3, [r4]
 408:Drivers/STM32F0xx_HAL_Driver/Src/stm32f0xx_hal_flash_ex.c ****     if (status != HAL_OK)
 575              		.loc 1 408 8
 576 00be 2900     		movs	r1, r5
 577 00c0 7B18     		adds	r3, r7, r1
 578 00c2 1B78     		ldrb	r3, [r3]
 579 00c4 002B     		cmp	r3, #0
 580 00c6 05D0     		beq	.L31
 409:Drivers/STM32F0xx_HAL_Driver/Src/stm32f0xx_hal_flash_ex.c ****     {
 410:Drivers/STM32F0xx_HAL_Driver/Src/stm32f0xx_hal_flash_ex.c ****       /* Process Unlocked */
 411:Drivers/STM32F0xx_HAL_Driver/Src/stm32f0xx_hal_flash_ex.c ****       __HAL_UNLOCK(&pFlash);
 581              		.loc 1 411 7
 582 00c8 154B     		ldr	r3, .L33
 583 00ca 0022     		movs	r2, #0
 584 00cc 1A76     		strb	r2, [r3, #24]
 412:Drivers/STM32F0xx_HAL_Driver/Src/stm32f0xx_hal_flash_ex.c ****       return status;
 585              		.loc 1 412 14
 586 00ce 7B18     		adds	r3, r7, r1
 587 00d0 1B78     		ldrb	r3, [r3]
 588 00d2 21E0     		b	.L26
 589              	.L31:
 413:Drivers/STM32F0xx_HAL_Driver/Src/stm32f0xx_hal_flash_ex.c ****     }
 414:Drivers/STM32F0xx_HAL_Driver/Src/stm32f0xx_hal_flash_ex.c ****   }
 415:Drivers/STM32F0xx_HAL_Driver/Src/stm32f0xx_hal_flash_ex.c **** 
 416:Drivers/STM32F0xx_HAL_Driver/Src/stm32f0xx_hal_flash_ex.c ****   /* DATA configuration*/
 417:Drivers/STM32F0xx_HAL_Driver/Src/stm32f0xx_hal_flash_ex.c ****   if((pOBInit->OptionType & OPTIONBYTE_DATA) == OPTIONBYTE_DATA)
 590              		.loc 1 417 14
 591 00d4 7B68     		ldr	r3, [r7, #4]
 592 00d6 1B68     		ldr	r3, [r3]
 593              		.loc 1 417 27
 594 00d8 0822     		movs	r2, #8
 595 00da 1340     		ands	r3, r2
 596              		.loc 1 417 5
 597 00dc 16D0     		beq	.L32
 418:Drivers/STM32F0xx_HAL_Driver/Src/stm32f0xx_hal_flash_ex.c ****   {
 419:Drivers/STM32F0xx_HAL_Driver/Src/stm32f0xx_hal_flash_ex.c ****     status = FLASH_OB_ProgramData(pOBInit->DATAAddress, pOBInit->DATAData);
 598              		.loc 1 419 14
 599 00de 7B68     		ldr	r3, [r7, #4]
 600 00e0 1A69     		ldr	r2, [r3, #16]
 601 00e2 7B68     		ldr	r3, [r7, #4]
 602 00e4 1B7D     		ldrb	r3, [r3, #20]
 603 00e6 0F25     		movs	r5, #15
 604 00e8 7C19     		adds	r4, r7, r5
 605 00ea 1900     		movs	r1, r3
 606 00ec 1000     		movs	r0, r2
 607 00ee FFF7FEFF 		bl	FLASH_OB_ProgramData
 608 00f2 0300     		movs	r3, r0
ARM GAS  C:\Users\einom\AppData\Local\Temp\ccRZzXCk.s 			page 19


 609 00f4 2370     		strb	r3, [r4]
 420:Drivers/STM32F0xx_HAL_Driver/Src/stm32f0xx_hal_flash_ex.c ****     if (status != HAL_OK)
 610              		.loc 1 420 8
 611 00f6 2900     		movs	r1, r5
 612 00f8 7B18     		adds	r3, r7, r1
 613 00fa 1B78     		ldrb	r3, [r3]
 614 00fc 002B     		cmp	r3, #0
 615 00fe 05D0     		beq	.L32
 421:Drivers/STM32F0xx_HAL_Driver/Src/stm32f0xx_hal_flash_ex.c ****     {
 422:Drivers/STM32F0xx_HAL_Driver/Src/stm32f0xx_hal_flash_ex.c ****       /* Process Unlocked */
 423:Drivers/STM32F0xx_HAL_Driver/Src/stm32f0xx_hal_flash_ex.c ****       __HAL_UNLOCK(&pFlash);
 616              		.loc 1 423 7
 617 0100 074B     		ldr	r3, .L33
 618 0102 0022     		movs	r2, #0
 619 0104 1A76     		strb	r2, [r3, #24]
 424:Drivers/STM32F0xx_HAL_Driver/Src/stm32f0xx_hal_flash_ex.c ****       return status;
 620              		.loc 1 424 14
 621 0106 7B18     		adds	r3, r7, r1
 622 0108 1B78     		ldrb	r3, [r3]
 623 010a 05E0     		b	.L26
 624              	.L32:
 425:Drivers/STM32F0xx_HAL_Driver/Src/stm32f0xx_hal_flash_ex.c ****     }
 426:Drivers/STM32F0xx_HAL_Driver/Src/stm32f0xx_hal_flash_ex.c ****   }
 427:Drivers/STM32F0xx_HAL_Driver/Src/stm32f0xx_hal_flash_ex.c **** 
 428:Drivers/STM32F0xx_HAL_Driver/Src/stm32f0xx_hal_flash_ex.c ****   /* Process Unlocked */
 429:Drivers/STM32F0xx_HAL_Driver/Src/stm32f0xx_hal_flash_ex.c ****   __HAL_UNLOCK(&pFlash);
 625              		.loc 1 429 3
 626 010c 044B     		ldr	r3, .L33
 627 010e 0022     		movs	r2, #0
 628 0110 1A76     		strb	r2, [r3, #24]
 430:Drivers/STM32F0xx_HAL_Driver/Src/stm32f0xx_hal_flash_ex.c **** 
 431:Drivers/STM32F0xx_HAL_Driver/Src/stm32f0xx_hal_flash_ex.c ****   return status;
 629              		.loc 1 431 10
 630 0112 0F23     		movs	r3, #15
 631 0114 FB18     		adds	r3, r7, r3
 632 0116 1B78     		ldrb	r3, [r3]
 633              	.L26:
 432:Drivers/STM32F0xx_HAL_Driver/Src/stm32f0xx_hal_flash_ex.c **** }
 634              		.loc 1 432 1
 635 0118 1800     		movs	r0, r3
 636 011a BD46     		mov	sp, r7
 637 011c 04B0     		add	sp, sp, #16
 638              		@ sp needed
 639 011e B0BD     		pop	{r4, r5, r7, pc}
 640              	.L34:
 641              		.align	2
 642              	.L33:
 643 0120 00000000 		.word	pFlash
 644              		.cfi_endproc
 645              	.LFE43:
 647              		.section	.text.HAL_FLASHEx_OBGetConfig,"ax",%progbits
 648              		.align	1
 649              		.global	HAL_FLASHEx_OBGetConfig
 650              		.syntax unified
 651              		.code	16
 652              		.thumb_func
 654              	HAL_FLASHEx_OBGetConfig:
ARM GAS  C:\Users\einom\AppData\Local\Temp\ccRZzXCk.s 			page 20


 655              	.LFB44:
 433:Drivers/STM32F0xx_HAL_Driver/Src/stm32f0xx_hal_flash_ex.c **** 
 434:Drivers/STM32F0xx_HAL_Driver/Src/stm32f0xx_hal_flash_ex.c **** /**
 435:Drivers/STM32F0xx_HAL_Driver/Src/stm32f0xx_hal_flash_ex.c ****   * @brief  Get the Option byte configuration
 436:Drivers/STM32F0xx_HAL_Driver/Src/stm32f0xx_hal_flash_ex.c ****   * @param  pOBInit pointer to an FLASH_OBInitStruct structure that
 437:Drivers/STM32F0xx_HAL_Driver/Src/stm32f0xx_hal_flash_ex.c ****   *         contains the configuration information for the programming.
 438:Drivers/STM32F0xx_HAL_Driver/Src/stm32f0xx_hal_flash_ex.c ****   *
 439:Drivers/STM32F0xx_HAL_Driver/Src/stm32f0xx_hal_flash_ex.c ****   * @retval None
 440:Drivers/STM32F0xx_HAL_Driver/Src/stm32f0xx_hal_flash_ex.c ****   */
 441:Drivers/STM32F0xx_HAL_Driver/Src/stm32f0xx_hal_flash_ex.c **** void HAL_FLASHEx_OBGetConfig(FLASH_OBProgramInitTypeDef *pOBInit)
 442:Drivers/STM32F0xx_HAL_Driver/Src/stm32f0xx_hal_flash_ex.c **** {
 656              		.loc 1 442 1
 657              		.cfi_startproc
 658              		@ args = 0, pretend = 0, frame = 8
 659              		@ frame_needed = 1, uses_anonymous_args = 0
 660 0000 80B5     		push	{r7, lr}
 661              	.LCFI12:
 662              		.cfi_def_cfa_offset 8
 663              		.cfi_offset 7, -8
 664              		.cfi_offset 14, -4
 665 0002 82B0     		sub	sp, sp, #8
 666              	.LCFI13:
 667              		.cfi_def_cfa_offset 16
 668 0004 00AF     		add	r7, sp, #0
 669              	.LCFI14:
 670              		.cfi_def_cfa_register 7
 671 0006 7860     		str	r0, [r7, #4]
 443:Drivers/STM32F0xx_HAL_Driver/Src/stm32f0xx_hal_flash_ex.c ****   pOBInit->OptionType = OPTIONBYTE_WRP | OPTIONBYTE_RDP | OPTIONBYTE_USER;
 672              		.loc 1 443 23
 673 0008 7B68     		ldr	r3, [r7, #4]
 674 000a 0722     		movs	r2, #7
 675 000c 1A60     		str	r2, [r3]
 444:Drivers/STM32F0xx_HAL_Driver/Src/stm32f0xx_hal_flash_ex.c **** 
 445:Drivers/STM32F0xx_HAL_Driver/Src/stm32f0xx_hal_flash_ex.c ****   /*Get WRP*/
 446:Drivers/STM32F0xx_HAL_Driver/Src/stm32f0xx_hal_flash_ex.c ****   pOBInit->WRPPage = FLASH_OB_GetWRP();
 676              		.loc 1 446 22
 677 000e FFF7FEFF 		bl	FLASH_OB_GetWRP
 678 0012 0200     		movs	r2, r0
 679              		.loc 1 446 20 discriminator 1
 680 0014 7B68     		ldr	r3, [r7, #4]
 681 0016 9A60     		str	r2, [r3, #8]
 447:Drivers/STM32F0xx_HAL_Driver/Src/stm32f0xx_hal_flash_ex.c **** 
 448:Drivers/STM32F0xx_HAL_Driver/Src/stm32f0xx_hal_flash_ex.c ****   /*Get RDP Level*/
 449:Drivers/STM32F0xx_HAL_Driver/Src/stm32f0xx_hal_flash_ex.c ****   pOBInit->RDPLevel = FLASH_OB_GetRDP();
 682              		.loc 1 449 23
 683 0018 FFF7FEFF 		bl	FLASH_OB_GetRDP
 684 001c 0300     		movs	r3, r0
 685              		.loc 1 449 21 discriminator 1
 686 001e DAB2     		uxtb	r2, r3
 687 0020 7B68     		ldr	r3, [r7, #4]
 688 0022 1A73     		strb	r2, [r3, #12]
 450:Drivers/STM32F0xx_HAL_Driver/Src/stm32f0xx_hal_flash_ex.c **** 
 451:Drivers/STM32F0xx_HAL_Driver/Src/stm32f0xx_hal_flash_ex.c ****   /*Get USER*/
 452:Drivers/STM32F0xx_HAL_Driver/Src/stm32f0xx_hal_flash_ex.c ****   pOBInit->USERConfig = FLASH_OB_GetUser();
 689              		.loc 1 452 25
 690 0024 FFF7FEFF 		bl	FLASH_OB_GetUser
 691 0028 0300     		movs	r3, r0
ARM GAS  C:\Users\einom\AppData\Local\Temp\ccRZzXCk.s 			page 21


 692 002a 1A00     		movs	r2, r3
 693              		.loc 1 452 23 discriminator 1
 694 002c 7B68     		ldr	r3, [r7, #4]
 695 002e 5A73     		strb	r2, [r3, #13]
 453:Drivers/STM32F0xx_HAL_Driver/Src/stm32f0xx_hal_flash_ex.c **** }
 696              		.loc 1 453 1
 697 0030 C046     		nop
 698 0032 BD46     		mov	sp, r7
 699 0034 02B0     		add	sp, sp, #8
 700              		@ sp needed
 701 0036 80BD     		pop	{r7, pc}
 702              		.cfi_endproc
 703              	.LFE44:
 705              		.section	.text.HAL_FLASHEx_OBGetUserData,"ax",%progbits
 706              		.align	1
 707              		.global	HAL_FLASHEx_OBGetUserData
 708              		.syntax unified
 709              		.code	16
 710              		.thumb_func
 712              	HAL_FLASHEx_OBGetUserData:
 713              	.LFB45:
 454:Drivers/STM32F0xx_HAL_Driver/Src/stm32f0xx_hal_flash_ex.c **** 
 455:Drivers/STM32F0xx_HAL_Driver/Src/stm32f0xx_hal_flash_ex.c **** /**
 456:Drivers/STM32F0xx_HAL_Driver/Src/stm32f0xx_hal_flash_ex.c ****   * @brief  Get the Option byte user data
 457:Drivers/STM32F0xx_HAL_Driver/Src/stm32f0xx_hal_flash_ex.c ****   * @param  DATAAdress Address of the option byte DATA
 458:Drivers/STM32F0xx_HAL_Driver/Src/stm32f0xx_hal_flash_ex.c ****   *          This parameter can be one of the following values:
 459:Drivers/STM32F0xx_HAL_Driver/Src/stm32f0xx_hal_flash_ex.c ****   *            @arg @ref OB_DATA_ADDRESS_DATA0
 460:Drivers/STM32F0xx_HAL_Driver/Src/stm32f0xx_hal_flash_ex.c ****   *            @arg @ref OB_DATA_ADDRESS_DATA1
 461:Drivers/STM32F0xx_HAL_Driver/Src/stm32f0xx_hal_flash_ex.c ****   * @retval Value programmed in USER data
 462:Drivers/STM32F0xx_HAL_Driver/Src/stm32f0xx_hal_flash_ex.c ****   */
 463:Drivers/STM32F0xx_HAL_Driver/Src/stm32f0xx_hal_flash_ex.c **** uint32_t HAL_FLASHEx_OBGetUserData(uint32_t DATAAdress)
 464:Drivers/STM32F0xx_HAL_Driver/Src/stm32f0xx_hal_flash_ex.c **** {
 714              		.loc 1 464 1
 715              		.cfi_startproc
 716              		@ args = 0, pretend = 0, frame = 16
 717              		@ frame_needed = 1, uses_anonymous_args = 0
 718 0000 80B5     		push	{r7, lr}
 719              	.LCFI15:
 720              		.cfi_def_cfa_offset 8
 721              		.cfi_offset 7, -8
 722              		.cfi_offset 14, -4
 723 0002 84B0     		sub	sp, sp, #16
 724              	.LCFI16:
 725              		.cfi_def_cfa_offset 24
 726 0004 00AF     		add	r7, sp, #0
 727              	.LCFI17:
 728              		.cfi_def_cfa_register 7
 729 0006 7860     		str	r0, [r7, #4]
 465:Drivers/STM32F0xx_HAL_Driver/Src/stm32f0xx_hal_flash_ex.c ****   uint32_t value = 0U;
 730              		.loc 1 465 12
 731 0008 0023     		movs	r3, #0
 732 000a FB60     		str	r3, [r7, #12]
 466:Drivers/STM32F0xx_HAL_Driver/Src/stm32f0xx_hal_flash_ex.c ****   
 467:Drivers/STM32F0xx_HAL_Driver/Src/stm32f0xx_hal_flash_ex.c ****   if (DATAAdress == OB_DATA_ADDRESS_DATA0)
 733              		.loc 1 467 6
 734 000c 7B68     		ldr	r3, [r7, #4]
 735 000e 0A4A     		ldr	r2, .L40
ARM GAS  C:\Users\einom\AppData\Local\Temp\ccRZzXCk.s 			page 22


 736 0010 9342     		cmp	r3, r2
 737 0012 06D1     		bne	.L37
 468:Drivers/STM32F0xx_HAL_Driver/Src/stm32f0xx_hal_flash_ex.c ****   {
 469:Drivers/STM32F0xx_HAL_Driver/Src/stm32f0xx_hal_flash_ex.c ****     /* Get value programmed in OB USER Data0 */
 470:Drivers/STM32F0xx_HAL_Driver/Src/stm32f0xx_hal_flash_ex.c ****     value = READ_BIT(FLASH->OBR, FLASH_OBR_DATA0) >> FLASH_POSITION_OB_USERDATA0_BIT;
 738              		.loc 1 470 13
 739 0014 094B     		ldr	r3, .L40+4
 740 0016 DB69     		ldr	r3, [r3, #28]
 741              		.loc 1 470 51
 742 0018 1B0C     		lsrs	r3, r3, #16
 743              		.loc 1 470 11
 744 001a FF22     		movs	r2, #255
 745 001c 1340     		ands	r3, r2
 746 001e FB60     		str	r3, [r7, #12]
 747 0020 05E0     		b	.L38
 748              	.L37:
 471:Drivers/STM32F0xx_HAL_Driver/Src/stm32f0xx_hal_flash_ex.c ****   }
 472:Drivers/STM32F0xx_HAL_Driver/Src/stm32f0xx_hal_flash_ex.c ****   else
 473:Drivers/STM32F0xx_HAL_Driver/Src/stm32f0xx_hal_flash_ex.c ****   {
 474:Drivers/STM32F0xx_HAL_Driver/Src/stm32f0xx_hal_flash_ex.c ****     /* Get value programmed in OB USER Data1 */
 475:Drivers/STM32F0xx_HAL_Driver/Src/stm32f0xx_hal_flash_ex.c ****     value = READ_BIT(FLASH->OBR, FLASH_OBR_DATA1) >> FLASH_POSITION_OB_USERDATA1_BIT;
 749              		.loc 1 475 13
 750 0022 064B     		ldr	r3, .L40+4
 751 0024 DB69     		ldr	r3, [r3, #28]
 752              		.loc 1 475 51
 753 0026 1B0E     		lsrs	r3, r3, #24
 754              		.loc 1 475 11
 755 0028 FF22     		movs	r2, #255
 756 002a 1340     		ands	r3, r2
 757 002c FB60     		str	r3, [r7, #12]
 758              	.L38:
 476:Drivers/STM32F0xx_HAL_Driver/Src/stm32f0xx_hal_flash_ex.c ****   }
 477:Drivers/STM32F0xx_HAL_Driver/Src/stm32f0xx_hal_flash_ex.c ****   
 478:Drivers/STM32F0xx_HAL_Driver/Src/stm32f0xx_hal_flash_ex.c ****   return value;
 759              		.loc 1 478 10
 760 002e FB68     		ldr	r3, [r7, #12]
 479:Drivers/STM32F0xx_HAL_Driver/Src/stm32f0xx_hal_flash_ex.c **** }
 761              		.loc 1 479 1
 762 0030 1800     		movs	r0, r3
 763 0032 BD46     		mov	sp, r7
 764 0034 04B0     		add	sp, sp, #16
 765              		@ sp needed
 766 0036 80BD     		pop	{r7, pc}
 767              	.L41:
 768              		.align	2
 769              	.L40:
 770 0038 04F8FF1F 		.word	536868868
 771 003c 00200240 		.word	1073881088
 772              		.cfi_endproc
 773              	.LFE45:
 775              		.section	.text.FLASH_MassErase,"ax",%progbits
 776              		.align	1
 777              		.syntax unified
 778              		.code	16
 779              		.thumb_func
 781              	FLASH_MassErase:
 782              	.LFB46:
ARM GAS  C:\Users\einom\AppData\Local\Temp\ccRZzXCk.s 			page 23


 480:Drivers/STM32F0xx_HAL_Driver/Src/stm32f0xx_hal_flash_ex.c **** 
 481:Drivers/STM32F0xx_HAL_Driver/Src/stm32f0xx_hal_flash_ex.c **** /**
 482:Drivers/STM32F0xx_HAL_Driver/Src/stm32f0xx_hal_flash_ex.c ****   * @}
 483:Drivers/STM32F0xx_HAL_Driver/Src/stm32f0xx_hal_flash_ex.c ****   */
 484:Drivers/STM32F0xx_HAL_Driver/Src/stm32f0xx_hal_flash_ex.c **** 
 485:Drivers/STM32F0xx_HAL_Driver/Src/stm32f0xx_hal_flash_ex.c **** /**
 486:Drivers/STM32F0xx_HAL_Driver/Src/stm32f0xx_hal_flash_ex.c ****   * @}
 487:Drivers/STM32F0xx_HAL_Driver/Src/stm32f0xx_hal_flash_ex.c ****   */
 488:Drivers/STM32F0xx_HAL_Driver/Src/stm32f0xx_hal_flash_ex.c **** 
 489:Drivers/STM32F0xx_HAL_Driver/Src/stm32f0xx_hal_flash_ex.c **** /** @addtogroup FLASHEx_Private_Functions
 490:Drivers/STM32F0xx_HAL_Driver/Src/stm32f0xx_hal_flash_ex.c ****  * @{
 491:Drivers/STM32F0xx_HAL_Driver/Src/stm32f0xx_hal_flash_ex.c ****  */
 492:Drivers/STM32F0xx_HAL_Driver/Src/stm32f0xx_hal_flash_ex.c **** 
 493:Drivers/STM32F0xx_HAL_Driver/Src/stm32f0xx_hal_flash_ex.c **** /**
 494:Drivers/STM32F0xx_HAL_Driver/Src/stm32f0xx_hal_flash_ex.c ****   * @brief  Full erase of FLASH memory Bank 
 495:Drivers/STM32F0xx_HAL_Driver/Src/stm32f0xx_hal_flash_ex.c ****   *
 496:Drivers/STM32F0xx_HAL_Driver/Src/stm32f0xx_hal_flash_ex.c ****   * @retval None
 497:Drivers/STM32F0xx_HAL_Driver/Src/stm32f0xx_hal_flash_ex.c ****   */
 498:Drivers/STM32F0xx_HAL_Driver/Src/stm32f0xx_hal_flash_ex.c **** static void FLASH_MassErase(void)
 499:Drivers/STM32F0xx_HAL_Driver/Src/stm32f0xx_hal_flash_ex.c **** {
 783              		.loc 1 499 1
 784              		.cfi_startproc
 785              		@ args = 0, pretend = 0, frame = 0
 786              		@ frame_needed = 1, uses_anonymous_args = 0
 787 0000 80B5     		push	{r7, lr}
 788              	.LCFI18:
 789              		.cfi_def_cfa_offset 8
 790              		.cfi_offset 7, -8
 791              		.cfi_offset 14, -4
 792 0002 00AF     		add	r7, sp, #0
 793              	.LCFI19:
 794              		.cfi_def_cfa_register 7
 500:Drivers/STM32F0xx_HAL_Driver/Src/stm32f0xx_hal_flash_ex.c ****   /* Clean the error context */
 501:Drivers/STM32F0xx_HAL_Driver/Src/stm32f0xx_hal_flash_ex.c ****   pFlash.ErrorCode = HAL_FLASH_ERROR_NONE;
 795              		.loc 1 501 20
 796 0004 084B     		ldr	r3, .L43
 797 0006 0022     		movs	r2, #0
 798 0008 DA61     		str	r2, [r3, #28]
 502:Drivers/STM32F0xx_HAL_Driver/Src/stm32f0xx_hal_flash_ex.c **** 
 503:Drivers/STM32F0xx_HAL_Driver/Src/stm32f0xx_hal_flash_ex.c ****     /* Only bank1 will be erased*/
 504:Drivers/STM32F0xx_HAL_Driver/Src/stm32f0xx_hal_flash_ex.c ****     SET_BIT(FLASH->CR, FLASH_CR_MER);
 799              		.loc 1 504 5
 800 000a 084B     		ldr	r3, .L43+4
 801 000c 1A69     		ldr	r2, [r3, #16]
 802 000e 074B     		ldr	r3, .L43+4
 803 0010 0421     		movs	r1, #4
 804 0012 0A43     		orrs	r2, r1
 805 0014 1A61     		str	r2, [r3, #16]
 505:Drivers/STM32F0xx_HAL_Driver/Src/stm32f0xx_hal_flash_ex.c ****     SET_BIT(FLASH->CR, FLASH_CR_STRT);
 806              		.loc 1 505 5
 807 0016 054B     		ldr	r3, .L43+4
 808 0018 1A69     		ldr	r2, [r3, #16]
 809 001a 044B     		ldr	r3, .L43+4
 810 001c 4021     		movs	r1, #64
 811 001e 0A43     		orrs	r2, r1
 812 0020 1A61     		str	r2, [r3, #16]
 506:Drivers/STM32F0xx_HAL_Driver/Src/stm32f0xx_hal_flash_ex.c **** }
ARM GAS  C:\Users\einom\AppData\Local\Temp\ccRZzXCk.s 			page 24


 813              		.loc 1 506 1
 814 0022 C046     		nop
 815 0024 BD46     		mov	sp, r7
 816              		@ sp needed
 817 0026 80BD     		pop	{r7, pc}
 818              	.L44:
 819              		.align	2
 820              	.L43:
 821 0028 00000000 		.word	pFlash
 822 002c 00200240 		.word	1073881088
 823              		.cfi_endproc
 824              	.LFE46:
 826              		.section	.text.FLASH_OB_EnableWRP,"ax",%progbits
 827              		.align	1
 828              		.syntax unified
 829              		.code	16
 830              		.thumb_func
 832              	FLASH_OB_EnableWRP:
 833              	.LFB47:
 507:Drivers/STM32F0xx_HAL_Driver/Src/stm32f0xx_hal_flash_ex.c **** 
 508:Drivers/STM32F0xx_HAL_Driver/Src/stm32f0xx_hal_flash_ex.c **** /**
 509:Drivers/STM32F0xx_HAL_Driver/Src/stm32f0xx_hal_flash_ex.c ****   * @brief  Enable the write protection of the desired pages
 510:Drivers/STM32F0xx_HAL_Driver/Src/stm32f0xx_hal_flash_ex.c ****   * @note   An option byte erase is done automatically in this function. 
 511:Drivers/STM32F0xx_HAL_Driver/Src/stm32f0xx_hal_flash_ex.c ****   * @note   When the memory read protection level is selected (RDP level = 1), 
 512:Drivers/STM32F0xx_HAL_Driver/Src/stm32f0xx_hal_flash_ex.c ****   *         it is not possible to program or erase the flash page i if
 513:Drivers/STM32F0xx_HAL_Driver/Src/stm32f0xx_hal_flash_ex.c ****   *         debug features are connected or boot code is executed in RAM, even if nWRPi = 1 
 514:Drivers/STM32F0xx_HAL_Driver/Src/stm32f0xx_hal_flash_ex.c ****   * 
 515:Drivers/STM32F0xx_HAL_Driver/Src/stm32f0xx_hal_flash_ex.c ****   * @param  WriteProtectPage specifies the page(s) to be write protected.
 516:Drivers/STM32F0xx_HAL_Driver/Src/stm32f0xx_hal_flash_ex.c ****   *         The value of this parameter depend on device used within the same series 
 517:Drivers/STM32F0xx_HAL_Driver/Src/stm32f0xx_hal_flash_ex.c ****   * @retval HAL status 
 518:Drivers/STM32F0xx_HAL_Driver/Src/stm32f0xx_hal_flash_ex.c ****   */
 519:Drivers/STM32F0xx_HAL_Driver/Src/stm32f0xx_hal_flash_ex.c **** static HAL_StatusTypeDef FLASH_OB_EnableWRP(uint32_t WriteProtectPage)
 520:Drivers/STM32F0xx_HAL_Driver/Src/stm32f0xx_hal_flash_ex.c **** {
 834              		.loc 1 520 1
 835              		.cfi_startproc
 836              		@ args = 0, pretend = 0, frame = 16
 837              		@ frame_needed = 1, uses_anonymous_args = 0
 838 0000 F0B5     		push	{r4, r5, r6, r7, lr}
 839              	.LCFI20:
 840              		.cfi_def_cfa_offset 20
 841              		.cfi_offset 4, -20
 842              		.cfi_offset 5, -16
 843              		.cfi_offset 6, -12
 844              		.cfi_offset 7, -8
 845              		.cfi_offset 14, -4
 846 0002 85B0     		sub	sp, sp, #20
 847              	.LCFI21:
 848              		.cfi_def_cfa_offset 40
 849 0004 00AF     		add	r7, sp, #0
 850              	.LCFI22:
 851              		.cfi_def_cfa_register 7
 852 0006 7860     		str	r0, [r7, #4]
 521:Drivers/STM32F0xx_HAL_Driver/Src/stm32f0xx_hal_flash_ex.c ****   HAL_StatusTypeDef status = HAL_OK;
 853              		.loc 1 521 21
 854 0008 0F24     		movs	r4, #15
 855 000a 3B19     		adds	r3, r7, r4
 856 000c 0022     		movs	r2, #0
ARM GAS  C:\Users\einom\AppData\Local\Temp\ccRZzXCk.s 			page 25


 857 000e 1A70     		strb	r2, [r3]
 522:Drivers/STM32F0xx_HAL_Driver/Src/stm32f0xx_hal_flash_ex.c ****   uint16_t WRP0_Data = 0xFFFFU;
 858              		.loc 1 522 12
 859 0010 0C26     		movs	r6, #12
 860 0012 BB19     		adds	r3, r7, r6
 861 0014 0122     		movs	r2, #1
 862 0016 5242     		rsbs	r2, r2, #0
 863 0018 1A80     		strh	r2, [r3]
 523:Drivers/STM32F0xx_HAL_Driver/Src/stm32f0xx_hal_flash_ex.c **** #if defined(OB_WRP1_WRP1)
 524:Drivers/STM32F0xx_HAL_Driver/Src/stm32f0xx_hal_flash_ex.c ****   uint16_t WRP1_Data = 0xFFFFU;
 864              		.loc 1 524 12
 865 001a 0A25     		movs	r5, #10
 866 001c 7B19     		adds	r3, r7, r5
 867 001e 0122     		movs	r2, #1
 868 0020 5242     		rsbs	r2, r2, #0
 869 0022 1A80     		strh	r2, [r3]
 525:Drivers/STM32F0xx_HAL_Driver/Src/stm32f0xx_hal_flash_ex.c **** #endif /* OB_WRP1_WRP1 */
 526:Drivers/STM32F0xx_HAL_Driver/Src/stm32f0xx_hal_flash_ex.c **** #if defined(OB_WRP2_WRP2)
 527:Drivers/STM32F0xx_HAL_Driver/Src/stm32f0xx_hal_flash_ex.c ****   uint16_t WRP2_Data = 0xFFFFU;
 528:Drivers/STM32F0xx_HAL_Driver/Src/stm32f0xx_hal_flash_ex.c **** #endif /* OB_WRP2_WRP2 */
 529:Drivers/STM32F0xx_HAL_Driver/Src/stm32f0xx_hal_flash_ex.c **** #if defined(OB_WRP3_WRP3)
 530:Drivers/STM32F0xx_HAL_Driver/Src/stm32f0xx_hal_flash_ex.c ****   uint16_t WRP3_Data = 0xFFFFU;
 531:Drivers/STM32F0xx_HAL_Driver/Src/stm32f0xx_hal_flash_ex.c **** #endif /* OB_WRP3_WRP3 */
 532:Drivers/STM32F0xx_HAL_Driver/Src/stm32f0xx_hal_flash_ex.c ****   
 533:Drivers/STM32F0xx_HAL_Driver/Src/stm32f0xx_hal_flash_ex.c ****   /* Check the parameters */
 534:Drivers/STM32F0xx_HAL_Driver/Src/stm32f0xx_hal_flash_ex.c ****   assert_param(IS_OB_WRP(WriteProtectPage));
 535:Drivers/STM32F0xx_HAL_Driver/Src/stm32f0xx_hal_flash_ex.c ****     
 536:Drivers/STM32F0xx_HAL_Driver/Src/stm32f0xx_hal_flash_ex.c ****   /* Get current write protected pages and the new pages to be protected ******/
 537:Drivers/STM32F0xx_HAL_Driver/Src/stm32f0xx_hal_flash_ex.c ****   WriteProtectPage = (uint32_t)(~((~FLASH_OB_GetWRP()) | WriteProtectPage));
 870              		.loc 1 537 37
 871 0024 FFF7FEFF 		bl	FLASH_OB_GetWRP
 872 0028 0200     		movs	r2, r0
 873              		.loc 1 537 33 discriminator 1
 874 002a 7B68     		ldr	r3, [r7, #4]
 875 002c DB43     		mvns	r3, r3
 876              		.loc 1 537 20 discriminator 1
 877 002e 1340     		ands	r3, r2
 878 0030 7B60     		str	r3, [r7, #4]
 538:Drivers/STM32F0xx_HAL_Driver/Src/stm32f0xx_hal_flash_ex.c ****   
 539:Drivers/STM32F0xx_HAL_Driver/Src/stm32f0xx_hal_flash_ex.c **** #if defined(OB_WRP_PAGES0TO15MASK)
 540:Drivers/STM32F0xx_HAL_Driver/Src/stm32f0xx_hal_flash_ex.c ****   WRP0_Data = (uint16_t)(WriteProtectPage & OB_WRP_PAGES0TO15MASK);
 541:Drivers/STM32F0xx_HAL_Driver/Src/stm32f0xx_hal_flash_ex.c **** #elif defined(OB_WRP_PAGES0TO31MASK)
 542:Drivers/STM32F0xx_HAL_Driver/Src/stm32f0xx_hal_flash_ex.c ****   WRP0_Data = (uint16_t)(WriteProtectPage & OB_WRP_PAGES0TO31MASK);
 879              		.loc 1 542 15
 880 0032 7B68     		ldr	r3, [r7, #4]
 881 0034 9AB2     		uxth	r2, r3
 882              		.loc 1 542 13
 883 0036 BB19     		adds	r3, r7, r6
 884 0038 FF21     		movs	r1, #255
 885 003a 0A40     		ands	r2, r1
 886 003c 1A80     		strh	r2, [r3]
 543:Drivers/STM32F0xx_HAL_Driver/Src/stm32f0xx_hal_flash_ex.c **** #endif /* OB_WRP_PAGES0TO31MASK */
 544:Drivers/STM32F0xx_HAL_Driver/Src/stm32f0xx_hal_flash_ex.c ****   
 545:Drivers/STM32F0xx_HAL_Driver/Src/stm32f0xx_hal_flash_ex.c **** #if defined(OB_WRP_PAGES16TO31MASK)
 546:Drivers/STM32F0xx_HAL_Driver/Src/stm32f0xx_hal_flash_ex.c ****   WRP1_Data = (uint16_t)((WriteProtectPage & OB_WRP_PAGES16TO31MASK) >> 8U);
 547:Drivers/STM32F0xx_HAL_Driver/Src/stm32f0xx_hal_flash_ex.c **** #elif defined(OB_WRP_PAGES32TO63MASK)
 548:Drivers/STM32F0xx_HAL_Driver/Src/stm32f0xx_hal_flash_ex.c ****   WRP1_Data = (uint16_t)((WriteProtectPage & OB_WRP_PAGES32TO63MASK) >> 8U);
ARM GAS  C:\Users\einom\AppData\Local\Temp\ccRZzXCk.s 			page 26


 887              		.loc 1 548 70
 888 003e 7B68     		ldr	r3, [r7, #4]
 889 0040 1B0A     		lsrs	r3, r3, #8
 890              		.loc 1 548 15
 891 0042 9AB2     		uxth	r2, r3
 892              		.loc 1 548 13
 893 0044 7B19     		adds	r3, r7, r5
 894 0046 FF21     		movs	r1, #255
 895 0048 0A40     		ands	r2, r1
 896 004a 1A80     		strh	r2, [r3]
 549:Drivers/STM32F0xx_HAL_Driver/Src/stm32f0xx_hal_flash_ex.c **** #endif /* OB_WRP_PAGES32TO63MASK */
 550:Drivers/STM32F0xx_HAL_Driver/Src/stm32f0xx_hal_flash_ex.c ****  
 551:Drivers/STM32F0xx_HAL_Driver/Src/stm32f0xx_hal_flash_ex.c **** #if defined(OB_WRP_PAGES32TO47MASK)
 552:Drivers/STM32F0xx_HAL_Driver/Src/stm32f0xx_hal_flash_ex.c ****   WRP2_Data = (uint16_t)((WriteProtectPage & OB_WRP_PAGES32TO47MASK) >> 16U);
 553:Drivers/STM32F0xx_HAL_Driver/Src/stm32f0xx_hal_flash_ex.c **** #endif /* OB_WRP_PAGES32TO47MASK */
 554:Drivers/STM32F0xx_HAL_Driver/Src/stm32f0xx_hal_flash_ex.c **** 
 555:Drivers/STM32F0xx_HAL_Driver/Src/stm32f0xx_hal_flash_ex.c **** #if defined(OB_WRP_PAGES48TO63MASK)
 556:Drivers/STM32F0xx_HAL_Driver/Src/stm32f0xx_hal_flash_ex.c ****   WRP3_Data = (uint16_t)((WriteProtectPage & OB_WRP_PAGES48TO63MASK) >> 24U); 
 557:Drivers/STM32F0xx_HAL_Driver/Src/stm32f0xx_hal_flash_ex.c **** #elif defined(OB_WRP_PAGES48TO127MASK)
 558:Drivers/STM32F0xx_HAL_Driver/Src/stm32f0xx_hal_flash_ex.c ****   WRP3_Data = (uint16_t)((WriteProtectPage & OB_WRP_PAGES48TO127MASK) >> 24U); 
 559:Drivers/STM32F0xx_HAL_Driver/Src/stm32f0xx_hal_flash_ex.c **** #endif /* OB_WRP_PAGES48TO63MASK */
 560:Drivers/STM32F0xx_HAL_Driver/Src/stm32f0xx_hal_flash_ex.c ****   
 561:Drivers/STM32F0xx_HAL_Driver/Src/stm32f0xx_hal_flash_ex.c ****   /* Wait for last operation to be completed */
 562:Drivers/STM32F0xx_HAL_Driver/Src/stm32f0xx_hal_flash_ex.c ****   status = FLASH_WaitForLastOperation((uint32_t)FLASH_TIMEOUT_VALUE);
 897              		.loc 1 562 12
 898 004c 2500     		movs	r5, r4
 899 004e 3C19     		adds	r4, r7, r4
 900 0050 2B4B     		ldr	r3, .L50
 901 0052 1800     		movs	r0, r3
 902 0054 FFF7FEFF 		bl	FLASH_WaitForLastOperation
 903 0058 0300     		movs	r3, r0
 904 005a 2370     		strb	r3, [r4]
 563:Drivers/STM32F0xx_HAL_Driver/Src/stm32f0xx_hal_flash_ex.c **** 
 564:Drivers/STM32F0xx_HAL_Driver/Src/stm32f0xx_hal_flash_ex.c ****   if(status == HAL_OK)
 905              		.loc 1 564 5
 906 005c 7B19     		adds	r3, r7, r5
 907 005e 1B78     		ldrb	r3, [r3]
 908 0060 002B     		cmp	r3, #0
 909 0062 46D1     		bne	.L46
 565:Drivers/STM32F0xx_HAL_Driver/Src/stm32f0xx_hal_flash_ex.c ****   { 
 566:Drivers/STM32F0xx_HAL_Driver/Src/stm32f0xx_hal_flash_ex.c ****     /* Clean the error context */
 567:Drivers/STM32F0xx_HAL_Driver/Src/stm32f0xx_hal_flash_ex.c ****     pFlash.ErrorCode = HAL_FLASH_ERROR_NONE;
 910              		.loc 1 567 22
 911 0064 274B     		ldr	r3, .L50+4
 912 0066 0022     		movs	r2, #0
 913 0068 DA61     		str	r2, [r3, #28]
 568:Drivers/STM32F0xx_HAL_Driver/Src/stm32f0xx_hal_flash_ex.c **** 
 569:Drivers/STM32F0xx_HAL_Driver/Src/stm32f0xx_hal_flash_ex.c ****     /* To be able to write again option byte, need to perform a option byte erase */
 570:Drivers/STM32F0xx_HAL_Driver/Src/stm32f0xx_hal_flash_ex.c ****     status = HAL_FLASHEx_OBErase();
 914              		.loc 1 570 14
 915 006a 7C19     		adds	r4, r7, r5
 916 006c FFF7FEFF 		bl	HAL_FLASHEx_OBErase
 917 0070 0300     		movs	r3, r0
 918 0072 2370     		strb	r3, [r4]
 571:Drivers/STM32F0xx_HAL_Driver/Src/stm32f0xx_hal_flash_ex.c ****     if (status == HAL_OK)  
 919              		.loc 1 571 8
 920 0074 2800     		movs	r0, r5
ARM GAS  C:\Users\einom\AppData\Local\Temp\ccRZzXCk.s 			page 27


 921 0076 7B19     		adds	r3, r7, r5
 922 0078 1B78     		ldrb	r3, [r3]
 923 007a 002B     		cmp	r3, #0
 924 007c 39D1     		bne	.L46
 572:Drivers/STM32F0xx_HAL_Driver/Src/stm32f0xx_hal_flash_ex.c ****     {
 573:Drivers/STM32F0xx_HAL_Driver/Src/stm32f0xx_hal_flash_ex.c ****       /* Enable write protection */
 574:Drivers/STM32F0xx_HAL_Driver/Src/stm32f0xx_hal_flash_ex.c ****       SET_BIT(FLASH->CR, FLASH_CR_OPTPG);
 925              		.loc 1 574 7
 926 007e 224B     		ldr	r3, .L50+8
 927 0080 1A69     		ldr	r2, [r3, #16]
 928 0082 214B     		ldr	r3, .L50+8
 929 0084 1021     		movs	r1, #16
 930 0086 0A43     		orrs	r2, r1
 931 0088 1A61     		str	r2, [r3, #16]
 575:Drivers/STM32F0xx_HAL_Driver/Src/stm32f0xx_hal_flash_ex.c **** 
 576:Drivers/STM32F0xx_HAL_Driver/Src/stm32f0xx_hal_flash_ex.c **** #if defined(OB_WRP0_WRP0)
 577:Drivers/STM32F0xx_HAL_Driver/Src/stm32f0xx_hal_flash_ex.c ****       if(WRP0_Data != 0xFFU)
 932              		.loc 1 577 9
 933 008a BB19     		adds	r3, r7, r6
 934 008c 1B88     		ldrh	r3, [r3]
 935 008e FF2B     		cmp	r3, #255
 936 0090 0FD0     		beq	.L47
 578:Drivers/STM32F0xx_HAL_Driver/Src/stm32f0xx_hal_flash_ex.c ****       {
 579:Drivers/STM32F0xx_HAL_Driver/Src/stm32f0xx_hal_flash_ex.c ****         OB->WRP0 &= WRP0_Data;
 937              		.loc 1 579 11
 938 0092 1E4B     		ldr	r3, .L50+12
 939 0094 1B89     		ldrh	r3, [r3, #8]
 940 0096 9BB2     		uxth	r3, r3
 941 0098 1C49     		ldr	r1, .L50+12
 942              		.loc 1 579 18
 943 009a BA19     		adds	r2, r7, r6
 944 009c 1288     		ldrh	r2, [r2]
 945 009e 1340     		ands	r3, r2
 946 00a0 9BB2     		uxth	r3, r3
 947 00a2 0B81     		strh	r3, [r1, #8]
 580:Drivers/STM32F0xx_HAL_Driver/Src/stm32f0xx_hal_flash_ex.c ****         
 581:Drivers/STM32F0xx_HAL_Driver/Src/stm32f0xx_hal_flash_ex.c ****         /* Wait for last operation to be completed */
 582:Drivers/STM32F0xx_HAL_Driver/Src/stm32f0xx_hal_flash_ex.c ****         status = FLASH_WaitForLastOperation((uint32_t)FLASH_TIMEOUT_VALUE);
 948              		.loc 1 582 18
 949 00a4 3C18     		adds	r4, r7, r0
 950 00a6 164B     		ldr	r3, .L50
 951 00a8 1800     		movs	r0, r3
 952 00aa FFF7FEFF 		bl	FLASH_WaitForLastOperation
 953 00ae 0300     		movs	r3, r0
 954 00b0 2370     		strb	r3, [r4]
 955              	.L47:
 583:Drivers/STM32F0xx_HAL_Driver/Src/stm32f0xx_hal_flash_ex.c ****       }
 584:Drivers/STM32F0xx_HAL_Driver/Src/stm32f0xx_hal_flash_ex.c **** #endif /* OB_WRP0_WRP0 */
 585:Drivers/STM32F0xx_HAL_Driver/Src/stm32f0xx_hal_flash_ex.c **** 
 586:Drivers/STM32F0xx_HAL_Driver/Src/stm32f0xx_hal_flash_ex.c **** #if defined(OB_WRP1_WRP1)
 587:Drivers/STM32F0xx_HAL_Driver/Src/stm32f0xx_hal_flash_ex.c ****       if((status == HAL_OK) && (WRP1_Data != 0xFFU))
 956              		.loc 1 587 9
 957 00b2 0F20     		movs	r0, #15
 958 00b4 3B18     		adds	r3, r7, r0
 959 00b6 1B78     		ldrb	r3, [r3]
 960 00b8 002B     		cmp	r3, #0
 961 00ba 14D1     		bne	.L48
ARM GAS  C:\Users\einom\AppData\Local\Temp\ccRZzXCk.s 			page 28


 962              		.loc 1 587 29 discriminator 1
 963 00bc 0A22     		movs	r2, #10
 964 00be BB18     		adds	r3, r7, r2
 965 00c0 1B88     		ldrh	r3, [r3]
 966 00c2 FF2B     		cmp	r3, #255
 967 00c4 0FD0     		beq	.L48
 588:Drivers/STM32F0xx_HAL_Driver/Src/stm32f0xx_hal_flash_ex.c ****       {
 589:Drivers/STM32F0xx_HAL_Driver/Src/stm32f0xx_hal_flash_ex.c ****         OB->WRP1 &= WRP1_Data;
 968              		.loc 1 589 11
 969 00c6 114B     		ldr	r3, .L50+12
 970 00c8 5B89     		ldrh	r3, [r3, #10]
 971 00ca 9BB2     		uxth	r3, r3
 972 00cc 0F49     		ldr	r1, .L50+12
 973              		.loc 1 589 18
 974 00ce BA18     		adds	r2, r7, r2
 975 00d0 1288     		ldrh	r2, [r2]
 976 00d2 1340     		ands	r3, r2
 977 00d4 9BB2     		uxth	r3, r3
 978 00d6 4B81     		strh	r3, [r1, #10]
 590:Drivers/STM32F0xx_HAL_Driver/Src/stm32f0xx_hal_flash_ex.c ****         
 591:Drivers/STM32F0xx_HAL_Driver/Src/stm32f0xx_hal_flash_ex.c ****         /* Wait for last operation to be completed */
 592:Drivers/STM32F0xx_HAL_Driver/Src/stm32f0xx_hal_flash_ex.c ****         status = FLASH_WaitForLastOperation((uint32_t)FLASH_TIMEOUT_VALUE);
 979              		.loc 1 592 18
 980 00d8 3C18     		adds	r4, r7, r0
 981 00da 094B     		ldr	r3, .L50
 982 00dc 1800     		movs	r0, r3
 983 00de FFF7FEFF 		bl	FLASH_WaitForLastOperation
 984 00e2 0300     		movs	r3, r0
 985 00e4 2370     		strb	r3, [r4]
 986              	.L48:
 593:Drivers/STM32F0xx_HAL_Driver/Src/stm32f0xx_hal_flash_ex.c ****       }
 594:Drivers/STM32F0xx_HAL_Driver/Src/stm32f0xx_hal_flash_ex.c **** #endif /* OB_WRP1_WRP1 */
 595:Drivers/STM32F0xx_HAL_Driver/Src/stm32f0xx_hal_flash_ex.c **** 
 596:Drivers/STM32F0xx_HAL_Driver/Src/stm32f0xx_hal_flash_ex.c **** #if defined(OB_WRP2_WRP2)
 597:Drivers/STM32F0xx_HAL_Driver/Src/stm32f0xx_hal_flash_ex.c ****       if((status == HAL_OK) && (WRP2_Data != 0xFFU))
 598:Drivers/STM32F0xx_HAL_Driver/Src/stm32f0xx_hal_flash_ex.c ****       {
 599:Drivers/STM32F0xx_HAL_Driver/Src/stm32f0xx_hal_flash_ex.c ****         OB->WRP2 &= WRP2_Data;
 600:Drivers/STM32F0xx_HAL_Driver/Src/stm32f0xx_hal_flash_ex.c ****         
 601:Drivers/STM32F0xx_HAL_Driver/Src/stm32f0xx_hal_flash_ex.c ****         /* Wait for last operation to be completed */
 602:Drivers/STM32F0xx_HAL_Driver/Src/stm32f0xx_hal_flash_ex.c ****         status = FLASH_WaitForLastOperation((uint32_t)FLASH_TIMEOUT_VALUE);
 603:Drivers/STM32F0xx_HAL_Driver/Src/stm32f0xx_hal_flash_ex.c ****       }
 604:Drivers/STM32F0xx_HAL_Driver/Src/stm32f0xx_hal_flash_ex.c **** #endif /* OB_WRP2_WRP2 */
 605:Drivers/STM32F0xx_HAL_Driver/Src/stm32f0xx_hal_flash_ex.c **** 
 606:Drivers/STM32F0xx_HAL_Driver/Src/stm32f0xx_hal_flash_ex.c **** #if defined(OB_WRP3_WRP3)
 607:Drivers/STM32F0xx_HAL_Driver/Src/stm32f0xx_hal_flash_ex.c ****       if((status == HAL_OK) && (WRP3_Data != 0xFFU))
 608:Drivers/STM32F0xx_HAL_Driver/Src/stm32f0xx_hal_flash_ex.c ****       {
 609:Drivers/STM32F0xx_HAL_Driver/Src/stm32f0xx_hal_flash_ex.c ****         OB->WRP3 &= WRP3_Data;
 610:Drivers/STM32F0xx_HAL_Driver/Src/stm32f0xx_hal_flash_ex.c ****         
 611:Drivers/STM32F0xx_HAL_Driver/Src/stm32f0xx_hal_flash_ex.c ****         /* Wait for last operation to be completed */
 612:Drivers/STM32F0xx_HAL_Driver/Src/stm32f0xx_hal_flash_ex.c ****         status = FLASH_WaitForLastOperation((uint32_t)FLASH_TIMEOUT_VALUE);
 613:Drivers/STM32F0xx_HAL_Driver/Src/stm32f0xx_hal_flash_ex.c ****       }
 614:Drivers/STM32F0xx_HAL_Driver/Src/stm32f0xx_hal_flash_ex.c **** #endif /* OB_WRP3_WRP3 */
 615:Drivers/STM32F0xx_HAL_Driver/Src/stm32f0xx_hal_flash_ex.c **** 
 616:Drivers/STM32F0xx_HAL_Driver/Src/stm32f0xx_hal_flash_ex.c ****       /* if the program operation is completed, disable the OPTPG Bit */
 617:Drivers/STM32F0xx_HAL_Driver/Src/stm32f0xx_hal_flash_ex.c ****       CLEAR_BIT(FLASH->CR, FLASH_CR_OPTPG);
 987              		.loc 1 617 7
 988 00e6 084B     		ldr	r3, .L50+8
ARM GAS  C:\Users\einom\AppData\Local\Temp\ccRZzXCk.s 			page 29


 989 00e8 1A69     		ldr	r2, [r3, #16]
 990 00ea 074B     		ldr	r3, .L50+8
 991 00ec 1021     		movs	r1, #16
 992 00ee 8A43     		bics	r2, r1
 993 00f0 1A61     		str	r2, [r3, #16]
 994              	.L46:
 618:Drivers/STM32F0xx_HAL_Driver/Src/stm32f0xx_hal_flash_ex.c ****     }
 619:Drivers/STM32F0xx_HAL_Driver/Src/stm32f0xx_hal_flash_ex.c ****   }
 620:Drivers/STM32F0xx_HAL_Driver/Src/stm32f0xx_hal_flash_ex.c ****   
 621:Drivers/STM32F0xx_HAL_Driver/Src/stm32f0xx_hal_flash_ex.c ****   return status;
 995              		.loc 1 621 10
 996 00f2 0F23     		movs	r3, #15
 997 00f4 FB18     		adds	r3, r7, r3
 998 00f6 1B78     		ldrb	r3, [r3]
 622:Drivers/STM32F0xx_HAL_Driver/Src/stm32f0xx_hal_flash_ex.c **** }
 999              		.loc 1 622 1
 1000 00f8 1800     		movs	r0, r3
 1001 00fa BD46     		mov	sp, r7
 1002 00fc 05B0     		add	sp, sp, #20
 1003              		@ sp needed
 1004 00fe F0BD     		pop	{r4, r5, r6, r7, pc}
 1005              	.L51:
 1006              		.align	2
 1007              	.L50:
 1008 0100 50C30000 		.word	50000
 1009 0104 00000000 		.word	pFlash
 1010 0108 00200240 		.word	1073881088
 1011 010c 00F8FF1F 		.word	536868864
 1012              		.cfi_endproc
 1013              	.LFE47:
 1015              		.section	.text.FLASH_OB_DisableWRP,"ax",%progbits
 1016              		.align	1
 1017              		.syntax unified
 1018              		.code	16
 1019              		.thumb_func
 1021              	FLASH_OB_DisableWRP:
 1022              	.LFB48:
 623:Drivers/STM32F0xx_HAL_Driver/Src/stm32f0xx_hal_flash_ex.c **** 
 624:Drivers/STM32F0xx_HAL_Driver/Src/stm32f0xx_hal_flash_ex.c **** /**
 625:Drivers/STM32F0xx_HAL_Driver/Src/stm32f0xx_hal_flash_ex.c ****   * @brief  Disable the write protection of the desired pages
 626:Drivers/STM32F0xx_HAL_Driver/Src/stm32f0xx_hal_flash_ex.c ****   * @note   An option byte erase is done automatically in this function. 
 627:Drivers/STM32F0xx_HAL_Driver/Src/stm32f0xx_hal_flash_ex.c ****   * @note   When the memory read protection level is selected (RDP level = 1), 
 628:Drivers/STM32F0xx_HAL_Driver/Src/stm32f0xx_hal_flash_ex.c ****   *         it is not possible to program or erase the flash page i if   
 629:Drivers/STM32F0xx_HAL_Driver/Src/stm32f0xx_hal_flash_ex.c ****   *         debug features are connected or boot code is executed in RAM, even if nWRPi = 1 
 630:Drivers/STM32F0xx_HAL_Driver/Src/stm32f0xx_hal_flash_ex.c ****   * 
 631:Drivers/STM32F0xx_HAL_Driver/Src/stm32f0xx_hal_flash_ex.c ****   * @param  WriteProtectPage specifies the page(s) to be write unprotected.
 632:Drivers/STM32F0xx_HAL_Driver/Src/stm32f0xx_hal_flash_ex.c ****   *         The value of this parameter depend on device used within the same series 
 633:Drivers/STM32F0xx_HAL_Driver/Src/stm32f0xx_hal_flash_ex.c ****   * @retval HAL status 
 634:Drivers/STM32F0xx_HAL_Driver/Src/stm32f0xx_hal_flash_ex.c ****   */
 635:Drivers/STM32F0xx_HAL_Driver/Src/stm32f0xx_hal_flash_ex.c **** static HAL_StatusTypeDef FLASH_OB_DisableWRP(uint32_t WriteProtectPage)
 636:Drivers/STM32F0xx_HAL_Driver/Src/stm32f0xx_hal_flash_ex.c **** {
 1023              		.loc 1 636 1
 1024              		.cfi_startproc
 1025              		@ args = 0, pretend = 0, frame = 16
 1026              		@ frame_needed = 1, uses_anonymous_args = 0
 1027 0000 F0B5     		push	{r4, r5, r6, r7, lr}
 1028              	.LCFI23:
ARM GAS  C:\Users\einom\AppData\Local\Temp\ccRZzXCk.s 			page 30


 1029              		.cfi_def_cfa_offset 20
 1030              		.cfi_offset 4, -20
 1031              		.cfi_offset 5, -16
 1032              		.cfi_offset 6, -12
 1033              		.cfi_offset 7, -8
 1034              		.cfi_offset 14, -4
 1035 0002 85B0     		sub	sp, sp, #20
 1036              	.LCFI24:
 1037              		.cfi_def_cfa_offset 40
 1038 0004 00AF     		add	r7, sp, #0
 1039              	.LCFI25:
 1040              		.cfi_def_cfa_register 7
 1041 0006 7860     		str	r0, [r7, #4]
 637:Drivers/STM32F0xx_HAL_Driver/Src/stm32f0xx_hal_flash_ex.c ****   HAL_StatusTypeDef status = HAL_OK;
 1042              		.loc 1 637 21
 1043 0008 0F24     		movs	r4, #15
 1044 000a 3B19     		adds	r3, r7, r4
 1045 000c 0022     		movs	r2, #0
 1046 000e 1A70     		strb	r2, [r3]
 638:Drivers/STM32F0xx_HAL_Driver/Src/stm32f0xx_hal_flash_ex.c ****   uint16_t WRP0_Data = 0xFFFFU;
 1047              		.loc 1 638 12
 1048 0010 0C26     		movs	r6, #12
 1049 0012 BB19     		adds	r3, r7, r6
 1050 0014 0122     		movs	r2, #1
 1051 0016 5242     		rsbs	r2, r2, #0
 1052 0018 1A80     		strh	r2, [r3]
 639:Drivers/STM32F0xx_HAL_Driver/Src/stm32f0xx_hal_flash_ex.c **** #if defined(OB_WRP1_WRP1)
 640:Drivers/STM32F0xx_HAL_Driver/Src/stm32f0xx_hal_flash_ex.c ****   uint16_t WRP1_Data = 0xFFFFU;
 1053              		.loc 1 640 12
 1054 001a 0A25     		movs	r5, #10
 1055 001c 7B19     		adds	r3, r7, r5
 1056 001e 0122     		movs	r2, #1
 1057 0020 5242     		rsbs	r2, r2, #0
 1058 0022 1A80     		strh	r2, [r3]
 641:Drivers/STM32F0xx_HAL_Driver/Src/stm32f0xx_hal_flash_ex.c **** #endif /* OB_WRP1_WRP1 */
 642:Drivers/STM32F0xx_HAL_Driver/Src/stm32f0xx_hal_flash_ex.c **** #if defined(OB_WRP2_WRP2)
 643:Drivers/STM32F0xx_HAL_Driver/Src/stm32f0xx_hal_flash_ex.c ****   uint16_t WRP2_Data = 0xFFFFU;
 644:Drivers/STM32F0xx_HAL_Driver/Src/stm32f0xx_hal_flash_ex.c **** #endif /* OB_WRP2_WRP2 */
 645:Drivers/STM32F0xx_HAL_Driver/Src/stm32f0xx_hal_flash_ex.c **** #if defined(OB_WRP3_WRP3)
 646:Drivers/STM32F0xx_HAL_Driver/Src/stm32f0xx_hal_flash_ex.c ****   uint16_t WRP3_Data = 0xFFFFU;
 647:Drivers/STM32F0xx_HAL_Driver/Src/stm32f0xx_hal_flash_ex.c **** #endif /* OB_WRP3_WRP3 */
 648:Drivers/STM32F0xx_HAL_Driver/Src/stm32f0xx_hal_flash_ex.c ****   
 649:Drivers/STM32F0xx_HAL_Driver/Src/stm32f0xx_hal_flash_ex.c ****   /* Check the parameters */
 650:Drivers/STM32F0xx_HAL_Driver/Src/stm32f0xx_hal_flash_ex.c ****   assert_param(IS_OB_WRP(WriteProtectPage));
 651:Drivers/STM32F0xx_HAL_Driver/Src/stm32f0xx_hal_flash_ex.c **** 
 652:Drivers/STM32F0xx_HAL_Driver/Src/stm32f0xx_hal_flash_ex.c ****   /* Get current write protected pages and the new pages to be unprotected ******/
 653:Drivers/STM32F0xx_HAL_Driver/Src/stm32f0xx_hal_flash_ex.c ****   WriteProtectPage = (FLASH_OB_GetWRP() | WriteProtectPage);
 1059              		.loc 1 653 23
 1060 0024 FFF7FEFF 		bl	FLASH_OB_GetWRP
 1061 0028 0200     		movs	r2, r0
 1062              		.loc 1 653 20 discriminator 1
 1063 002a 7B68     		ldr	r3, [r7, #4]
 1064 002c 1343     		orrs	r3, r2
 1065 002e 7B60     		str	r3, [r7, #4]
 654:Drivers/STM32F0xx_HAL_Driver/Src/stm32f0xx_hal_flash_ex.c **** 
 655:Drivers/STM32F0xx_HAL_Driver/Src/stm32f0xx_hal_flash_ex.c **** #if defined(OB_WRP_PAGES0TO15MASK)
 656:Drivers/STM32F0xx_HAL_Driver/Src/stm32f0xx_hal_flash_ex.c ****   WRP0_Data = (uint16_t)(WriteProtectPage & OB_WRP_PAGES0TO15MASK);
ARM GAS  C:\Users\einom\AppData\Local\Temp\ccRZzXCk.s 			page 31


 657:Drivers/STM32F0xx_HAL_Driver/Src/stm32f0xx_hal_flash_ex.c **** #elif defined(OB_WRP_PAGES0TO31MASK)
 658:Drivers/STM32F0xx_HAL_Driver/Src/stm32f0xx_hal_flash_ex.c ****   WRP0_Data = (uint16_t)(WriteProtectPage & OB_WRP_PAGES0TO31MASK);
 1066              		.loc 1 658 15
 1067 0030 7B68     		ldr	r3, [r7, #4]
 1068 0032 9AB2     		uxth	r2, r3
 1069              		.loc 1 658 13
 1070 0034 BB19     		adds	r3, r7, r6
 1071 0036 FF21     		movs	r1, #255
 1072 0038 0A40     		ands	r2, r1
 1073 003a 1A80     		strh	r2, [r3]
 659:Drivers/STM32F0xx_HAL_Driver/Src/stm32f0xx_hal_flash_ex.c **** #endif /* OB_WRP_PAGES0TO31MASK */
 660:Drivers/STM32F0xx_HAL_Driver/Src/stm32f0xx_hal_flash_ex.c ****   
 661:Drivers/STM32F0xx_HAL_Driver/Src/stm32f0xx_hal_flash_ex.c **** #if defined(OB_WRP_PAGES16TO31MASK)
 662:Drivers/STM32F0xx_HAL_Driver/Src/stm32f0xx_hal_flash_ex.c ****   WRP1_Data = (uint16_t)((WriteProtectPage & OB_WRP_PAGES16TO31MASK) >> 8U);
 663:Drivers/STM32F0xx_HAL_Driver/Src/stm32f0xx_hal_flash_ex.c **** #elif defined(OB_WRP_PAGES32TO63MASK)
 664:Drivers/STM32F0xx_HAL_Driver/Src/stm32f0xx_hal_flash_ex.c ****   WRP1_Data = (uint16_t)((WriteProtectPage & OB_WRP_PAGES32TO63MASK) >> 8U);
 1074              		.loc 1 664 70
 1075 003c 7B68     		ldr	r3, [r7, #4]
 1076 003e 1B0A     		lsrs	r3, r3, #8
 1077              		.loc 1 664 15
 1078 0040 9AB2     		uxth	r2, r3
 1079              		.loc 1 664 13
 1080 0042 7B19     		adds	r3, r7, r5
 1081 0044 FF21     		movs	r1, #255
 1082 0046 0A40     		ands	r2, r1
 1083 0048 1A80     		strh	r2, [r3]
 665:Drivers/STM32F0xx_HAL_Driver/Src/stm32f0xx_hal_flash_ex.c **** #endif /* OB_WRP_PAGES32TO63MASK */
 666:Drivers/STM32F0xx_HAL_Driver/Src/stm32f0xx_hal_flash_ex.c ****  
 667:Drivers/STM32F0xx_HAL_Driver/Src/stm32f0xx_hal_flash_ex.c **** #if defined(OB_WRP_PAGES32TO47MASK)
 668:Drivers/STM32F0xx_HAL_Driver/Src/stm32f0xx_hal_flash_ex.c ****   WRP2_Data = (uint16_t)((WriteProtectPage & OB_WRP_PAGES32TO47MASK) >> 16U);
 669:Drivers/STM32F0xx_HAL_Driver/Src/stm32f0xx_hal_flash_ex.c **** #endif /* OB_WRP_PAGES32TO47MASK */
 670:Drivers/STM32F0xx_HAL_Driver/Src/stm32f0xx_hal_flash_ex.c **** 
 671:Drivers/STM32F0xx_HAL_Driver/Src/stm32f0xx_hal_flash_ex.c **** #if defined(OB_WRP_PAGES48TO63MASK)
 672:Drivers/STM32F0xx_HAL_Driver/Src/stm32f0xx_hal_flash_ex.c ****   WRP3_Data = (uint16_t)((WriteProtectPage & OB_WRP_PAGES48TO63MASK) >> 24U); 
 673:Drivers/STM32F0xx_HAL_Driver/Src/stm32f0xx_hal_flash_ex.c **** #elif defined(OB_WRP_PAGES48TO127MASK)
 674:Drivers/STM32F0xx_HAL_Driver/Src/stm32f0xx_hal_flash_ex.c ****   WRP3_Data = (uint16_t)((WriteProtectPage & OB_WRP_PAGES48TO127MASK) >> 24U); 
 675:Drivers/STM32F0xx_HAL_Driver/Src/stm32f0xx_hal_flash_ex.c **** #endif /* OB_WRP_PAGES48TO63MASK */
 676:Drivers/STM32F0xx_HAL_Driver/Src/stm32f0xx_hal_flash_ex.c **** 
 677:Drivers/STM32F0xx_HAL_Driver/Src/stm32f0xx_hal_flash_ex.c ****     
 678:Drivers/STM32F0xx_HAL_Driver/Src/stm32f0xx_hal_flash_ex.c ****   /* Wait for last operation to be completed */
 679:Drivers/STM32F0xx_HAL_Driver/Src/stm32f0xx_hal_flash_ex.c ****   status = FLASH_WaitForLastOperation((uint32_t)FLASH_TIMEOUT_VALUE);
 1084              		.loc 1 679 12
 1085 004a 2500     		movs	r5, r4
 1086 004c 3C19     		adds	r4, r7, r4
 1087 004e 2C4B     		ldr	r3, .L57
 1088 0050 1800     		movs	r0, r3
 1089 0052 FFF7FEFF 		bl	FLASH_WaitForLastOperation
 1090 0056 0300     		movs	r3, r0
 1091 0058 2370     		strb	r3, [r4]
 680:Drivers/STM32F0xx_HAL_Driver/Src/stm32f0xx_hal_flash_ex.c **** 
 681:Drivers/STM32F0xx_HAL_Driver/Src/stm32f0xx_hal_flash_ex.c ****   if(status == HAL_OK)
 1092              		.loc 1 681 5
 1093 005a 7B19     		adds	r3, r7, r5
 1094 005c 1B78     		ldrb	r3, [r3]
 1095 005e 002B     		cmp	r3, #0
 1096 0060 46D1     		bne	.L53
 682:Drivers/STM32F0xx_HAL_Driver/Src/stm32f0xx_hal_flash_ex.c ****   { 
ARM GAS  C:\Users\einom\AppData\Local\Temp\ccRZzXCk.s 			page 32


 683:Drivers/STM32F0xx_HAL_Driver/Src/stm32f0xx_hal_flash_ex.c ****     /* Clean the error context */
 684:Drivers/STM32F0xx_HAL_Driver/Src/stm32f0xx_hal_flash_ex.c ****     pFlash.ErrorCode = HAL_FLASH_ERROR_NONE;
 1097              		.loc 1 684 22
 1098 0062 284B     		ldr	r3, .L57+4
 1099 0064 0022     		movs	r2, #0
 1100 0066 DA61     		str	r2, [r3, #28]
 685:Drivers/STM32F0xx_HAL_Driver/Src/stm32f0xx_hal_flash_ex.c **** 
 686:Drivers/STM32F0xx_HAL_Driver/Src/stm32f0xx_hal_flash_ex.c ****     /* To be able to write again option byte, need to perform a option byte erase */
 687:Drivers/STM32F0xx_HAL_Driver/Src/stm32f0xx_hal_flash_ex.c ****     status = HAL_FLASHEx_OBErase();
 1101              		.loc 1 687 14
 1102 0068 7C19     		adds	r4, r7, r5
 1103 006a FFF7FEFF 		bl	HAL_FLASHEx_OBErase
 1104 006e 0300     		movs	r3, r0
 1105 0070 2370     		strb	r3, [r4]
 688:Drivers/STM32F0xx_HAL_Driver/Src/stm32f0xx_hal_flash_ex.c ****     if (status == HAL_OK)  
 1106              		.loc 1 688 8
 1107 0072 2800     		movs	r0, r5
 1108 0074 7B19     		adds	r3, r7, r5
 1109 0076 1B78     		ldrb	r3, [r3]
 1110 0078 002B     		cmp	r3, #0
 1111 007a 39D1     		bne	.L53
 689:Drivers/STM32F0xx_HAL_Driver/Src/stm32f0xx_hal_flash_ex.c ****     {
 690:Drivers/STM32F0xx_HAL_Driver/Src/stm32f0xx_hal_flash_ex.c ****       SET_BIT(FLASH->CR, FLASH_CR_OPTPG);
 1112              		.loc 1 690 7
 1113 007c 224B     		ldr	r3, .L57+8
 1114 007e 1A69     		ldr	r2, [r3, #16]
 1115 0080 214B     		ldr	r3, .L57+8
 1116 0082 1021     		movs	r1, #16
 1117 0084 0A43     		orrs	r2, r1
 1118 0086 1A61     		str	r2, [r3, #16]
 691:Drivers/STM32F0xx_HAL_Driver/Src/stm32f0xx_hal_flash_ex.c **** 
 692:Drivers/STM32F0xx_HAL_Driver/Src/stm32f0xx_hal_flash_ex.c **** #if defined(OB_WRP0_WRP0)
 693:Drivers/STM32F0xx_HAL_Driver/Src/stm32f0xx_hal_flash_ex.c ****       if(WRP0_Data != 0xFFU)
 1119              		.loc 1 693 9
 1120 0088 BB19     		adds	r3, r7, r6
 1121 008a 1B88     		ldrh	r3, [r3]
 1122 008c FF2B     		cmp	r3, #255
 1123 008e 0FD0     		beq	.L54
 694:Drivers/STM32F0xx_HAL_Driver/Src/stm32f0xx_hal_flash_ex.c ****       {
 695:Drivers/STM32F0xx_HAL_Driver/Src/stm32f0xx_hal_flash_ex.c ****         OB->WRP0 &= WRP0_Data;
 1124              		.loc 1 695 11
 1125 0090 1E4B     		ldr	r3, .L57+12
 1126 0092 1B89     		ldrh	r3, [r3, #8]
 1127 0094 9BB2     		uxth	r3, r3
 1128 0096 1D49     		ldr	r1, .L57+12
 1129              		.loc 1 695 18
 1130 0098 BA19     		adds	r2, r7, r6
 1131 009a 1288     		ldrh	r2, [r2]
 1132 009c 1340     		ands	r3, r2
 1133 009e 9BB2     		uxth	r3, r3
 1134 00a0 0B81     		strh	r3, [r1, #8]
 696:Drivers/STM32F0xx_HAL_Driver/Src/stm32f0xx_hal_flash_ex.c ****         
 697:Drivers/STM32F0xx_HAL_Driver/Src/stm32f0xx_hal_flash_ex.c ****         /* Wait for last operation to be completed */
 698:Drivers/STM32F0xx_HAL_Driver/Src/stm32f0xx_hal_flash_ex.c ****         status = FLASH_WaitForLastOperation((uint32_t)FLASH_TIMEOUT_VALUE);
 1135              		.loc 1 698 18
 1136 00a2 3C18     		adds	r4, r7, r0
 1137 00a4 164B     		ldr	r3, .L57
ARM GAS  C:\Users\einom\AppData\Local\Temp\ccRZzXCk.s 			page 33


 1138 00a6 1800     		movs	r0, r3
 1139 00a8 FFF7FEFF 		bl	FLASH_WaitForLastOperation
 1140 00ac 0300     		movs	r3, r0
 1141 00ae 2370     		strb	r3, [r4]
 1142              	.L54:
 699:Drivers/STM32F0xx_HAL_Driver/Src/stm32f0xx_hal_flash_ex.c ****       }
 700:Drivers/STM32F0xx_HAL_Driver/Src/stm32f0xx_hal_flash_ex.c **** #endif /* OB_WRP0_WRP0 */
 701:Drivers/STM32F0xx_HAL_Driver/Src/stm32f0xx_hal_flash_ex.c **** 
 702:Drivers/STM32F0xx_HAL_Driver/Src/stm32f0xx_hal_flash_ex.c **** #if defined(OB_WRP1_WRP1)
 703:Drivers/STM32F0xx_HAL_Driver/Src/stm32f0xx_hal_flash_ex.c ****       if((status == HAL_OK) && (WRP1_Data != 0xFFU))
 1143              		.loc 1 703 9
 1144 00b0 0F20     		movs	r0, #15
 1145 00b2 3B18     		adds	r3, r7, r0
 1146 00b4 1B78     		ldrb	r3, [r3]
 1147 00b6 002B     		cmp	r3, #0
 1148 00b8 14D1     		bne	.L55
 1149              		.loc 1 703 29 discriminator 1
 1150 00ba 0A22     		movs	r2, #10
 1151 00bc BB18     		adds	r3, r7, r2
 1152 00be 1B88     		ldrh	r3, [r3]
 1153 00c0 FF2B     		cmp	r3, #255
 1154 00c2 0FD0     		beq	.L55
 704:Drivers/STM32F0xx_HAL_Driver/Src/stm32f0xx_hal_flash_ex.c ****       {
 705:Drivers/STM32F0xx_HAL_Driver/Src/stm32f0xx_hal_flash_ex.c ****         OB->WRP1 &= WRP1_Data;
 1155              		.loc 1 705 11
 1156 00c4 114B     		ldr	r3, .L57+12
 1157 00c6 5B89     		ldrh	r3, [r3, #10]
 1158 00c8 9BB2     		uxth	r3, r3
 1159 00ca 1049     		ldr	r1, .L57+12
 1160              		.loc 1 705 18
 1161 00cc BA18     		adds	r2, r7, r2
 1162 00ce 1288     		ldrh	r2, [r2]
 1163 00d0 1340     		ands	r3, r2
 1164 00d2 9BB2     		uxth	r3, r3
 1165 00d4 4B81     		strh	r3, [r1, #10]
 706:Drivers/STM32F0xx_HAL_Driver/Src/stm32f0xx_hal_flash_ex.c ****         
 707:Drivers/STM32F0xx_HAL_Driver/Src/stm32f0xx_hal_flash_ex.c ****         /* Wait for last operation to be completed */
 708:Drivers/STM32F0xx_HAL_Driver/Src/stm32f0xx_hal_flash_ex.c ****         status = FLASH_WaitForLastOperation((uint32_t)FLASH_TIMEOUT_VALUE);
 1166              		.loc 1 708 18
 1167 00d6 3C18     		adds	r4, r7, r0
 1168 00d8 094B     		ldr	r3, .L57
 1169 00da 1800     		movs	r0, r3
 1170 00dc FFF7FEFF 		bl	FLASH_WaitForLastOperation
 1171 00e0 0300     		movs	r3, r0
 1172 00e2 2370     		strb	r3, [r4]
 1173              	.L55:
 709:Drivers/STM32F0xx_HAL_Driver/Src/stm32f0xx_hal_flash_ex.c ****       }
 710:Drivers/STM32F0xx_HAL_Driver/Src/stm32f0xx_hal_flash_ex.c **** #endif /* OB_WRP1_WRP1 */
 711:Drivers/STM32F0xx_HAL_Driver/Src/stm32f0xx_hal_flash_ex.c **** 
 712:Drivers/STM32F0xx_HAL_Driver/Src/stm32f0xx_hal_flash_ex.c **** #if defined(OB_WRP2_WRP2)
 713:Drivers/STM32F0xx_HAL_Driver/Src/stm32f0xx_hal_flash_ex.c ****       if((status == HAL_OK) && (WRP2_Data != 0xFFU))
 714:Drivers/STM32F0xx_HAL_Driver/Src/stm32f0xx_hal_flash_ex.c ****       {
 715:Drivers/STM32F0xx_HAL_Driver/Src/stm32f0xx_hal_flash_ex.c ****         OB->WRP2 &= WRP2_Data;
 716:Drivers/STM32F0xx_HAL_Driver/Src/stm32f0xx_hal_flash_ex.c ****         
 717:Drivers/STM32F0xx_HAL_Driver/Src/stm32f0xx_hal_flash_ex.c ****         /* Wait for last operation to be completed */
 718:Drivers/STM32F0xx_HAL_Driver/Src/stm32f0xx_hal_flash_ex.c ****         status = FLASH_WaitForLastOperation((uint32_t)FLASH_TIMEOUT_VALUE);
 719:Drivers/STM32F0xx_HAL_Driver/Src/stm32f0xx_hal_flash_ex.c ****       }
ARM GAS  C:\Users\einom\AppData\Local\Temp\ccRZzXCk.s 			page 34


 720:Drivers/STM32F0xx_HAL_Driver/Src/stm32f0xx_hal_flash_ex.c **** #endif /* OB_WRP2_WRP2 */
 721:Drivers/STM32F0xx_HAL_Driver/Src/stm32f0xx_hal_flash_ex.c **** 
 722:Drivers/STM32F0xx_HAL_Driver/Src/stm32f0xx_hal_flash_ex.c **** #if defined(OB_WRP3_WRP3)
 723:Drivers/STM32F0xx_HAL_Driver/Src/stm32f0xx_hal_flash_ex.c ****       if((status == HAL_OK) && (WRP3_Data != 0xFFU))
 724:Drivers/STM32F0xx_HAL_Driver/Src/stm32f0xx_hal_flash_ex.c ****       {
 725:Drivers/STM32F0xx_HAL_Driver/Src/stm32f0xx_hal_flash_ex.c ****         OB->WRP3 &= WRP3_Data;
 726:Drivers/STM32F0xx_HAL_Driver/Src/stm32f0xx_hal_flash_ex.c ****         
 727:Drivers/STM32F0xx_HAL_Driver/Src/stm32f0xx_hal_flash_ex.c ****         /* Wait for last operation to be completed */
 728:Drivers/STM32F0xx_HAL_Driver/Src/stm32f0xx_hal_flash_ex.c ****         status = FLASH_WaitForLastOperation((uint32_t)FLASH_TIMEOUT_VALUE);
 729:Drivers/STM32F0xx_HAL_Driver/Src/stm32f0xx_hal_flash_ex.c ****       }
 730:Drivers/STM32F0xx_HAL_Driver/Src/stm32f0xx_hal_flash_ex.c **** #endif /* OB_WRP3_WRP3 */
 731:Drivers/STM32F0xx_HAL_Driver/Src/stm32f0xx_hal_flash_ex.c **** 
 732:Drivers/STM32F0xx_HAL_Driver/Src/stm32f0xx_hal_flash_ex.c ****       /* if the program operation is completed, disable the OPTPG Bit */
 733:Drivers/STM32F0xx_HAL_Driver/Src/stm32f0xx_hal_flash_ex.c ****       CLEAR_BIT(FLASH->CR, FLASH_CR_OPTPG);
 1174              		.loc 1 733 7
 1175 00e4 084B     		ldr	r3, .L57+8
 1176 00e6 1A69     		ldr	r2, [r3, #16]
 1177 00e8 074B     		ldr	r3, .L57+8
 1178 00ea 1021     		movs	r1, #16
 1179 00ec 8A43     		bics	r2, r1
 1180 00ee 1A61     		str	r2, [r3, #16]
 1181              	.L53:
 734:Drivers/STM32F0xx_HAL_Driver/Src/stm32f0xx_hal_flash_ex.c ****     }
 735:Drivers/STM32F0xx_HAL_Driver/Src/stm32f0xx_hal_flash_ex.c ****   }
 736:Drivers/STM32F0xx_HAL_Driver/Src/stm32f0xx_hal_flash_ex.c ****   return status;
 1182              		.loc 1 736 10
 1183 00f0 0F23     		movs	r3, #15
 1184 00f2 FB18     		adds	r3, r7, r3
 1185 00f4 1B78     		ldrb	r3, [r3]
 737:Drivers/STM32F0xx_HAL_Driver/Src/stm32f0xx_hal_flash_ex.c **** }
 1186              		.loc 1 737 1
 1187 00f6 1800     		movs	r0, r3
 1188 00f8 BD46     		mov	sp, r7
 1189 00fa 05B0     		add	sp, sp, #20
 1190              		@ sp needed
 1191 00fc F0BD     		pop	{r4, r5, r6, r7, pc}
 1192              	.L58:
 1193 00fe C046     		.align	2
 1194              	.L57:
 1195 0100 50C30000 		.word	50000
 1196 0104 00000000 		.word	pFlash
 1197 0108 00200240 		.word	1073881088
 1198 010c 00F8FF1F 		.word	536868864
 1199              		.cfi_endproc
 1200              	.LFE48:
 1202              		.section	.text.FLASH_OB_RDP_LevelConfig,"ax",%progbits
 1203              		.align	1
 1204              		.syntax unified
 1205              		.code	16
 1206              		.thumb_func
 1208              	FLASH_OB_RDP_LevelConfig:
 1209              	.LFB49:
 738:Drivers/STM32F0xx_HAL_Driver/Src/stm32f0xx_hal_flash_ex.c **** 
 739:Drivers/STM32F0xx_HAL_Driver/Src/stm32f0xx_hal_flash_ex.c **** /**
 740:Drivers/STM32F0xx_HAL_Driver/Src/stm32f0xx_hal_flash_ex.c ****   * @brief  Set the read protection level.
 741:Drivers/STM32F0xx_HAL_Driver/Src/stm32f0xx_hal_flash_ex.c ****   * @param  ReadProtectLevel specifies the read protection level.
 742:Drivers/STM32F0xx_HAL_Driver/Src/stm32f0xx_hal_flash_ex.c ****   *         This parameter can be one of the following values:
ARM GAS  C:\Users\einom\AppData\Local\Temp\ccRZzXCk.s 			page 35


 743:Drivers/STM32F0xx_HAL_Driver/Src/stm32f0xx_hal_flash_ex.c ****   *            @arg @ref OB_RDP_LEVEL_0 No protection
 744:Drivers/STM32F0xx_HAL_Driver/Src/stm32f0xx_hal_flash_ex.c ****   *            @arg @ref OB_RDP_LEVEL_1 Read protection of the memory
 745:Drivers/STM32F0xx_HAL_Driver/Src/stm32f0xx_hal_flash_ex.c ****   *            @arg @ref OB_RDP_LEVEL_2 Full chip protection
 746:Drivers/STM32F0xx_HAL_Driver/Src/stm32f0xx_hal_flash_ex.c ****   * @note   Warning: When enabling OB_RDP level 2 it's no more possible to go back to level 1 or 0
 747:Drivers/STM32F0xx_HAL_Driver/Src/stm32f0xx_hal_flash_ex.c ****   * @retval HAL status
 748:Drivers/STM32F0xx_HAL_Driver/Src/stm32f0xx_hal_flash_ex.c ****   */
 749:Drivers/STM32F0xx_HAL_Driver/Src/stm32f0xx_hal_flash_ex.c **** static HAL_StatusTypeDef FLASH_OB_RDP_LevelConfig(uint8_t ReadProtectLevel)
 750:Drivers/STM32F0xx_HAL_Driver/Src/stm32f0xx_hal_flash_ex.c **** {
 1210              		.loc 1 750 1
 1211              		.cfi_startproc
 1212              		@ args = 0, pretend = 0, frame = 16
 1213              		@ frame_needed = 1, uses_anonymous_args = 0
 1214 0000 B0B5     		push	{r4, r5, r7, lr}
 1215              	.LCFI26:
 1216              		.cfi_def_cfa_offset 16
 1217              		.cfi_offset 4, -16
 1218              		.cfi_offset 5, -12
 1219              		.cfi_offset 7, -8
 1220              		.cfi_offset 14, -4
 1221 0002 84B0     		sub	sp, sp, #16
 1222              	.LCFI27:
 1223              		.cfi_def_cfa_offset 32
 1224 0004 00AF     		add	r7, sp, #0
 1225              	.LCFI28:
 1226              		.cfi_def_cfa_register 7
 1227 0006 0200     		movs	r2, r0
 1228 0008 FB1D     		adds	r3, r7, #7
 1229 000a 1A70     		strb	r2, [r3]
 751:Drivers/STM32F0xx_HAL_Driver/Src/stm32f0xx_hal_flash_ex.c ****   HAL_StatusTypeDef status = HAL_OK;
 1230              		.loc 1 751 21
 1231 000c 0F25     		movs	r5, #15
 1232 000e 7B19     		adds	r3, r7, r5
 1233 0010 0022     		movs	r2, #0
 1234 0012 1A70     		strb	r2, [r3]
 752:Drivers/STM32F0xx_HAL_Driver/Src/stm32f0xx_hal_flash_ex.c ****   
 753:Drivers/STM32F0xx_HAL_Driver/Src/stm32f0xx_hal_flash_ex.c ****   /* Check the parameters */
 754:Drivers/STM32F0xx_HAL_Driver/Src/stm32f0xx_hal_flash_ex.c ****   assert_param(IS_OB_RDP_LEVEL(ReadProtectLevel));
 755:Drivers/STM32F0xx_HAL_Driver/Src/stm32f0xx_hal_flash_ex.c ****   
 756:Drivers/STM32F0xx_HAL_Driver/Src/stm32f0xx_hal_flash_ex.c ****   /* Wait for last operation to be completed */
 757:Drivers/STM32F0xx_HAL_Driver/Src/stm32f0xx_hal_flash_ex.c ****   status = FLASH_WaitForLastOperation((uint32_t)FLASH_TIMEOUT_VALUE);
 1235              		.loc 1 757 12
 1236 0014 7C19     		adds	r4, r7, r5
 1237 0016 264B     		ldr	r3, .L62
 1238 0018 1800     		movs	r0, r3
 1239 001a FFF7FEFF 		bl	FLASH_WaitForLastOperation
 1240 001e 0300     		movs	r3, r0
 1241 0020 2370     		strb	r3, [r4]
 758:Drivers/STM32F0xx_HAL_Driver/Src/stm32f0xx_hal_flash_ex.c ****   
 759:Drivers/STM32F0xx_HAL_Driver/Src/stm32f0xx_hal_flash_ex.c ****   if(status == HAL_OK)
 1242              		.loc 1 759 5
 1243 0022 2800     		movs	r0, r5
 1244 0024 3B18     		adds	r3, r7, r0
 1245 0026 1B78     		ldrb	r3, [r3]
 1246 0028 002B     		cmp	r3, #0
 1247 002a 39D1     		bne	.L60
 760:Drivers/STM32F0xx_HAL_Driver/Src/stm32f0xx_hal_flash_ex.c ****   { 
 761:Drivers/STM32F0xx_HAL_Driver/Src/stm32f0xx_hal_flash_ex.c ****     /* Clean the error context */
ARM GAS  C:\Users\einom\AppData\Local\Temp\ccRZzXCk.s 			page 36


 762:Drivers/STM32F0xx_HAL_Driver/Src/stm32f0xx_hal_flash_ex.c ****     pFlash.ErrorCode = HAL_FLASH_ERROR_NONE;
 1248              		.loc 1 762 22
 1249 002c 214B     		ldr	r3, .L62+4
 1250 002e 0022     		movs	r2, #0
 1251 0030 DA61     		str	r2, [r3, #28]
 763:Drivers/STM32F0xx_HAL_Driver/Src/stm32f0xx_hal_flash_ex.c ****     
 764:Drivers/STM32F0xx_HAL_Driver/Src/stm32f0xx_hal_flash_ex.c ****     /* If the previous operation is completed, proceed to erase the option bytes */
 765:Drivers/STM32F0xx_HAL_Driver/Src/stm32f0xx_hal_flash_ex.c ****     SET_BIT(FLASH->CR, FLASH_CR_OPTER);
 1252              		.loc 1 765 5
 1253 0032 214B     		ldr	r3, .L62+8
 1254 0034 1A69     		ldr	r2, [r3, #16]
 1255 0036 204B     		ldr	r3, .L62+8
 1256 0038 2021     		movs	r1, #32
 1257 003a 0A43     		orrs	r2, r1
 1258 003c 1A61     		str	r2, [r3, #16]
 766:Drivers/STM32F0xx_HAL_Driver/Src/stm32f0xx_hal_flash_ex.c ****     SET_BIT(FLASH->CR, FLASH_CR_STRT);
 1259              		.loc 1 766 5
 1260 003e 1E4B     		ldr	r3, .L62+8
 1261 0040 1A69     		ldr	r2, [r3, #16]
 1262 0042 1D4B     		ldr	r3, .L62+8
 1263 0044 4021     		movs	r1, #64
 1264 0046 0A43     		orrs	r2, r1
 1265 0048 1A61     		str	r2, [r3, #16]
 767:Drivers/STM32F0xx_HAL_Driver/Src/stm32f0xx_hal_flash_ex.c **** 
 768:Drivers/STM32F0xx_HAL_Driver/Src/stm32f0xx_hal_flash_ex.c ****     /* Wait for last operation to be completed */
 769:Drivers/STM32F0xx_HAL_Driver/Src/stm32f0xx_hal_flash_ex.c ****     status = FLASH_WaitForLastOperation((uint32_t)FLASH_TIMEOUT_VALUE);
 1266              		.loc 1 769 14
 1267 004a 0500     		movs	r5, r0
 1268 004c 3C18     		adds	r4, r7, r0
 1269 004e 184B     		ldr	r3, .L62
 1270 0050 1800     		movs	r0, r3
 1271 0052 FFF7FEFF 		bl	FLASH_WaitForLastOperation
 1272 0056 0300     		movs	r3, r0
 1273 0058 2370     		strb	r3, [r4]
 770:Drivers/STM32F0xx_HAL_Driver/Src/stm32f0xx_hal_flash_ex.c **** 
 771:Drivers/STM32F0xx_HAL_Driver/Src/stm32f0xx_hal_flash_ex.c ****     /* If the erase operation is completed, disable the OPTER Bit */
 772:Drivers/STM32F0xx_HAL_Driver/Src/stm32f0xx_hal_flash_ex.c ****     CLEAR_BIT(FLASH->CR, FLASH_CR_OPTER);
 1274              		.loc 1 772 5
 1275 005a 174B     		ldr	r3, .L62+8
 1276 005c 1A69     		ldr	r2, [r3, #16]
 1277 005e 164B     		ldr	r3, .L62+8
 1278 0060 2021     		movs	r1, #32
 1279 0062 8A43     		bics	r2, r1
 1280 0064 1A61     		str	r2, [r3, #16]
 773:Drivers/STM32F0xx_HAL_Driver/Src/stm32f0xx_hal_flash_ex.c **** 
 774:Drivers/STM32F0xx_HAL_Driver/Src/stm32f0xx_hal_flash_ex.c ****     if(status == HAL_OK)
 1281              		.loc 1 774 7
 1282 0066 2800     		movs	r0, r5
 1283 0068 3B18     		adds	r3, r7, r0
 1284 006a 1B78     		ldrb	r3, [r3]
 1285 006c 002B     		cmp	r3, #0
 1286 006e 17D1     		bne	.L60
 775:Drivers/STM32F0xx_HAL_Driver/Src/stm32f0xx_hal_flash_ex.c ****     {
 776:Drivers/STM32F0xx_HAL_Driver/Src/stm32f0xx_hal_flash_ex.c ****       /* Enable the Option Bytes Programming operation */
 777:Drivers/STM32F0xx_HAL_Driver/Src/stm32f0xx_hal_flash_ex.c ****       SET_BIT(FLASH->CR, FLASH_CR_OPTPG);
 1287              		.loc 1 777 7
 1288 0070 114B     		ldr	r3, .L62+8
ARM GAS  C:\Users\einom\AppData\Local\Temp\ccRZzXCk.s 			page 37


 1289 0072 1A69     		ldr	r2, [r3, #16]
 1290 0074 104B     		ldr	r3, .L62+8
 1291 0076 1021     		movs	r1, #16
 1292 0078 0A43     		orrs	r2, r1
 1293 007a 1A61     		str	r2, [r3, #16]
 778:Drivers/STM32F0xx_HAL_Driver/Src/stm32f0xx_hal_flash_ex.c ****       
 779:Drivers/STM32F0xx_HAL_Driver/Src/stm32f0xx_hal_flash_ex.c ****       WRITE_REG(OB->RDP, ReadProtectLevel);
 1294              		.loc 1 779 7
 1295 007c 0F4A     		ldr	r2, .L62+12
 1296 007e FB1D     		adds	r3, r7, #7
 1297 0080 1B78     		ldrb	r3, [r3]
 1298 0082 9BB2     		uxth	r3, r3
 1299 0084 1380     		strh	r3, [r2]
 780:Drivers/STM32F0xx_HAL_Driver/Src/stm32f0xx_hal_flash_ex.c ****       
 781:Drivers/STM32F0xx_HAL_Driver/Src/stm32f0xx_hal_flash_ex.c ****       /* Wait for last operation to be completed */
 782:Drivers/STM32F0xx_HAL_Driver/Src/stm32f0xx_hal_flash_ex.c ****       status = FLASH_WaitForLastOperation((uint32_t)FLASH_TIMEOUT_VALUE); 
 1300              		.loc 1 782 16
 1301 0086 3C18     		adds	r4, r7, r0
 1302 0088 094B     		ldr	r3, .L62
 1303 008a 1800     		movs	r0, r3
 1304 008c FFF7FEFF 		bl	FLASH_WaitForLastOperation
 1305 0090 0300     		movs	r3, r0
 1306 0092 2370     		strb	r3, [r4]
 783:Drivers/STM32F0xx_HAL_Driver/Src/stm32f0xx_hal_flash_ex.c ****       
 784:Drivers/STM32F0xx_HAL_Driver/Src/stm32f0xx_hal_flash_ex.c ****       /* if the program operation is completed, disable the OPTPG Bit */
 785:Drivers/STM32F0xx_HAL_Driver/Src/stm32f0xx_hal_flash_ex.c ****       CLEAR_BIT(FLASH->CR, FLASH_CR_OPTPG);
 1307              		.loc 1 785 7
 1308 0094 084B     		ldr	r3, .L62+8
 1309 0096 1A69     		ldr	r2, [r3, #16]
 1310 0098 074B     		ldr	r3, .L62+8
 1311 009a 1021     		movs	r1, #16
 1312 009c 8A43     		bics	r2, r1
 1313 009e 1A61     		str	r2, [r3, #16]
 1314              	.L60:
 786:Drivers/STM32F0xx_HAL_Driver/Src/stm32f0xx_hal_flash_ex.c ****     }
 787:Drivers/STM32F0xx_HAL_Driver/Src/stm32f0xx_hal_flash_ex.c ****   }
 788:Drivers/STM32F0xx_HAL_Driver/Src/stm32f0xx_hal_flash_ex.c ****   
 789:Drivers/STM32F0xx_HAL_Driver/Src/stm32f0xx_hal_flash_ex.c ****   return status;
 1315              		.loc 1 789 10
 1316 00a0 0F23     		movs	r3, #15
 1317 00a2 FB18     		adds	r3, r7, r3
 1318 00a4 1B78     		ldrb	r3, [r3]
 790:Drivers/STM32F0xx_HAL_Driver/Src/stm32f0xx_hal_flash_ex.c **** }
 1319              		.loc 1 790 1
 1320 00a6 1800     		movs	r0, r3
 1321 00a8 BD46     		mov	sp, r7
 1322 00aa 04B0     		add	sp, sp, #16
 1323              		@ sp needed
 1324 00ac B0BD     		pop	{r4, r5, r7, pc}
 1325              	.L63:
 1326 00ae C046     		.align	2
 1327              	.L62:
 1328 00b0 50C30000 		.word	50000
 1329 00b4 00000000 		.word	pFlash
 1330 00b8 00200240 		.word	1073881088
 1331 00bc 00F8FF1F 		.word	536868864
 1332              		.cfi_endproc
ARM GAS  C:\Users\einom\AppData\Local\Temp\ccRZzXCk.s 			page 38


 1333              	.LFE49:
 1335              		.section	.text.FLASH_OB_UserConfig,"ax",%progbits
 1336              		.align	1
 1337              		.syntax unified
 1338              		.code	16
 1339              		.thumb_func
 1341              	FLASH_OB_UserConfig:
 1342              	.LFB50:
 791:Drivers/STM32F0xx_HAL_Driver/Src/stm32f0xx_hal_flash_ex.c **** 
 792:Drivers/STM32F0xx_HAL_Driver/Src/stm32f0xx_hal_flash_ex.c **** /**
 793:Drivers/STM32F0xx_HAL_Driver/Src/stm32f0xx_hal_flash_ex.c ****   * @brief  Program the FLASH User Option Byte.    
 794:Drivers/STM32F0xx_HAL_Driver/Src/stm32f0xx_hal_flash_ex.c ****   * @note   Programming of the OB should be performed only after an erase (otherwise PGERR occurs)
 795:Drivers/STM32F0xx_HAL_Driver/Src/stm32f0xx_hal_flash_ex.c ****   * @param  UserConfig The FLASH User Option Bytes values: IWDG_SW(Bit0), RST_STOP(Bit1), RST_STDBY
 796:Drivers/STM32F0xx_HAL_Driver/Src/stm32f0xx_hal_flash_ex.c ****   *         VDDA_Analog_Monitoring(Bit5) and SRAM_Parity_Enable(Bit6). 
 797:Drivers/STM32F0xx_HAL_Driver/Src/stm32f0xx_hal_flash_ex.c ****   *         For few devices, following option bytes are available: nBOOT0(Bit3) & BOOT_SEL(Bit7).
 798:Drivers/STM32F0xx_HAL_Driver/Src/stm32f0xx_hal_flash_ex.c ****   * @retval HAL status
 799:Drivers/STM32F0xx_HAL_Driver/Src/stm32f0xx_hal_flash_ex.c ****   */
 800:Drivers/STM32F0xx_HAL_Driver/Src/stm32f0xx_hal_flash_ex.c **** static HAL_StatusTypeDef FLASH_OB_UserConfig(uint8_t UserConfig)
 801:Drivers/STM32F0xx_HAL_Driver/Src/stm32f0xx_hal_flash_ex.c **** {
 1343              		.loc 1 801 1
 1344              		.cfi_startproc
 1345              		@ args = 0, pretend = 0, frame = 16
 1346              		@ frame_needed = 1, uses_anonymous_args = 0
 1347 0000 B0B5     		push	{r4, r5, r7, lr}
 1348              	.LCFI29:
 1349              		.cfi_def_cfa_offset 16
 1350              		.cfi_offset 4, -16
 1351              		.cfi_offset 5, -12
 1352              		.cfi_offset 7, -8
 1353              		.cfi_offset 14, -4
 1354 0002 84B0     		sub	sp, sp, #16
 1355              	.LCFI30:
 1356              		.cfi_def_cfa_offset 32
 1357 0004 00AF     		add	r7, sp, #0
 1358              	.LCFI31:
 1359              		.cfi_def_cfa_register 7
 1360 0006 0200     		movs	r2, r0
 1361 0008 FB1D     		adds	r3, r7, #7
 1362 000a 1A70     		strb	r2, [r3]
 802:Drivers/STM32F0xx_HAL_Driver/Src/stm32f0xx_hal_flash_ex.c ****   HAL_StatusTypeDef status = HAL_OK;
 1363              		.loc 1 802 21
 1364 000c 0F25     		movs	r5, #15
 1365 000e 7B19     		adds	r3, r7, r5
 1366 0010 0022     		movs	r2, #0
 1367 0012 1A70     		strb	r2, [r3]
 803:Drivers/STM32F0xx_HAL_Driver/Src/stm32f0xx_hal_flash_ex.c **** 
 804:Drivers/STM32F0xx_HAL_Driver/Src/stm32f0xx_hal_flash_ex.c ****   /* Check the parameters */
 805:Drivers/STM32F0xx_HAL_Driver/Src/stm32f0xx_hal_flash_ex.c ****   assert_param(IS_OB_IWDG_SOURCE((UserConfig&OB_IWDG_SW)));
 806:Drivers/STM32F0xx_HAL_Driver/Src/stm32f0xx_hal_flash_ex.c ****   assert_param(IS_OB_STOP_SOURCE((UserConfig&OB_STOP_NO_RST)));
 807:Drivers/STM32F0xx_HAL_Driver/Src/stm32f0xx_hal_flash_ex.c ****   assert_param(IS_OB_STDBY_SOURCE((UserConfig&OB_STDBY_NO_RST)));
 808:Drivers/STM32F0xx_HAL_Driver/Src/stm32f0xx_hal_flash_ex.c ****   assert_param(IS_OB_BOOT1((UserConfig&OB_BOOT1_SET)));
 809:Drivers/STM32F0xx_HAL_Driver/Src/stm32f0xx_hal_flash_ex.c ****   assert_param(IS_OB_VDDA_ANALOG((UserConfig&OB_VDDA_ANALOG_ON)));
 810:Drivers/STM32F0xx_HAL_Driver/Src/stm32f0xx_hal_flash_ex.c ****   assert_param(IS_OB_SRAM_PARITY((UserConfig&OB_SRAM_PARITY_RESET)));
 811:Drivers/STM32F0xx_HAL_Driver/Src/stm32f0xx_hal_flash_ex.c **** #if defined(FLASH_OBR_BOOT_SEL)
 812:Drivers/STM32F0xx_HAL_Driver/Src/stm32f0xx_hal_flash_ex.c ****   assert_param(IS_OB_BOOT_SEL((UserConfig&OB_BOOT_SEL_SET)));
 813:Drivers/STM32F0xx_HAL_Driver/Src/stm32f0xx_hal_flash_ex.c ****   assert_param(IS_OB_BOOT0((UserConfig&OB_BOOT0_SET)));
 814:Drivers/STM32F0xx_HAL_Driver/Src/stm32f0xx_hal_flash_ex.c **** #endif /* FLASH_OBR_BOOT_SEL */
ARM GAS  C:\Users\einom\AppData\Local\Temp\ccRZzXCk.s 			page 39


 815:Drivers/STM32F0xx_HAL_Driver/Src/stm32f0xx_hal_flash_ex.c **** 
 816:Drivers/STM32F0xx_HAL_Driver/Src/stm32f0xx_hal_flash_ex.c ****   /* Wait for last operation to be completed */
 817:Drivers/STM32F0xx_HAL_Driver/Src/stm32f0xx_hal_flash_ex.c ****   status = FLASH_WaitForLastOperation((uint32_t)FLASH_TIMEOUT_VALUE);
 1368              		.loc 1 817 12
 1369 0014 7C19     		adds	r4, r7, r5
 1370 0016 184B     		ldr	r3, .L67
 1371 0018 1800     		movs	r0, r3
 1372 001a FFF7FEFF 		bl	FLASH_WaitForLastOperation
 1373 001e 0300     		movs	r3, r0
 1374 0020 2370     		strb	r3, [r4]
 818:Drivers/STM32F0xx_HAL_Driver/Src/stm32f0xx_hal_flash_ex.c ****   
 819:Drivers/STM32F0xx_HAL_Driver/Src/stm32f0xx_hal_flash_ex.c ****   if(status == HAL_OK)
 1375              		.loc 1 819 5
 1376 0022 2800     		movs	r0, r5
 1377 0024 3B18     		adds	r3, r7, r0
 1378 0026 1B78     		ldrb	r3, [r3]
 1379 0028 002B     		cmp	r3, #0
 1380 002a 1DD1     		bne	.L65
 820:Drivers/STM32F0xx_HAL_Driver/Src/stm32f0xx_hal_flash_ex.c ****   {     
 821:Drivers/STM32F0xx_HAL_Driver/Src/stm32f0xx_hal_flash_ex.c ****     /* Clean the error context */
 822:Drivers/STM32F0xx_HAL_Driver/Src/stm32f0xx_hal_flash_ex.c ****     pFlash.ErrorCode = HAL_FLASH_ERROR_NONE;
 1381              		.loc 1 822 22
 1382 002c 134B     		ldr	r3, .L67+4
 1383 002e 0022     		movs	r2, #0
 1384 0030 DA61     		str	r2, [r3, #28]
 823:Drivers/STM32F0xx_HAL_Driver/Src/stm32f0xx_hal_flash_ex.c **** 
 824:Drivers/STM32F0xx_HAL_Driver/Src/stm32f0xx_hal_flash_ex.c ****     /* Enable the Option Bytes Programming operation */
 825:Drivers/STM32F0xx_HAL_Driver/Src/stm32f0xx_hal_flash_ex.c ****     SET_BIT(FLASH->CR, FLASH_CR_OPTPG); 
 1385              		.loc 1 825 5
 1386 0032 134B     		ldr	r3, .L67+8
 1387 0034 1A69     		ldr	r2, [r3, #16]
 1388 0036 124B     		ldr	r3, .L67+8
 1389 0038 1021     		movs	r1, #16
 1390 003a 0A43     		orrs	r2, r1
 1391 003c 1A61     		str	r2, [r3, #16]
 826:Drivers/STM32F0xx_HAL_Driver/Src/stm32f0xx_hal_flash_ex.c ****  
 827:Drivers/STM32F0xx_HAL_Driver/Src/stm32f0xx_hal_flash_ex.c **** #if defined(FLASH_OBR_BOOT_SEL)
 828:Drivers/STM32F0xx_HAL_Driver/Src/stm32f0xx_hal_flash_ex.c ****     OB->USER = UserConfig;
 829:Drivers/STM32F0xx_HAL_Driver/Src/stm32f0xx_hal_flash_ex.c **** #else
 830:Drivers/STM32F0xx_HAL_Driver/Src/stm32f0xx_hal_flash_ex.c ****     OB->USER = (UserConfig | 0x88U);
 1392              		.loc 1 830 14
 1393 003e FB1D     		adds	r3, r7, #7
 1394 0040 1B78     		ldrb	r3, [r3]
 1395 0042 7822     		movs	r2, #120
 1396 0044 5242     		rsbs	r2, r2, #0
 1397 0046 1343     		orrs	r3, r2
 1398 0048 DAB2     		uxtb	r2, r3
 1399              		.loc 1 830 7
 1400 004a 0E4B     		ldr	r3, .L67+12
 1401              		.loc 1 830 14
 1402 004c 5A80     		strh	r2, [r3, #2]
 831:Drivers/STM32F0xx_HAL_Driver/Src/stm32f0xx_hal_flash_ex.c **** #endif
 832:Drivers/STM32F0xx_HAL_Driver/Src/stm32f0xx_hal_flash_ex.c **** 
 833:Drivers/STM32F0xx_HAL_Driver/Src/stm32f0xx_hal_flash_ex.c ****     /* Wait for last operation to be completed */
 834:Drivers/STM32F0xx_HAL_Driver/Src/stm32f0xx_hal_flash_ex.c ****     status = FLASH_WaitForLastOperation((uint32_t)FLASH_TIMEOUT_VALUE);
 1403              		.loc 1 834 14
 1404 004e 3C18     		adds	r4, r7, r0
ARM GAS  C:\Users\einom\AppData\Local\Temp\ccRZzXCk.s 			page 40


 1405 0050 094B     		ldr	r3, .L67
 1406 0052 1800     		movs	r0, r3
 1407 0054 FFF7FEFF 		bl	FLASH_WaitForLastOperation
 1408 0058 0300     		movs	r3, r0
 1409 005a 2370     		strb	r3, [r4]
 835:Drivers/STM32F0xx_HAL_Driver/Src/stm32f0xx_hal_flash_ex.c **** 
 836:Drivers/STM32F0xx_HAL_Driver/Src/stm32f0xx_hal_flash_ex.c ****     /* if the program operation is completed, disable the OPTPG Bit */
 837:Drivers/STM32F0xx_HAL_Driver/Src/stm32f0xx_hal_flash_ex.c ****     CLEAR_BIT(FLASH->CR, FLASH_CR_OPTPG);
 1410              		.loc 1 837 5
 1411 005c 084B     		ldr	r3, .L67+8
 1412 005e 1A69     		ldr	r2, [r3, #16]
 1413 0060 074B     		ldr	r3, .L67+8
 1414 0062 1021     		movs	r1, #16
 1415 0064 8A43     		bics	r2, r1
 1416 0066 1A61     		str	r2, [r3, #16]
 1417              	.L65:
 838:Drivers/STM32F0xx_HAL_Driver/Src/stm32f0xx_hal_flash_ex.c ****   }
 839:Drivers/STM32F0xx_HAL_Driver/Src/stm32f0xx_hal_flash_ex.c ****   
 840:Drivers/STM32F0xx_HAL_Driver/Src/stm32f0xx_hal_flash_ex.c ****   return status; 
 1418              		.loc 1 840 10
 1419 0068 0F23     		movs	r3, #15
 1420 006a FB18     		adds	r3, r7, r3
 1421 006c 1B78     		ldrb	r3, [r3]
 841:Drivers/STM32F0xx_HAL_Driver/Src/stm32f0xx_hal_flash_ex.c **** }
 1422              		.loc 1 841 1
 1423 006e 1800     		movs	r0, r3
 1424 0070 BD46     		mov	sp, r7
 1425 0072 04B0     		add	sp, sp, #16
 1426              		@ sp needed
 1427 0074 B0BD     		pop	{r4, r5, r7, pc}
 1428              	.L68:
 1429 0076 C046     		.align	2
 1430              	.L67:
 1431 0078 50C30000 		.word	50000
 1432 007c 00000000 		.word	pFlash
 1433 0080 00200240 		.word	1073881088
 1434 0084 00F8FF1F 		.word	536868864
 1435              		.cfi_endproc
 1436              	.LFE50:
 1438              		.section	.text.FLASH_OB_ProgramData,"ax",%progbits
 1439              		.align	1
 1440              		.syntax unified
 1441              		.code	16
 1442              		.thumb_func
 1444              	FLASH_OB_ProgramData:
 1445              	.LFB51:
 842:Drivers/STM32F0xx_HAL_Driver/Src/stm32f0xx_hal_flash_ex.c **** 
 843:Drivers/STM32F0xx_HAL_Driver/Src/stm32f0xx_hal_flash_ex.c **** /**
 844:Drivers/STM32F0xx_HAL_Driver/Src/stm32f0xx_hal_flash_ex.c ****   * @brief  Programs a half word at a specified Option Byte Data address.
 845:Drivers/STM32F0xx_HAL_Driver/Src/stm32f0xx_hal_flash_ex.c ****   * @note   The function @ref HAL_FLASH_Unlock() should be called before to unlock the FLASH interf
 846:Drivers/STM32F0xx_HAL_Driver/Src/stm32f0xx_hal_flash_ex.c ****   *         The function @ref HAL_FLASH_OB_Unlock() should be called before to unlock the options b
 847:Drivers/STM32F0xx_HAL_Driver/Src/stm32f0xx_hal_flash_ex.c ****   *         The function @ref HAL_FLASH_OB_Launch() should be called after to force the reload of t
 848:Drivers/STM32F0xx_HAL_Driver/Src/stm32f0xx_hal_flash_ex.c ****   *         (system reset will occur)
 849:Drivers/STM32F0xx_HAL_Driver/Src/stm32f0xx_hal_flash_ex.c ****   *         Programming of the OB should be performed only after an erase (otherwise PGERR occurs)
 850:Drivers/STM32F0xx_HAL_Driver/Src/stm32f0xx_hal_flash_ex.c ****   * @param  Address specifies the address to be programmed.
 851:Drivers/STM32F0xx_HAL_Driver/Src/stm32f0xx_hal_flash_ex.c ****   *         This parameter can be 0x1FFFF804 or 0x1FFFF806. 
 852:Drivers/STM32F0xx_HAL_Driver/Src/stm32f0xx_hal_flash_ex.c ****   * @param  Data specifies the data to be programmed.
ARM GAS  C:\Users\einom\AppData\Local\Temp\ccRZzXCk.s 			page 41


 853:Drivers/STM32F0xx_HAL_Driver/Src/stm32f0xx_hal_flash_ex.c ****   * @retval HAL status
 854:Drivers/STM32F0xx_HAL_Driver/Src/stm32f0xx_hal_flash_ex.c ****   */
 855:Drivers/STM32F0xx_HAL_Driver/Src/stm32f0xx_hal_flash_ex.c **** static HAL_StatusTypeDef FLASH_OB_ProgramData(uint32_t Address, uint8_t Data)
 856:Drivers/STM32F0xx_HAL_Driver/Src/stm32f0xx_hal_flash_ex.c **** {
 1446              		.loc 1 856 1
 1447              		.cfi_startproc
 1448              		@ args = 0, pretend = 0, frame = 16
 1449              		@ frame_needed = 1, uses_anonymous_args = 0
 1450 0000 B0B5     		push	{r4, r5, r7, lr}
 1451              	.LCFI32:
 1452              		.cfi_def_cfa_offset 16
 1453              		.cfi_offset 4, -16
 1454              		.cfi_offset 5, -12
 1455              		.cfi_offset 7, -8
 1456              		.cfi_offset 14, -4
 1457 0002 84B0     		sub	sp, sp, #16
 1458              	.LCFI33:
 1459              		.cfi_def_cfa_offset 32
 1460 0004 00AF     		add	r7, sp, #0
 1461              	.LCFI34:
 1462              		.cfi_def_cfa_register 7
 1463 0006 7860     		str	r0, [r7, #4]
 1464 0008 0A00     		movs	r2, r1
 1465 000a FB1C     		adds	r3, r7, #3
 1466 000c 1A70     		strb	r2, [r3]
 857:Drivers/STM32F0xx_HAL_Driver/Src/stm32f0xx_hal_flash_ex.c ****   HAL_StatusTypeDef status = HAL_ERROR;
 1467              		.loc 1 857 21
 1468 000e 0F25     		movs	r5, #15
 1469 0010 7B19     		adds	r3, r7, r5
 1470 0012 0122     		movs	r2, #1
 1471 0014 1A70     		strb	r2, [r3]
 858:Drivers/STM32F0xx_HAL_Driver/Src/stm32f0xx_hal_flash_ex.c ****   
 859:Drivers/STM32F0xx_HAL_Driver/Src/stm32f0xx_hal_flash_ex.c ****   /* Check the parameters */
 860:Drivers/STM32F0xx_HAL_Driver/Src/stm32f0xx_hal_flash_ex.c ****   assert_param(IS_OB_DATA_ADDRESS(Address));
 861:Drivers/STM32F0xx_HAL_Driver/Src/stm32f0xx_hal_flash_ex.c ****   
 862:Drivers/STM32F0xx_HAL_Driver/Src/stm32f0xx_hal_flash_ex.c ****   /* Wait for last operation to be completed */
 863:Drivers/STM32F0xx_HAL_Driver/Src/stm32f0xx_hal_flash_ex.c ****   status = FLASH_WaitForLastOperation((uint32_t)FLASH_TIMEOUT_VALUE);
 1472              		.loc 1 863 12
 1473 0016 7C19     		adds	r4, r7, r5
 1474 0018 164B     		ldr	r3, .L72
 1475 001a 1800     		movs	r0, r3
 1476 001c FFF7FEFF 		bl	FLASH_WaitForLastOperation
 1477 0020 0300     		movs	r3, r0
 1478 0022 2370     		strb	r3, [r4]
 864:Drivers/STM32F0xx_HAL_Driver/Src/stm32f0xx_hal_flash_ex.c ****   
 865:Drivers/STM32F0xx_HAL_Driver/Src/stm32f0xx_hal_flash_ex.c ****   if(status == HAL_OK)
 1479              		.loc 1 865 5
 1480 0024 2800     		movs	r0, r5
 1481 0026 3B18     		adds	r3, r7, r0
 1482 0028 1B78     		ldrb	r3, [r3]
 1483 002a 002B     		cmp	r3, #0
 1484 002c 1AD1     		bne	.L70
 866:Drivers/STM32F0xx_HAL_Driver/Src/stm32f0xx_hal_flash_ex.c ****   {
 867:Drivers/STM32F0xx_HAL_Driver/Src/stm32f0xx_hal_flash_ex.c ****     /* Clean the error context */
 868:Drivers/STM32F0xx_HAL_Driver/Src/stm32f0xx_hal_flash_ex.c ****     pFlash.ErrorCode = HAL_FLASH_ERROR_NONE;
 1485              		.loc 1 868 22
 1486 002e 124B     		ldr	r3, .L72+4
ARM GAS  C:\Users\einom\AppData\Local\Temp\ccRZzXCk.s 			page 42


 1487 0030 0022     		movs	r2, #0
 1488 0032 DA61     		str	r2, [r3, #28]
 869:Drivers/STM32F0xx_HAL_Driver/Src/stm32f0xx_hal_flash_ex.c **** 
 870:Drivers/STM32F0xx_HAL_Driver/Src/stm32f0xx_hal_flash_ex.c ****     /* Enables the Option Bytes Programming operation */
 871:Drivers/STM32F0xx_HAL_Driver/Src/stm32f0xx_hal_flash_ex.c ****     SET_BIT(FLASH->CR, FLASH_CR_OPTPG); 
 1489              		.loc 1 871 5
 1490 0034 114B     		ldr	r3, .L72+8
 1491 0036 1A69     		ldr	r2, [r3, #16]
 1492 0038 104B     		ldr	r3, .L72+8
 1493 003a 1021     		movs	r1, #16
 1494 003c 0A43     		orrs	r2, r1
 1495 003e 1A61     		str	r2, [r3, #16]
 872:Drivers/STM32F0xx_HAL_Driver/Src/stm32f0xx_hal_flash_ex.c ****     *(__IO uint16_t*)Address = Data;
 1496              		.loc 1 872 6
 1497 0040 7B68     		ldr	r3, [r7, #4]
 1498              		.loc 1 872 30
 1499 0042 FA1C     		adds	r2, r7, #3
 1500 0044 1278     		ldrb	r2, [r2]
 1501 0046 92B2     		uxth	r2, r2
 1502 0048 1A80     		strh	r2, [r3]
 873:Drivers/STM32F0xx_HAL_Driver/Src/stm32f0xx_hal_flash_ex.c ****     
 874:Drivers/STM32F0xx_HAL_Driver/Src/stm32f0xx_hal_flash_ex.c ****     /* Wait for last operation to be completed */
 875:Drivers/STM32F0xx_HAL_Driver/Src/stm32f0xx_hal_flash_ex.c ****     status = FLASH_WaitForLastOperation((uint32_t)FLASH_TIMEOUT_VALUE);
 1503              		.loc 1 875 14
 1504 004a 3C18     		adds	r4, r7, r0
 1505 004c 094B     		ldr	r3, .L72
 1506 004e 1800     		movs	r0, r3
 1507 0050 FFF7FEFF 		bl	FLASH_WaitForLastOperation
 1508 0054 0300     		movs	r3, r0
 1509 0056 2370     		strb	r3, [r4]
 876:Drivers/STM32F0xx_HAL_Driver/Src/stm32f0xx_hal_flash_ex.c ****     
 877:Drivers/STM32F0xx_HAL_Driver/Src/stm32f0xx_hal_flash_ex.c ****     /* If the program operation is completed, disable the OPTPG Bit */
 878:Drivers/STM32F0xx_HAL_Driver/Src/stm32f0xx_hal_flash_ex.c ****     CLEAR_BIT(FLASH->CR, FLASH_CR_OPTPG);
 1510              		.loc 1 878 5
 1511 0058 084B     		ldr	r3, .L72+8
 1512 005a 1A69     		ldr	r2, [r3, #16]
 1513 005c 074B     		ldr	r3, .L72+8
 1514 005e 1021     		movs	r1, #16
 1515 0060 8A43     		bics	r2, r1
 1516 0062 1A61     		str	r2, [r3, #16]
 1517              	.L70:
 879:Drivers/STM32F0xx_HAL_Driver/Src/stm32f0xx_hal_flash_ex.c ****   }
 880:Drivers/STM32F0xx_HAL_Driver/Src/stm32f0xx_hal_flash_ex.c ****   /* Return the Option Byte Data Program Status */
 881:Drivers/STM32F0xx_HAL_Driver/Src/stm32f0xx_hal_flash_ex.c ****   return status;
 1518              		.loc 1 881 10
 1519 0064 0F23     		movs	r3, #15
 1520 0066 FB18     		adds	r3, r7, r3
 1521 0068 1B78     		ldrb	r3, [r3]
 882:Drivers/STM32F0xx_HAL_Driver/Src/stm32f0xx_hal_flash_ex.c **** }
 1522              		.loc 1 882 1
 1523 006a 1800     		movs	r0, r3
 1524 006c BD46     		mov	sp, r7
 1525 006e 04B0     		add	sp, sp, #16
 1526              		@ sp needed
 1527 0070 B0BD     		pop	{r4, r5, r7, pc}
 1528              	.L73:
 1529 0072 C046     		.align	2
ARM GAS  C:\Users\einom\AppData\Local\Temp\ccRZzXCk.s 			page 43


 1530              	.L72:
 1531 0074 50C30000 		.word	50000
 1532 0078 00000000 		.word	pFlash
 1533 007c 00200240 		.word	1073881088
 1534              		.cfi_endproc
 1535              	.LFE51:
 1537              		.section	.text.FLASH_OB_GetWRP,"ax",%progbits
 1538              		.align	1
 1539              		.syntax unified
 1540              		.code	16
 1541              		.thumb_func
 1543              	FLASH_OB_GetWRP:
 1544              	.LFB52:
 883:Drivers/STM32F0xx_HAL_Driver/Src/stm32f0xx_hal_flash_ex.c **** 
 884:Drivers/STM32F0xx_HAL_Driver/Src/stm32f0xx_hal_flash_ex.c **** /**
 885:Drivers/STM32F0xx_HAL_Driver/Src/stm32f0xx_hal_flash_ex.c ****   * @brief  Return the FLASH Write Protection Option Bytes value.
 886:Drivers/STM32F0xx_HAL_Driver/Src/stm32f0xx_hal_flash_ex.c ****   * @retval The FLASH Write Protection Option Bytes value
 887:Drivers/STM32F0xx_HAL_Driver/Src/stm32f0xx_hal_flash_ex.c ****   */
 888:Drivers/STM32F0xx_HAL_Driver/Src/stm32f0xx_hal_flash_ex.c **** static uint32_t FLASH_OB_GetWRP(void)
 889:Drivers/STM32F0xx_HAL_Driver/Src/stm32f0xx_hal_flash_ex.c **** {
 1545              		.loc 1 889 1
 1546              		.cfi_startproc
 1547              		@ args = 0, pretend = 0, frame = 0
 1548              		@ frame_needed = 1, uses_anonymous_args = 0
 1549 0000 80B5     		push	{r7, lr}
 1550              	.LCFI35:
 1551              		.cfi_def_cfa_offset 8
 1552              		.cfi_offset 7, -8
 1553              		.cfi_offset 14, -4
 1554 0002 00AF     		add	r7, sp, #0
 1555              	.LCFI36:
 1556              		.cfi_def_cfa_register 7
 890:Drivers/STM32F0xx_HAL_Driver/Src/stm32f0xx_hal_flash_ex.c ****   /* Return the FLASH write protection Register value */
 891:Drivers/STM32F0xx_HAL_Driver/Src/stm32f0xx_hal_flash_ex.c ****   return (uint32_t)(READ_REG(FLASH->WRPR));
 1557              		.loc 1 891 21
 1558 0004 024B     		ldr	r3, .L76
 1559              		.loc 1 891 10
 1560 0006 1B6A     		ldr	r3, [r3, #32]
 892:Drivers/STM32F0xx_HAL_Driver/Src/stm32f0xx_hal_flash_ex.c **** }
 1561              		.loc 1 892 1
 1562 0008 1800     		movs	r0, r3
 1563 000a BD46     		mov	sp, r7
 1564              		@ sp needed
 1565 000c 80BD     		pop	{r7, pc}
 1566              	.L77:
 1567 000e C046     		.align	2
 1568              	.L76:
 1569 0010 00200240 		.word	1073881088
 1570              		.cfi_endproc
 1571              	.LFE52:
 1573              		.section	.text.FLASH_OB_GetRDP,"ax",%progbits
 1574              		.align	1
 1575              		.syntax unified
 1576              		.code	16
 1577              		.thumb_func
 1579              	FLASH_OB_GetRDP:
 1580              	.LFB53:
ARM GAS  C:\Users\einom\AppData\Local\Temp\ccRZzXCk.s 			page 44


 893:Drivers/STM32F0xx_HAL_Driver/Src/stm32f0xx_hal_flash_ex.c **** 
 894:Drivers/STM32F0xx_HAL_Driver/Src/stm32f0xx_hal_flash_ex.c **** /**
 895:Drivers/STM32F0xx_HAL_Driver/Src/stm32f0xx_hal_flash_ex.c ****   * @brief  Returns the FLASH Read Protection level.
 896:Drivers/STM32F0xx_HAL_Driver/Src/stm32f0xx_hal_flash_ex.c ****   * @retval FLASH RDP level
 897:Drivers/STM32F0xx_HAL_Driver/Src/stm32f0xx_hal_flash_ex.c ****   *         This parameter can be one of the following values:
 898:Drivers/STM32F0xx_HAL_Driver/Src/stm32f0xx_hal_flash_ex.c ****   *            @arg @ref OB_RDP_LEVEL_0 No protection
 899:Drivers/STM32F0xx_HAL_Driver/Src/stm32f0xx_hal_flash_ex.c ****   *            @arg @ref OB_RDP_LEVEL_1 Read protection of the memory
 900:Drivers/STM32F0xx_HAL_Driver/Src/stm32f0xx_hal_flash_ex.c ****   *            @arg @ref OB_RDP_LEVEL_2 Full chip protection
 901:Drivers/STM32F0xx_HAL_Driver/Src/stm32f0xx_hal_flash_ex.c ****   */
 902:Drivers/STM32F0xx_HAL_Driver/Src/stm32f0xx_hal_flash_ex.c **** static uint32_t FLASH_OB_GetRDP(void)
 903:Drivers/STM32F0xx_HAL_Driver/Src/stm32f0xx_hal_flash_ex.c **** {
 1581              		.loc 1 903 1
 1582              		.cfi_startproc
 1583              		@ args = 0, pretend = 0, frame = 8
 1584              		@ frame_needed = 1, uses_anonymous_args = 0
 1585 0000 80B5     		push	{r7, lr}
 1586              	.LCFI37:
 1587              		.cfi_def_cfa_offset 8
 1588              		.cfi_offset 7, -8
 1589              		.cfi_offset 14, -4
 1590 0002 82B0     		sub	sp, sp, #8
 1591              	.LCFI38:
 1592              		.cfi_def_cfa_offset 16
 1593 0004 00AF     		add	r7, sp, #0
 1594              	.LCFI39:
 1595              		.cfi_def_cfa_register 7
 904:Drivers/STM32F0xx_HAL_Driver/Src/stm32f0xx_hal_flash_ex.c ****   uint32_t tmp_reg;
 905:Drivers/STM32F0xx_HAL_Driver/Src/stm32f0xx_hal_flash_ex.c ****   
 906:Drivers/STM32F0xx_HAL_Driver/Src/stm32f0xx_hal_flash_ex.c ****   /* Read RDP level bits */
 907:Drivers/STM32F0xx_HAL_Driver/Src/stm32f0xx_hal_flash_ex.c ****   tmp_reg = READ_BIT(FLASH->OBR, (FLASH_OBR_RDPRT1 | FLASH_OBR_RDPRT2));
 1596              		.loc 1 907 13
 1597 0006 0A4B     		ldr	r3, .L82
 1598 0008 DB69     		ldr	r3, [r3, #28]
 1599              		.loc 1 907 11
 1600 000a 0622     		movs	r2, #6
 1601 000c 1340     		ands	r3, r2
 1602 000e 7B60     		str	r3, [r7, #4]
 908:Drivers/STM32F0xx_HAL_Driver/Src/stm32f0xx_hal_flash_ex.c **** 
 909:Drivers/STM32F0xx_HAL_Driver/Src/stm32f0xx_hal_flash_ex.c ****   if (tmp_reg == 0U)
 1603              		.loc 1 909 6
 1604 0010 7B68     		ldr	r3, [r7, #4]
 1605 0012 002B     		cmp	r3, #0
 1606 0014 01D1     		bne	.L79
 910:Drivers/STM32F0xx_HAL_Driver/Src/stm32f0xx_hal_flash_ex.c ****   {
 911:Drivers/STM32F0xx_HAL_Driver/Src/stm32f0xx_hal_flash_ex.c ****     return OB_RDP_LEVEL_0;
 1607              		.loc 1 911 12
 1608 0016 AA23     		movs	r3, #170
 1609 0018 06E0     		b	.L80
 1610              	.L79:
 912:Drivers/STM32F0xx_HAL_Driver/Src/stm32f0xx_hal_flash_ex.c ****   }
 913:Drivers/STM32F0xx_HAL_Driver/Src/stm32f0xx_hal_flash_ex.c ****   else if ((tmp_reg & FLASH_OBR_RDPRT2) == FLASH_OBR_RDPRT2)
 1611              		.loc 1 913 21
 1612 001a 7B68     		ldr	r3, [r7, #4]
 1613 001c 0422     		movs	r2, #4
 1614 001e 1340     		ands	r3, r2
 1615              		.loc 1 913 11
 1616 0020 01D0     		beq	.L81
ARM GAS  C:\Users\einom\AppData\Local\Temp\ccRZzXCk.s 			page 45


 914:Drivers/STM32F0xx_HAL_Driver/Src/stm32f0xx_hal_flash_ex.c ****   {
 915:Drivers/STM32F0xx_HAL_Driver/Src/stm32f0xx_hal_flash_ex.c ****     return OB_RDP_LEVEL_2;
 1617              		.loc 1 915 12
 1618 0022 CC23     		movs	r3, #204
 1619 0024 00E0     		b	.L80
 1620              	.L81:
 916:Drivers/STM32F0xx_HAL_Driver/Src/stm32f0xx_hal_flash_ex.c ****   }
 917:Drivers/STM32F0xx_HAL_Driver/Src/stm32f0xx_hal_flash_ex.c ****   else 
 918:Drivers/STM32F0xx_HAL_Driver/Src/stm32f0xx_hal_flash_ex.c ****   {
 919:Drivers/STM32F0xx_HAL_Driver/Src/stm32f0xx_hal_flash_ex.c ****     return OB_RDP_LEVEL_1;
 1621              		.loc 1 919 12
 1622 0026 BB23     		movs	r3, #187
 1623              	.L80:
 920:Drivers/STM32F0xx_HAL_Driver/Src/stm32f0xx_hal_flash_ex.c ****   }
 921:Drivers/STM32F0xx_HAL_Driver/Src/stm32f0xx_hal_flash_ex.c **** }
 1624              		.loc 1 921 1
 1625 0028 1800     		movs	r0, r3
 1626 002a BD46     		mov	sp, r7
 1627 002c 02B0     		add	sp, sp, #8
 1628              		@ sp needed
 1629 002e 80BD     		pop	{r7, pc}
 1630              	.L83:
 1631              		.align	2
 1632              	.L82:
 1633 0030 00200240 		.word	1073881088
 1634              		.cfi_endproc
 1635              	.LFE53:
 1637              		.section	.text.FLASH_OB_GetUser,"ax",%progbits
 1638              		.align	1
 1639              		.syntax unified
 1640              		.code	16
 1641              		.thumb_func
 1643              	FLASH_OB_GetUser:
 1644              	.LFB54:
 922:Drivers/STM32F0xx_HAL_Driver/Src/stm32f0xx_hal_flash_ex.c **** 
 923:Drivers/STM32F0xx_HAL_Driver/Src/stm32f0xx_hal_flash_ex.c **** /**
 924:Drivers/STM32F0xx_HAL_Driver/Src/stm32f0xx_hal_flash_ex.c ****   * @brief  Return the FLASH User Option Byte value.
 925:Drivers/STM32F0xx_HAL_Driver/Src/stm32f0xx_hal_flash_ex.c ****   * @retval  The FLASH User Option Bytes values: IWDG_SW(Bit0), RST_STOP(Bit1), RST_STDBY(Bit2), nB
 926:Drivers/STM32F0xx_HAL_Driver/Src/stm32f0xx_hal_flash_ex.c ****   *         VDDA_Analog_Monitoring(Bit5) and SRAM_Parity_Enable(Bit6). 
 927:Drivers/STM32F0xx_HAL_Driver/Src/stm32f0xx_hal_flash_ex.c ****   *         For few devices, following option bytes are available: nBOOT0(Bit3) & BOOT_SEL(Bit7).
 928:Drivers/STM32F0xx_HAL_Driver/Src/stm32f0xx_hal_flash_ex.c ****   */
 929:Drivers/STM32F0xx_HAL_Driver/Src/stm32f0xx_hal_flash_ex.c **** static uint8_t FLASH_OB_GetUser(void)
 930:Drivers/STM32F0xx_HAL_Driver/Src/stm32f0xx_hal_flash_ex.c **** {
 1645              		.loc 1 930 1
 1646              		.cfi_startproc
 1647              		@ args = 0, pretend = 0, frame = 0
 1648              		@ frame_needed = 1, uses_anonymous_args = 0
 1649 0000 80B5     		push	{r7, lr}
 1650              	.LCFI40:
 1651              		.cfi_def_cfa_offset 8
 1652              		.cfi_offset 7, -8
 1653              		.cfi_offset 14, -4
 1654 0002 00AF     		add	r7, sp, #0
 1655              	.LCFI41:
 1656              		.cfi_def_cfa_register 7
 931:Drivers/STM32F0xx_HAL_Driver/Src/stm32f0xx_hal_flash_ex.c ****   /* Return the User Option Byte */
 932:Drivers/STM32F0xx_HAL_Driver/Src/stm32f0xx_hal_flash_ex.c ****   return (uint8_t)((READ_REG(FLASH->OBR) & FLASH_OBR_USER) >> FLASH_POSITION_IWDGSW_BIT);
ARM GAS  C:\Users\einom\AppData\Local\Temp\ccRZzXCk.s 			page 46


 1657              		.loc 1 932 21
 1658 0004 044B     		ldr	r3, .L86
 1659 0006 DB69     		ldr	r3, [r3, #28]
 1660              		.loc 1 932 60
 1661 0008 1B0A     		lsrs	r3, r3, #8
 1662              		.loc 1 932 10
 1663 000a DBB2     		uxtb	r3, r3
 1664 000c 7722     		movs	r2, #119
 1665 000e 1340     		ands	r3, r2
 1666 0010 DBB2     		uxtb	r3, r3
 933:Drivers/STM32F0xx_HAL_Driver/Src/stm32f0xx_hal_flash_ex.c **** }
 1667              		.loc 1 933 1
 1668 0012 1800     		movs	r0, r3
 1669 0014 BD46     		mov	sp, r7
 1670              		@ sp needed
 1671 0016 80BD     		pop	{r7, pc}
 1672              	.L87:
 1673              		.align	2
 1674              	.L86:
 1675 0018 00200240 		.word	1073881088
 1676              		.cfi_endproc
 1677              	.LFE54:
 1679              		.section	.text.FLASH_PageErase,"ax",%progbits
 1680              		.align	1
 1681              		.global	FLASH_PageErase
 1682              		.syntax unified
 1683              		.code	16
 1684              		.thumb_func
 1686              	FLASH_PageErase:
 1687              	.LFB55:
 934:Drivers/STM32F0xx_HAL_Driver/Src/stm32f0xx_hal_flash_ex.c **** 
 935:Drivers/STM32F0xx_HAL_Driver/Src/stm32f0xx_hal_flash_ex.c **** /**
 936:Drivers/STM32F0xx_HAL_Driver/Src/stm32f0xx_hal_flash_ex.c ****   * @}
 937:Drivers/STM32F0xx_HAL_Driver/Src/stm32f0xx_hal_flash_ex.c ****   */
 938:Drivers/STM32F0xx_HAL_Driver/Src/stm32f0xx_hal_flash_ex.c **** 
 939:Drivers/STM32F0xx_HAL_Driver/Src/stm32f0xx_hal_flash_ex.c **** /**
 940:Drivers/STM32F0xx_HAL_Driver/Src/stm32f0xx_hal_flash_ex.c ****   * @}
 941:Drivers/STM32F0xx_HAL_Driver/Src/stm32f0xx_hal_flash_ex.c ****   */
 942:Drivers/STM32F0xx_HAL_Driver/Src/stm32f0xx_hal_flash_ex.c **** 
 943:Drivers/STM32F0xx_HAL_Driver/Src/stm32f0xx_hal_flash_ex.c **** /** @addtogroup FLASH
 944:Drivers/STM32F0xx_HAL_Driver/Src/stm32f0xx_hal_flash_ex.c ****   * @{
 945:Drivers/STM32F0xx_HAL_Driver/Src/stm32f0xx_hal_flash_ex.c ****   */
 946:Drivers/STM32F0xx_HAL_Driver/Src/stm32f0xx_hal_flash_ex.c **** 
 947:Drivers/STM32F0xx_HAL_Driver/Src/stm32f0xx_hal_flash_ex.c **** /** @addtogroup FLASH_Private_Functions
 948:Drivers/STM32F0xx_HAL_Driver/Src/stm32f0xx_hal_flash_ex.c ****  * @{
 949:Drivers/STM32F0xx_HAL_Driver/Src/stm32f0xx_hal_flash_ex.c ****  */
 950:Drivers/STM32F0xx_HAL_Driver/Src/stm32f0xx_hal_flash_ex.c **** 
 951:Drivers/STM32F0xx_HAL_Driver/Src/stm32f0xx_hal_flash_ex.c **** /**
 952:Drivers/STM32F0xx_HAL_Driver/Src/stm32f0xx_hal_flash_ex.c ****   * @brief  Erase the specified FLASH memory page
 953:Drivers/STM32F0xx_HAL_Driver/Src/stm32f0xx_hal_flash_ex.c ****   * @param  PageAddress FLASH page to erase
 954:Drivers/STM32F0xx_HAL_Driver/Src/stm32f0xx_hal_flash_ex.c ****   *         The value of this parameter depend on device used within the same series      
 955:Drivers/STM32F0xx_HAL_Driver/Src/stm32f0xx_hal_flash_ex.c ****   * 
 956:Drivers/STM32F0xx_HAL_Driver/Src/stm32f0xx_hal_flash_ex.c ****   * @retval None
 957:Drivers/STM32F0xx_HAL_Driver/Src/stm32f0xx_hal_flash_ex.c ****   */
 958:Drivers/STM32F0xx_HAL_Driver/Src/stm32f0xx_hal_flash_ex.c **** void FLASH_PageErase(uint32_t PageAddress)
 959:Drivers/STM32F0xx_HAL_Driver/Src/stm32f0xx_hal_flash_ex.c **** {
 1688              		.loc 1 959 1
ARM GAS  C:\Users\einom\AppData\Local\Temp\ccRZzXCk.s 			page 47


 1689              		.cfi_startproc
 1690              		@ args = 0, pretend = 0, frame = 8
 1691              		@ frame_needed = 1, uses_anonymous_args = 0
 1692 0000 80B5     		push	{r7, lr}
 1693              	.LCFI42:
 1694              		.cfi_def_cfa_offset 8
 1695              		.cfi_offset 7, -8
 1696              		.cfi_offset 14, -4
 1697 0002 82B0     		sub	sp, sp, #8
 1698              	.LCFI43:
 1699              		.cfi_def_cfa_offset 16
 1700 0004 00AF     		add	r7, sp, #0
 1701              	.LCFI44:
 1702              		.cfi_def_cfa_register 7
 1703 0006 7860     		str	r0, [r7, #4]
 960:Drivers/STM32F0xx_HAL_Driver/Src/stm32f0xx_hal_flash_ex.c ****   /* Clean the error context */
 961:Drivers/STM32F0xx_HAL_Driver/Src/stm32f0xx_hal_flash_ex.c ****   pFlash.ErrorCode = HAL_FLASH_ERROR_NONE;
 1704              		.loc 1 961 20
 1705 0008 0A4B     		ldr	r3, .L89
 1706 000a 0022     		movs	r2, #0
 1707 000c DA61     		str	r2, [r3, #28]
 962:Drivers/STM32F0xx_HAL_Driver/Src/stm32f0xx_hal_flash_ex.c **** 
 963:Drivers/STM32F0xx_HAL_Driver/Src/stm32f0xx_hal_flash_ex.c ****     /* Proceed to erase the page */
 964:Drivers/STM32F0xx_HAL_Driver/Src/stm32f0xx_hal_flash_ex.c ****     SET_BIT(FLASH->CR, FLASH_CR_PER);
 1708              		.loc 1 964 5
 1709 000e 0A4B     		ldr	r3, .L89+4
 1710 0010 1A69     		ldr	r2, [r3, #16]
 1711 0012 094B     		ldr	r3, .L89+4
 1712 0014 0221     		movs	r1, #2
 1713 0016 0A43     		orrs	r2, r1
 1714 0018 1A61     		str	r2, [r3, #16]
 965:Drivers/STM32F0xx_HAL_Driver/Src/stm32f0xx_hal_flash_ex.c ****     WRITE_REG(FLASH->AR, PageAddress);
 1715              		.loc 1 965 5
 1716 001a 074B     		ldr	r3, .L89+4
 1717 001c 7A68     		ldr	r2, [r7, #4]
 1718 001e 5A61     		str	r2, [r3, #20]
 966:Drivers/STM32F0xx_HAL_Driver/Src/stm32f0xx_hal_flash_ex.c ****     SET_BIT(FLASH->CR, FLASH_CR_STRT);
 1719              		.loc 1 966 5
 1720 0020 054B     		ldr	r3, .L89+4
 1721 0022 1A69     		ldr	r2, [r3, #16]
 1722 0024 044B     		ldr	r3, .L89+4
 1723 0026 4021     		movs	r1, #64
 1724 0028 0A43     		orrs	r2, r1
 1725 002a 1A61     		str	r2, [r3, #16]
 967:Drivers/STM32F0xx_HAL_Driver/Src/stm32f0xx_hal_flash_ex.c **** }
 1726              		.loc 1 967 1
 1727 002c C046     		nop
 1728 002e BD46     		mov	sp, r7
 1729 0030 02B0     		add	sp, sp, #8
 1730              		@ sp needed
 1731 0032 80BD     		pop	{r7, pc}
 1732              	.L90:
 1733              		.align	2
 1734              	.L89:
 1735 0034 00000000 		.word	pFlash
 1736 0038 00200240 		.word	1073881088
 1737              		.cfi_endproc
ARM GAS  C:\Users\einom\AppData\Local\Temp\ccRZzXCk.s 			page 48


 1738              	.LFE55:
 1740              		.text
 1741              	.Letext0:
 1742              		.file 2 "C:\\ST\\STM32CubeIDE_1.19.0\\STM32CubeIDE\\plugins\\com.st.stm32cube.ide.mcu.externaltool
 1743              		.file 3 "C:\\ST\\STM32CubeIDE_1.19.0\\STM32CubeIDE\\plugins\\com.st.stm32cube.ide.mcu.externaltool
 1744              		.file 4 "Drivers/CMSIS/Device/ST/STM32F0xx/Include/stm32f051x8.h"
 1745              		.file 5 "Drivers/STM32F0xx_HAL_Driver/Inc/stm32f0xx_hal_def.h"
 1746              		.file 6 "Drivers/STM32F0xx_HAL_Driver/Inc/stm32f0xx_hal_flash.h"
 1747              		.file 7 "Drivers/STM32F0xx_HAL_Driver/Inc/stm32f0xx_hal_flash_ex.h"
ARM GAS  C:\Users\einom\AppData\Local\Temp\ccRZzXCk.s 			page 49

